15:25:13: Loading ROM file: D:\nesroms\tests\mmc3_irq_tests\1.Clocking.nes
15:25:13: PRG 8K Switch 1 1
15:25:13: PRG 8K Switch 3 1
15:25:13: PRG 8K Switch 0 0
15:25:13: PRG 8K Switch 2 0
15:25:13: CHR 1K Switch 0 0
15:25:13: CHR 1K Switch 1 1
15:25:13: CHR 1K Switch 2 2
15:25:13: CHR 1K Switch 3 3
15:25:13: CHR 1K Switch 4 4
15:25:13: CHR 1K Switch 5 5
15:25:13: CHR 1K Switch 6 6
15:25:13: CHR 1K Switch 7 7
15:25:13: 57773 RESET triggered
15:25:13: E1AD  20 B0 E0  JSR $E0B0                      A:00 X:00 Y:00 P:24 SP:FD CYC:  3 SL:-21
15:25:13: E0B0  A9 C8     LDA #$C8                       A:00 X:00 Y:00 P:24 SP:FB CYC: 21 SL:-21
15:25:13: E0B2  20 5E E2  JSR $E25E                      A:C8 X:00 Y:00 P:A4 SP:FB CYC: 27 SL:-21
15:25:13: E25E  48        PHA                            A:C8 X:00 Y:00 P:A4 SP:F9 CYC: 45 SL:-21
15:25:13: E25F  A9 FD     LDA #$FD                       A:C8 X:00 Y:00 P:A4 SP:F8 CYC: 54 SL:-21
15:25:13: E261  38        SEC                            A:FD X:00 Y:00 P:A4 SP:F8 CYC: 60 SL:-21
15:25:13: E262  EA        NOP                            A:FD X:00 Y:00 P:A5 SP:F8 CYC: 66 SL:-21
15:25:13: E263  69 FE     ADC #$FE                       A:FD X:00 Y:00 P:A5 SP:F8 CYC: 72 SL:-21
15:25:13: E265  D0 FB     BNE $E262                      A:FC X:00 Y:00 P:A5 SP:F8 CYC: 78 SL:-21
15:25:13: 
LOOP: e265 -> e262 x 252

15:25:13: E267  68        PLA                            A:00 X:00 Y:00 P:27 SP:F8 CYC:261 SL:-6
15:25:13: E268  18        CLC                            A:C8 X:00 Y:00 P:A5 SP:F9 CYC:273 SL:-6
15:25:13: E269  69 FF     ADC #$FF                       A:C8 X:00 Y:00 P:A4 SP:F9 CYC:279 SL:-6
15:25:13: E26B  D0 F1     BNE $E25E                      A:C7 X:00 Y:00 P:A5 SP:F9 CYC:285 SL:-6
15:25:13: VBL CLEARED HT: 0 VT: 0 FX: 0 FY: 0 RX: 5 RY: -1
15:25:13: Frame finished, vblank set
15:25:13: VBL CLEARED HT: 0 VT: 0 FX: 0 FY: 0 RX: 3 RY: -1
15:25:13: Frame finished, vblank set
15:25:13: VBL CLEARED HT: 0 VT: 0 FX: 0 FY: 0 RX: 1 RY: -1
15:25:13: Frame finished, vblank set
15:25:13: VBL CLEARED HT: 0 VT: 0 FX: 0 FY: 0 RX: 5 RY: -1
15:25:13: Frame finished, vblank set
15:25:13: VBL CLEARED HT: 0 VT: 0 FX: 0 FY: 0 RX: 0 RY: -1
15:25:13: Frame finished, vblank set
15:25:13: VBL CLEARED HT: 0 VT: 0 FX: 0 FY: 0 RX: 7 RY: -1
15:25:13: Frame finished, vblank set
15:25:13: VBL CLEARED HT: 0 VT: 0 FX: 0 FY: 0 RX: 5 RY: -1
15:25:13: Frame finished, vblank set
15:25:13: VBL CLEARED HT: 0 VT: 0 FX: 0 FY: 0 RX: 0 RY: -1
15:25:13: Frame finished, vblank set
15:25:13: VBL CLEARED HT: 0 VT: 0 FX: 0 FY: 0 RX: 4 RY: -1
15:25:13: Frame finished, vblank set
15:25:13: VBL CLEARED HT: 0 VT: 0 FX: 0 FY: 0 RX: 2 RY: -1
15:25:13: Frame finished, vblank set
15:25:13: VBL CLEARED HT: 0 VT: 0 FX: 0 FY: 0 RX: 0 RY: -1
15:25:13: Frame finished, vblank set
15:25:13: VBL CLEARED HT: 0 VT: 0 FX: 0 FY: 0 RX: 4 RY: -1
15:25:13: Frame finished, vblank set
15:25:13: 
LOOP: e26b -> e25e x 199

15:25:13: E26D  60        RTS                            A:00 X:00 Y:00 P:27 SP:F9 CYC: 56 SL:-19
15:25:13: E0B5  A9 C0     LDA #$C0                       A:00 X:00 Y:00 P:27 SP:FB CYC: 74 SL:-19
15:25:13: E0B7  8D 17 40  STA $4017 = 00                 A:C0 X:00 Y:00 P:A5 SP:FB CYC: 80 SL:-19
15:25:13: E0BA  A9 00     LDA #$00                       A:C0 X:00 Y:00 P:A5 SP:FB CYC: 92 SL:-19
15:25:13: E0BC  8D 01 20  STA $2001 = 00                 A:00 X:00 Y:00 P:27 SP:FB CYC: 98 SL:-19
15:25:13: E0BF  8D 00 20  STA $2000 = 00                 A:00 X:00 Y:00 P:27 SP:FB CYC:110 SL:-19
15:25:13: E0C2  2C 02 20  BIT $2002 = 00                 A:00 X:00 Y:00 P:27 SP:FB CYC:122 SL:-19
15:25:13: E0C5  8D 06 20  STA $2006 = 00                 A:00 X:00 Y:00 P:A7 SP:FB CYC:134 SL:-19
15:25:13: E0C8  8D 06 20  STA $2006 = 00                 A:00 X:00 Y:00 P:A7 SP:FB CYC:146 SL:-19
15:25:13: E0CB  AE FC FF  LDX $FFFC = 00                 A:00 X:00 Y:00 P:A7 SP:FB CYC:158 SL:-19
15:25:13: E0CE  A9 4C     LDA #$4C                       A:00 X:AD Y:00 P:A5 SP:FB CYC:170 SL:-19
15:25:13: E0D0  95 00     STA $00, X = 00                A:4C X:AD Y:00 P:25 SP:FB CYC:176 SL:-19
15:25:13: E0D2  A9 00     LDA #$00                       A:4C X:AD Y:00 P:25 SP:FB CYC:188 SL:-19
15:25:13: E0D4  95 01     STA $01, X = 00                A:00 X:AD Y:00 P:27 SP:FB CYC:194 SL:-19
15:25:13: E0D6  A9 07     LDA #$07                       A:00 X:AD Y:00 P:27 SP:FB CYC:206 SL:-19
15:25:13: E0D8  95 02     STA $02, X = 00                A:07 X:AD Y:00 P:25 SP:FB CYC:212 SL:-19
15:25:13: E0DA  AE FE FF  LDX $FFFE = 00                 A:07 X:AD Y:00 P:25 SP:FB CYC:224 SL:-19
15:25:13: E0DD  A9 4C     LDA #$4C                       A:07 X:65 Y:00 P:25 SP:FB CYC:236 SL:-19
15:25:13: E0DF  95 00     STA $00, X = 00                A:4C X:65 Y:00 P:25 SP:FB CYC:242 SL:-19
15:25:13: E0E1  A9 65     LDA #$65                       A:4C X:65 Y:00 P:25 SP:FB CYC:254 SL:-19
15:25:13: E0E3  95 01     STA $01, X = 00                A:65 X:65 Y:00 P:25 SP:FB CYC:260 SL:-19
15:25:13: E0E5  A9 E1     LDA #$E1                       A:65 X:65 Y:00 P:25 SP:FB CYC:272 SL:-19
15:25:13: E0E7  95 02     STA $02, X = 00                A:E1 X:65 Y:00 P:A5 SP:FB CYC:278 SL:-19
15:25:13: E0E9  A9 01     LDA #$01                       A:E1 X:65 Y:00 P:A5 SP:FB CYC:290 SL:-19
15:25:13: E0EB  20 03 E1  JSR $E103                      A:01 X:65 Y:00 P:25 SP:FB CYC:296 SL:-19
15:25:13: E103  8D 00 C0  STA $C000 = 00                 A:01 X:65 Y:00 P:25 SP:F9 CYC:314 SL:-19
15:25:13: IRQ counter manually set: 1
15:25:13: E106  60        RTS                            A:01 X:65 Y:00 P:25 SP:F9 CYC:326 SL:-19
15:25:13: E0EE  20 07 E1  JSR $E107                      A:01 X:65 Y:00 P:25 SP:FB CYC:  3 SL:-18
15:25:13: E107  A9 7B     LDA #$7B                       A:01 X:65 Y:00 P:25 SP:F9 CYC: 21 SL:-18
15:25:13: E109  8D 01 C0  STA $C001 = 00                 A:7B X:65 Y:00 P:25 SP:F9 CYC: 27 SL:-18
15:25:13: IRQ latch manually set: Counter: 1 Latch: 123
15:25:13: E10C  60        RTS                            A:7B X:65 Y:00 P:25 SP:F9 CYC: 39 SL:-18
15:25:13: E0F1  A2 00     LDX #$00                       A:7B X:65 Y:00 P:25 SP:FB CYC: 57 SL:-18
15:25:13: E0F3  20 1E E1  JSR $E11E                      A:7B X:00 Y:00 P:27 SP:FB CYC: 63 SL:-18
15:25:13: E11E  20 25 E1  JSR $E125                      A:7B X:00 Y:00 P:27 SP:F9 CYC: 81 SL:-18
15:25:13: E125  48        PHA                            A:7B X:00 Y:00 P:27 SP:F7 CYC: 99 SL:-18
15:25:13: E126  A9 00     LDA #$00                       A:7B X:00 Y:00 P:27 SP:F6 CYC:108 SL:-18
15:25:13: E128  8D 06 20  STA $2006 = 00                 A:00 X:00 Y:00 P:27 SP:F6 CYC:114 SL:-18
15:25:13: E12B  8D 06 20  STA $2006 = 00                 A:00 X:00 Y:00 P:27 SP:F6 CYC:126 SL:-18
15:25:13: E12E  A9 10     LDA #$10                       A:00 X:00 Y:00 P:27 SP:F6 CYC:138 SL:-18
15:25:13: E130  8D 06 20  STA $2006 = 00                 A:10 X:00 Y:00 P:25 SP:F6 CYC:144 SL:-18
15:25:13: E133  8D 06 20  STA $2006 = 00                 A:10 X:00 Y:00 P:25 SP:F6 CYC:156 SL:-18
15:25:13: E136  A9 00     LDA #$00                       A:10 X:00 Y:00 P:25 SP:F6 CYC:168 SL:-18
15:25:13: E138  8D 06 20  STA $2006 = 00                 A:00 X:00 Y:00 P:27 SP:F6 CYC:174 SL:-18
15:25:13: E13B  8D 06 20  STA $2006 = 00                 A:00 X:00 Y:00 P:27 SP:F6 CYC:186 SL:-18
15:25:13: E13E  68        PLA                            A:00 X:00 Y:00 P:27 SP:F6 CYC:198 SL:-18
15:25:13: E13F  60        RTS                            A:7B X:00 Y:00 P:25 SP:F7 CYC:210 SL:-18
15:25:13: E121  CA        DEX                            A:7B X:00 Y:00 P:25 SP:F9 CYC:228 SL:-18
15:25:13: E122  D0 FA     BNE $E11E                      A:7B X:FF Y:00 P:A5 SP:F9 CYC:234 SL:-18
15:25:13: E11E  20 25 E1  JSR $E125                      A:7B X:FF Y:00 P:A5 SP:F9 CYC:243 SL:-18
15:25:13: E125  48        PHA                            A:7B X:FF Y:00 P:A5 SP:F7 CYC:261 SL:-18
15:25:13: E126  A9 00     LDA #$00                       A:7B X:FF Y:00 P:A5 SP:F6 CYC:270 SL:-18
15:25:13: E128  8D 06 20  STA $2006 = 00                 A:00 X:FF Y:00 P:27 SP:F6 CYC:276 SL:-18
15:25:13: E12B  8D 06 20  STA $2006 = 00                 A:00 X:FF Y:00 P:27 SP:F6 CYC:288 SL:-18
15:25:13: E12E  A9 10     LDA #$10                       A:00 X:FF Y:00 P:27 SP:F6 CYC:300 SL:-18
15:25:13: E130  8D 06 20  STA $2006 = 00                 A:10 X:FF Y:00 P:25 SP:F6 CYC:306 SL:-18
15:25:13: E133  8D 06 20  STA $2006 = 00                 A:10 X:FF Y:00 P:25 SP:F6 CYC:318 SL:-18
15:25:13: E136  A9 00     LDA #$00                       A:10 X:FF Y:00 P:25 SP:F6 CYC:330 SL:-18
15:25:13: E138  8D 06 20  STA $2006 = 00                 A:00 X:FF Y:00 P:27 SP:F6 CYC:336 SL:-18
15:25:13: E13B  8D 06 20  STA $2006 = 00                 A:00 X:FF Y:00 P:27 SP:F6 CYC:  7 SL:-17
15:25:13: E13E  68        PLA                            A:00 X:FF Y:00 P:27 SP:F6 CYC: 19 SL:-17
15:25:13: E13F  60        RTS                            A:7B X:FF Y:00 P:25 SP:F7 CYC: 31 SL:-17
15:25:13: E121  CA        DEX                            A:7B X:FF Y:00 P:25 SP:F9 CYC: 49 SL:-17
15:25:13: E122  D0 FA     BNE $E11E                      A:7B X:FE Y:00 P:A5 SP:F9 CYC: 55 SL:-17
15:25:13: E11E  20 25 E1  JSR $E125                      A:7B X:FE Y:00 P:A5 SP:F9 CYC: 64 SL:-17
15:25:13: E125  48        PHA                            A:7B X:FE Y:00 P:A5 SP:F7 CYC: 82 SL:-17
15:25:13: E126  A9 00     LDA #$00                       A:7B X:FE Y:00 P:A5 SP:F6 CYC: 91 SL:-17
15:25:13: E128  8D 06 20  STA $2006 = 00                 A:00 X:FE Y:00 P:27 SP:F6 CYC: 97 SL:-17
15:25:13: E12B  8D 06 20  STA $2006 = 00                 A:00 X:FE Y:00 P:27 SP:F6 CYC:109 SL:-17
15:25:13: E12E  A9 10     LDA #$10                       A:00 X:FE Y:00 P:27 SP:F6 CYC:121 SL:-17
15:25:13: E130  8D 06 20  STA $2006 = 00                 A:10 X:FE Y:00 P:25 SP:F6 CYC:127 SL:-17
15:25:13: E133  8D 06 20  STA $2006 = 00                 A:10 X:FE Y:00 P:25 SP:F6 CYC:139 SL:-17
15:25:13: E136  A9 00     LDA #$00                       A:10 X:FE Y:00 P:25 SP:F6 CYC:151 SL:-17
15:25:13: E138  8D 06 20  STA $2006 = 00                 A:00 X:FE Y:00 P:27 SP:F6 CYC:157 SL:-17
15:25:13: E13B  8D 06 20  STA $2006 = 00                 A:00 X:FE Y:00 P:27 SP:F6 CYC:169 SL:-17
15:25:13: E13E  68        PLA                            A:00 X:FE Y:00 P:27 SP:F6 CYC:181 SL:-17
15:25:13: E13F  60        RTS                            A:7B X:FE Y:00 P:25 SP:F7 CYC:193 SL:-17
15:25:13: E121  CA        DEX                            A:7B X:FE Y:00 P:25 SP:F9 CYC:211 SL:-17
15:25:13: E122  D0 FA     BNE $E11E                      A:7B X:FD Y:00 P:A5 SP:F9 CYC:217 SL:-17
15:25:13: E11E  20 25 E1  JSR $E125                      A:7B X:FD Y:00 P:A5 SP:F9 CYC:226 SL:-17
15:25:13: E125  48        PHA                            A:7B X:FD Y:00 P:A5 SP:F7 CYC:244 SL:-17
15:25:13: E126  A9 00     LDA #$00                       A:7B X:FD Y:00 P:A5 SP:F6 CYC:253 SL:-17
15:25:13: E128  8D 06 20  STA $2006 = 00                 A:00 X:FD Y:00 P:27 SP:F6 CYC:259 SL:-17
15:25:13: E12B  8D 06 20  STA $2006 = 00                 A:00 X:FD Y:00 P:27 SP:F6 CYC:271 SL:-17
15:25:13: E12E  A9 10     LDA #$10                       A:00 X:FD Y:00 P:27 SP:F6 CYC:283 SL:-17
15:25:13: E130  8D 06 20  STA $2006 = 00                 A:10 X:FD Y:00 P:25 SP:F6 CYC:289 SL:-17
15:25:13: E133  8D 06 20  STA $2006 = 00                 A:10 X:FD Y:00 P:25 SP:F6 CYC:301 SL:-17
15:25:13: E136  A9 00     LDA #$00                       A:10 X:FD Y:00 P:25 SP:F6 CYC:313 SL:-17
15:25:13: E138  8D 06 20  STA $2006 = 00                 A:00 X:FD Y:00 P:27 SP:F6 CYC:319 SL:-17
15:25:13: E13B  8D 06 20  STA $2006 = 00                 A:00 X:FD Y:00 P:27 SP:F6 CYC:331 SL:-17
15:25:13: E13E  68        PLA                            A:00 X:FD Y:00 P:27 SP:F6 CYC:  2 SL:-16
15:25:13: E13F  60        RTS                            A:7B X:FD Y:00 P:25 SP:F7 CYC: 14 SL:-16
15:25:13: E121  CA        DEX                            A:7B X:FD Y:00 P:25 SP:F9 CYC: 32 SL:-16
15:25:13: E122  D0 FA     BNE $E11E                      A:7B X:FC Y:00 P:A5 SP:F9 CYC: 38 SL:-16
15:25:13: E11E  20 25 E1  JSR $E125                      A:7B X:FC Y:00 P:A5 SP:F9 CYC: 47 SL:-16
15:25:13: E125  48        PHA                            A:7B X:FC Y:00 P:A5 SP:F7 CYC: 65 SL:-16
15:25:13: E126  A9 00     LDA #$00                       A:7B X:FC Y:00 P:A5 SP:F6 CYC: 74 SL:-16
15:25:13: E128  8D 06 20  STA $2006 = 00                 A:00 X:FC Y:00 P:27 SP:F6 CYC: 80 SL:-16
15:25:13: E12B  8D 06 20  STA $2006 = 00                 A:00 X:FC Y:00 P:27 SP:F6 CYC: 92 SL:-16
15:25:13: E12E  A9 10     LDA #$10                       A:00 X:FC Y:00 P:27 SP:F6 CYC:104 SL:-16
15:25:13: E130  8D 06 20  STA $2006 = 00                 A:10 X:FC Y:00 P:25 SP:F6 CYC:110 SL:-16
15:25:13: E133  8D 06 20  STA $2006 = 00                 A:10 X:FC Y:00 P:25 SP:F6 CYC:122 SL:-16
15:25:13: E136  A9 00     LDA #$00                       A:10 X:FC Y:00 P:25 SP:F6 CYC:134 SL:-16
15:25:13: E138  8D 06 20  STA $2006 = 00                 A:00 X:FC Y:00 P:27 SP:F6 CYC:140 SL:-16
15:25:13: E13B  8D 06 20  STA $2006 = 00                 A:00 X:FC Y:00 P:27 SP:F6 CYC:152 SL:-16
15:25:13: E13E  68        PLA                            A:00 X:FC Y:00 P:27 SP:F6 CYC:164 SL:-16
15:25:13: E13F  60        RTS                            A:7B X:FC Y:00 P:25 SP:F7 CYC:176 SL:-16
15:25:13: E121  CA        DEX                            A:7B X:FC Y:00 P:25 SP:F9 CYC:194 SL:-16
15:25:14: E122  D0 FA     BNE $E11E                      A:7B X:FB Y:00 P:A5 SP:F9 CYC:200 SL:-16
15:25:14: E11E  20 25 E1  JSR $E125                      A:7B X:FB Y:00 P:A5 SP:F9 CYC:209 SL:-16
15:25:14: E125  48        PHA                            A:7B X:FB Y:00 P:A5 SP:F7 CYC:227 SL:-16
15:25:14: E126  A9 00     LDA #$00                       A:7B X:FB Y:00 P:A5 SP:F6 CYC:236 SL:-16
15:25:14: E128  8D 06 20  STA $2006 = 00                 A:00 X:FB Y:00 P:27 SP:F6 CYC:242 SL:-16
15:25:14: E12B  8D 06 20  STA $2006 = 00                 A:00 X:FB Y:00 P:27 SP:F6 CYC:254 SL:-16
15:25:14: E12E  A9 10     LDA #$10                       A:00 X:FB Y:00 P:27 SP:F6 CYC:266 SL:-16
15:25:14: E130  8D 06 20  STA $2006 = 00                 A:10 X:FB Y:00 P:25 SP:F6 CYC:272 SL:-16
15:25:14: E133  8D 06 20  STA $2006 = 00                 A:10 X:FB Y:00 P:25 SP:F6 CYC:284 SL:-16
15:25:14: E136  A9 00     LDA #$00                       A:10 X:FB Y:00 P:25 SP:F6 CYC:296 SL:-16
15:25:14: E138  8D 06 20  STA $2006 = 00                 A:00 X:FB Y:00 P:27 SP:F6 CYC:302 SL:-16
15:25:14: E13B  8D 06 20  STA $2006 = 00                 A:00 X:FB Y:00 P:27 SP:F6 CYC:314 SL:-16
15:25:14: E13E  68        PLA                            A:00 X:FB Y:00 P:27 SP:F6 CYC:326 SL:-16
15:25:14: E13F  60        RTS                            A:7B X:FB Y:00 P:25 SP:F7 CYC:338 SL:-16
15:25:14: E121  CA        DEX                            A:7B X:FB Y:00 P:25 SP:F9 CYC: 15 SL:-15
15:25:14: E122  D0 FA     BNE $E11E                      A:7B X:FA Y:00 P:A5 SP:F9 CYC: 21 SL:-15
15:25:14: E11E  20 25 E1  JSR $E125                      A:7B X:FA Y:00 P:A5 SP:F9 CYC: 30 SL:-15
15:25:14: E125  48        PHA                            A:7B X:FA Y:00 P:A5 SP:F7 CYC: 48 SL:-15
15:25:14: E126  A9 00     LDA #$00                       A:7B X:FA Y:00 P:A5 SP:F6 CYC: 57 SL:-15
15:25:14: E128  8D 06 20  STA $2006 = 00                 A:00 X:FA Y:00 P:27 SP:F6 CYC: 63 SL:-15
15:25:14: E12B  8D 06 20  STA $2006 = 00                 A:00 X:FA Y:00 P:27 SP:F6 CYC: 75 SL:-15
15:25:14: E12E  A9 10     LDA #$10                       A:00 X:FA Y:00 P:27 SP:F6 CYC: 87 SL:-15
15:25:14: E130  8D 06 20  STA $2006 = 00                 A:10 X:FA Y:00 P:25 SP:F6 CYC: 93 SL:-15
15:25:14: E133  8D 06 20  STA $2006 = 00                 A:10 X:FA Y:00 P:25 SP:F6 CYC:105 SL:-15
15:25:14: E136  A9 00     LDA #$00                       A:10 X:FA Y:00 P:25 SP:F6 CYC:117 SL:-15
15:25:14: E138  8D 06 20  STA $2006 = 00                 A:00 X:FA Y:00 P:27 SP:F6 CYC:123 SL:-15
15:25:14: E13B  8D 06 20  STA $2006 = 00                 A:00 X:FA Y:00 P:27 SP:F6 CYC:135 SL:-15
15:25:14: E13E  68        PLA                            A:00 X:FA Y:00 P:27 SP:F6 CYC:147 SL:-15
15:25:14: E13F  60        RTS                            A:7B X:FA Y:00 P:25 SP:F7 CYC:159 SL:-15
15:25:14: E121  CA        DEX                            A:7B X:FA Y:00 P:25 SP:F9 CYC:177 SL:-15
15:25:14: E122  D0 FA     BNE $E11E                      A:7B X:F9 Y:00 P:A5 SP:F9 CYC:183 SL:-15
15:25:14: E11E  20 25 E1  JSR $E125                      A:7B X:F9 Y:00 P:A5 SP:F9 CYC:192 SL:-15
15:25:14: E125  48        PHA                            A:7B X:F9 Y:00 P:A5 SP:F7 CYC:210 SL:-15
15:25:14: E126  A9 00     LDA #$00                       A:7B X:F9 Y:00 P:A5 SP:F6 CYC:219 SL:-15
15:25:14: E128  8D 06 20  STA $2006 = 00                 A:00 X:F9 Y:00 P:27 SP:F6 CYC:225 SL:-15
15:25:14: E12B  8D 06 20  STA $2006 = 00                 A:00 X:F9 Y:00 P:27 SP:F6 CYC:237 SL:-15
15:25:14: E12E  A9 10     LDA #$10                       A:00 X:F9 Y:00 P:27 SP:F6 CYC:249 SL:-15
15:25:14: E130  8D 06 20  STA $2006 = 00                 A:10 X:F9 Y:00 P:25 SP:F6 CYC:255 SL:-15
15:25:14: E133  8D 06 20  STA $2006 = 00                 A:10 X:F9 Y:00 P:25 SP:F6 CYC:267 SL:-15
15:25:14: E136  A9 00     LDA #$00                       A:10 X:F9 Y:00 P:25 SP:F6 CYC:279 SL:-15
15:25:14: E138  8D 06 20  STA $2006 = 00                 A:00 X:F9 Y:00 P:27 SP:F6 CYC:285 SL:-15
15:25:14: E13B  8D 06 20  STA $2006 = 00                 A:00 X:F9 Y:00 P:27 SP:F6 CYC:297 SL:-15
15:25:14: E13E  68        PLA                            A:00 X:F9 Y:00 P:27 SP:F6 CYC:309 SL:-15
15:25:14: E13F  60        RTS                            A:7B X:F9 Y:00 P:25 SP:F7 CYC:321 SL:-15
15:25:14: E121  CA        DEX                            A:7B X:F9 Y:00 P:25 SP:F9 CYC:339 SL:-15
15:25:14: E122  D0 FA     BNE $E11E                      A:7B X:F8 Y:00 P:A5 SP:F9 CYC:  4 SL:-14
15:25:14: E11E  20 25 E1  JSR $E125                      A:7B X:F8 Y:00 P:A5 SP:F9 CYC: 13 SL:-14
15:25:14: E125  48        PHA                            A:7B X:F8 Y:00 P:A5 SP:F7 CYC: 31 SL:-14
15:25:14: E126  A9 00     LDA #$00                       A:7B X:F8 Y:00 P:A5 SP:F6 CYC: 40 SL:-14
15:25:14: E128  8D 06 20  STA $2006 = 00                 A:00 X:F8 Y:00 P:27 SP:F6 CYC: 46 SL:-14
15:25:14: E12B  8D 06 20  STA $2006 = 00                 A:00 X:F8 Y:00 P:27 SP:F6 CYC: 58 SL:-14
15:25:14: E12E  A9 10     LDA #$10                       A:00 X:F8 Y:00 P:27 SP:F6 CYC: 70 SL:-14
15:25:14: E130  8D 06 20  STA $2006 = 00                 A:10 X:F8 Y:00 P:25 SP:F6 CYC: 76 SL:-14
15:25:14: E133  8D 06 20  STA $2006 = 00                 A:10 X:F8 Y:00 P:25 SP:F6 CYC: 88 SL:-14
15:25:14: E136  A9 00     LDA #$00                       A:10 X:F8 Y:00 P:25 SP:F6 CYC:100 SL:-14
15:25:14: E138  8D 06 20  STA $2006 = 00                 A:00 X:F8 Y:00 P:27 SP:F6 CYC:106 SL:-14
15:25:14: E13B  8D 06 20  STA $2006 = 00                 A:00 X:F8 Y:00 P:27 SP:F6 CYC:118 SL:-14
15:25:14: E13E  68        PLA                            A:00 X:F8 Y:00 P:27 SP:F6 CYC:130 SL:-14
15:25:14: E13F  60        RTS                            A:7B X:F8 Y:00 P:25 SP:F7 CYC:142 SL:-14
15:25:14: E121  CA        DEX                            A:7B X:F8 Y:00 P:25 SP:F9 CYC:160 SL:-14
15:25:14: E122  D0 FA     BNE $E11E                      A:7B X:F7 Y:00 P:A5 SP:F9 CYC:166 SL:-14
15:25:14: E11E  20 25 E1  JSR $E125                      A:7B X:F7 Y:00 P:A5 SP:F9 CYC:175 SL:-14
15:25:14: E125  48        PHA                            A:7B X:F7 Y:00 P:A5 SP:F7 CYC:193 SL:-14
15:25:14: E126  A9 00     LDA #$00                       A:7B X:F7 Y:00 P:A5 SP:F6 CYC:202 SL:-14
15:25:14: E128  8D 06 20  STA $2006 = 00                 A:00 X:F7 Y:00 P:27 SP:F6 CYC:208 SL:-14
15:25:14: E12B  8D 06 20  STA $2006 = 00                 A:00 X:F7 Y:00 P:27 SP:F6 CYC:220 SL:-14
15:25:14: E12E  A9 10     LDA #$10                       A:00 X:F7 Y:00 P:27 SP:F6 CYC:232 SL:-14
15:25:14: E130  8D 06 20  STA $2006 = 00                 A:10 X:F7 Y:00 P:25 SP:F6 CYC:238 SL:-14
15:25:14: E133  8D 06 20  STA $2006 = 00                 A:10 X:F7 Y:00 P:25 SP:F6 CYC:250 SL:-14
15:25:14: E136  A9 00     LDA #$00                       A:10 X:F7 Y:00 P:25 SP:F6 CYC:262 SL:-14
15:25:14: E138  8D 06 20  STA $2006 = 00                 A:00 X:F7 Y:00 P:27 SP:F6 CYC:268 SL:-14
15:25:14: E13B  8D 06 20  STA $2006 = 00                 A:00 X:F7 Y:00 P:27 SP:F6 CYC:280 SL:-14
15:25:14: E13E  68        PLA                            A:00 X:F7 Y:00 P:27 SP:F6 CYC:292 SL:-14
15:25:14: E13F  60        RTS                            A:7B X:F7 Y:00 P:25 SP:F7 CYC:304 SL:-14
15:25:14: E121  CA        DEX                            A:7B X:F7 Y:00 P:25 SP:F9 CYC:322 SL:-14
15:25:14: E122  D0 FA     BNE $E11E                      A:7B X:F6 Y:00 P:A5 SP:F9 CYC:328 SL:-14
15:25:14: E11E  20 25 E1  JSR $E125                      A:7B X:F6 Y:00 P:A5 SP:F9 CYC:337 SL:-14
15:25:14: E125  48        PHA                            A:7B X:F6 Y:00 P:A5 SP:F7 CYC: 14 SL:-13
15:25:14: E126  A9 00     LDA #$00                       A:7B X:F6 Y:00 P:A5 SP:F6 CYC: 23 SL:-13
15:25:14: E128  8D 06 20  STA $2006 = 00                 A:00 X:F6 Y:00 P:27 SP:F6 CYC: 29 SL:-13
15:25:14: E12B  8D 06 20  STA $2006 = 00                 A:00 X:F6 Y:00 P:27 SP:F6 CYC: 41 SL:-13
15:25:14: E12E  A9 10     LDA #$10                       A:00 X:F6 Y:00 P:27 SP:F6 CYC: 53 SL:-13
15:25:14: E130  8D 06 20  STA $2006 = 00                 A:10 X:F6 Y:00 P:25 SP:F6 CYC: 59 SL:-13
15:25:14: E133  8D 06 20  STA $2006 = 00                 A:10 X:F6 Y:00 P:25 SP:F6 CYC: 71 SL:-13
15:25:14: E136  A9 00     LDA #$00                       A:10 X:F6 Y:00 P:25 SP:F6 CYC: 83 SL:-13
15:25:14: E138  8D 06 20  STA $2006 = 00                 A:00 X:F6 Y:00 P:27 SP:F6 CYC: 89 SL:-13
15:25:14: E13B  8D 06 20  STA $2006 = 00                 A:00 X:F6 Y:00 P:27 SP:F6 CYC:101 SL:-13
15:25:14: E13E  68        PLA                            A:00 X:F6 Y:00 P:27 SP:F6 CYC:113 SL:-13
15:25:14: E13F  60        RTS                            A:7B X:F6 Y:00 P:25 SP:F7 CYC:125 SL:-13
15:25:14: E121  CA        DEX                            A:7B X:F6 Y:00 P:25 SP:F9 CYC:143 SL:-13
15:25:14: E122  D0 FA     BNE $E11E                      A:7B X:F5 Y:00 P:A5 SP:F9 CYC:149 SL:-13
15:25:14: E11E  20 25 E1  JSR $E125                      A:7B X:F5 Y:00 P:A5 SP:F9 CYC:158 SL:-13
15:25:14: E125  48        PHA                            A:7B X:F5 Y:00 P:A5 SP:F7 CYC:176 SL:-13
15:25:14: E126  A9 00     LDA #$00                       A:7B X:F5 Y:00 P:A5 SP:F6 CYC:185 SL:-13
15:25:14: E128  8D 06 20  STA $2006 = 00                 A:00 X:F5 Y:00 P:27 SP:F6 CYC:191 SL:-13
15:25:14: E12B  8D 06 20  STA $2006 = 00                 A:00 X:F5 Y:00 P:27 SP:F6 CYC:203 SL:-13
15:25:14: E12E  A9 10     LDA #$10                       A:00 X:F5 Y:00 P:27 SP:F6 CYC:215 SL:-13
15:25:14: E130  8D 06 20  STA $2006 = 00                 A:10 X:F5 Y:00 P:25 SP:F6 CYC:221 SL:-13
15:25:14: E133  8D 06 20  STA $2006 = 00                 A:10 X:F5 Y:00 P:25 SP:F6 CYC:233 SL:-13
15:25:14: E136  A9 00     LDA #$00                       A:10 X:F5 Y:00 P:25 SP:F6 CYC:245 SL:-13
15:25:14: E138  8D 06 20  STA $2006 = 00                 A:00 X:F5 Y:00 P:27 SP:F6 CYC:251 SL:-13
15:25:14: E13B  8D 06 20  STA $2006 = 00                 A:00 X:F5 Y:00 P:27 SP:F6 CYC:263 SL:-13
15:25:14: E13E  68        PLA                            A:00 X:F5 Y:00 P:27 SP:F6 CYC:275 SL:-13
15:25:14: E13F  60        RTS                            A:7B X:F5 Y:00 P:25 SP:F7 CYC:287 SL:-13
15:25:14: E121  CA        DEX                            A:7B X:F5 Y:00 P:25 SP:F9 CYC:305 SL:-13
15:25:14: E122  D0 FA     BNE $E11E                      A:7B X:F4 Y:00 P:A5 SP:F9 CYC:311 SL:-13
15:25:14: E11E  20 25 E1  JSR $E125                      A:7B X:F4 Y:00 P:A5 SP:F9 CYC:320 SL:-13
15:25:14: E125  48        PHA                            A:7B X:F4 Y:00 P:A5 SP:F7 CYC:338 SL:-13
15:25:14: E126  A9 00     LDA #$00                       A:7B X:F4 Y:00 P:A5 SP:F6 CYC:  6 SL:-12
15:25:14: E128  8D 06 20  STA $2006 = 00                 A:00 X:F4 Y:00 P:27 SP:F6 CYC: 12 SL:-12
15:25:14: E12B  8D 06 20  STA $2006 = 00                 A:00 X:F4 Y:00 P:27 SP:F6 CYC: 24 SL:-12
15:25:14: E12E  A9 10     LDA #$10                       A:00 X:F4 Y:00 P:27 SP:F6 CYC: 36 SL:-12
15:25:14: E130  8D 06 20  STA $2006 = 00                 A:10 X:F4 Y:00 P:25 SP:F6 CYC: 42 SL:-12
15:25:14: E133  8D 06 20  STA $2006 = 00                 A:10 X:F4 Y:00 P:25 SP:F6 CYC: 54 SL:-12
15:25:14: E136  A9 00     LDA #$00                       A:10 X:F4 Y:00 P:25 SP:F6 CYC: 66 SL:-12
15:25:14: E138  8D 06 20  STA $2006 = 00                 A:00 X:F4 Y:00 P:27 SP:F6 CYC: 72 SL:-12
15:25:14: E13B  8D 06 20  STA $2006 = 00                 A:00 X:F4 Y:00 P:27 SP:F6 CYC: 84 SL:-12
15:25:14: E13E  68        PLA                            A:00 X:F4 Y:00 P:27 SP:F6 CYC: 96 SL:-12
15:25:14: E13F  60        RTS                            A:7B X:F4 Y:00 P:25 SP:F7 CYC:108 SL:-12
15:25:14: E121  CA        DEX                            A:7B X:F4 Y:00 P:25 SP:F9 CYC:126 SL:-12
15:25:14: E122  D0 FA     BNE $E11E                      A:7B X:F3 Y:00 P:A5 SP:F9 CYC:132 SL:-12
15:25:14: E11E  20 25 E1  JSR $E125                      A:7B X:F3 Y:00 P:A5 SP:F9 CYC:141 SL:-12
15:25:14: E125  48        PHA                            A:7B X:F3 Y:00 P:A5 SP:F7 CYC:159 SL:-12
15:25:14: E126  A9 00     LDA #$00                       A:7B X:F3 Y:00 P:A5 SP:F6 CYC:168 SL:-12
15:25:14: E128  8D 06 20  STA $2006 = 00                 A:00 X:F3 Y:00 P:27 SP:F6 CYC:174 SL:-12
15:25:14: E12B  8D 06 20  STA $2006 = 00                 A:00 X:F3 Y:00 P:27 SP:F6 CYC:186 SL:-12
15:25:14: E12E  A9 10     LDA #$10                       A:00 X:F3 Y:00 P:27 SP:F6 CYC:198 SL:-12
15:25:14: E130  8D 06 20  STA $2006 = 00                 A:10 X:F3 Y:00 P:25 SP:F6 CYC:204 SL:-12
15:25:14: E133  8D 06 20  STA $2006 = 00                 A:10 X:F3 Y:00 P:25 SP:F6 CYC:216 SL:-12
15:25:14: E136  A9 00     LDA #$00                       A:10 X:F3 Y:00 P:25 SP:F6 CYC:228 SL:-12
15:25:14: E138  8D 06 20  STA $2006 = 00                 A:00 X:F3 Y:00 P:27 SP:F6 CYC:234 SL:-12
15:25:14: E13B  8D 06 20  STA $2006 = 00                 A:00 X:F3 Y:00 P:27 SP:F6 CYC:246 SL:-12
15:25:14: E13E  68        PLA                            A:00 X:F3 Y:00 P:27 SP:F6 CYC:258 SL:-12
15:25:14: E13F  60        RTS                            A:7B X:F3 Y:00 P:25 SP:F7 CYC:270 SL:-12
15:25:14: E121  CA        DEX                            A:7B X:F3 Y:00 P:25 SP:F9 CYC:288 SL:-12
15:25:14: E122  D0 FA     BNE $E11E                      A:7B X:F2 Y:00 P:A5 SP:F9 CYC:294 SL:-12
15:25:14: E11E  20 25 E1  JSR $E125                      A:7B X:F2 Y:00 P:A5 SP:F9 CYC:303 SL:-12
15:25:14: E125  48        PHA                            A:7B X:F2 Y:00 P:A5 SP:F7 CYC:321 SL:-12
15:25:14: E126  A9 00     LDA #$00                       A:7B X:F2 Y:00 P:A5 SP:F6 CYC:330 SL:-12
15:25:14: E128  8D 06 20  STA $2006 = 00                 A:00 X:F2 Y:00 P:27 SP:F6 CYC:336 SL:-12
15:25:14: E12B  8D 06 20  STA $2006 = 00                 A:00 X:F2 Y:00 P:27 SP:F6 CYC:  7 SL:-11
15:25:14: E12E  A9 10     LDA #$10                       A:00 X:F2 Y:00 P:27 SP:F6 CYC: 19 SL:-11
15:25:14: E130  8D 06 20  STA $2006 = 00                 A:10 X:F2 Y:00 P:25 SP:F6 CYC: 25 SL:-11
15:25:14: E133  8D 06 20  STA $2006 = 00                 A:10 X:F2 Y:00 P:25 SP:F6 CYC: 37 SL:-11
15:25:14: E136  A9 00     LDA #$00                       A:10 X:F2 Y:00 P:25 SP:F6 CYC: 49 SL:-11
15:25:14: E138  8D 06 20  STA $2006 = 00                 A:00 X:F2 Y:00 P:27 SP:F6 CYC: 55 SL:-11
15:25:14: E13B  8D 06 20  STA $2006 = 00                 A:00 X:F2 Y:00 P:27 SP:F6 CYC: 67 SL:-11
15:25:14: E13E  68        PLA                            A:00 X:F2 Y:00 P:27 SP:F6 CYC: 79 SL:-11
15:25:14: E13F  60        RTS                            A:7B X:F2 Y:00 P:25 SP:F7 CYC: 91 SL:-11
15:25:14: E121  CA        DEX                            A:7B X:F2 Y:00 P:25 SP:F9 CYC:109 SL:-11
15:25:14: E122  D0 FA     BNE $E11E                      A:7B X:F1 Y:00 P:A5 SP:F9 CYC:115 SL:-11
15:25:14: E11E  20 25 E1  JSR $E125                      A:7B X:F1 Y:00 P:A5 SP:F9 CYC:124 SL:-11
15:25:14: E125  48        PHA                            A:7B X:F1 Y:00 P:A5 SP:F7 CYC:142 SL:-11
15:25:14: E126  A9 00     LDA #$00                       A:7B X:F1 Y:00 P:A5 SP:F6 CYC:151 SL:-11
15:25:14: E128  8D 06 20  STA $2006 = 00                 A:00 X:F1 Y:00 P:27 SP:F6 CYC:157 SL:-11
15:25:14: E12B  8D 06 20  STA $2006 = 00                 A:00 X:F1 Y:00 P:27 SP:F6 CYC:169 SL:-11
15:25:14: E12E  A9 10     LDA #$10                       A:00 X:F1 Y:00 P:27 SP:F6 CYC:181 SL:-11
15:25:14: E130  8D 06 20  STA $2006 = 00                 A:10 X:F1 Y:00 P:25 SP:F6 CYC:187 SL:-11
15:25:14: E133  8D 06 20  STA $2006 = 00                 A:10 X:F1 Y:00 P:25 SP:F6 CYC:199 SL:-11
15:25:14: E136  A9 00     LDA #$00                       A:10 X:F1 Y:00 P:25 SP:F6 CYC:211 SL:-11
15:25:14: E138  8D 06 20  STA $2006 = 00                 A:00 X:F1 Y:00 P:27 SP:F6 CYC:217 SL:-11
15:25:14: E13B  8D 06 20  STA $2006 = 00                 A:00 X:F1 Y:00 P:27 SP:F6 CYC:229 SL:-11
15:25:14: E13E  68        PLA                            A:00 X:F1 Y:00 P:27 SP:F6 CYC:241 SL:-11
15:25:14: E13F  60        RTS                            A:7B X:F1 Y:00 P:25 SP:F7 CYC:253 SL:-11
15:25:14: E121  CA        DEX                            A:7B X:F1 Y:00 P:25 SP:F9 CYC:271 SL:-11
15:25:14: E122  D0 FA     BNE $E11E                      A:7B X:F0 Y:00 P:A5 SP:F9 CYC:277 SL:-11
15:25:14: E11E  20 25 E1  JSR $E125                      A:7B X:F0 Y:00 P:A5 SP:F9 CYC:286 SL:-11
15:25:14: E125  48        PHA                            A:7B X:F0 Y:00 P:A5 SP:F7 CYC:304 SL:-11
15:25:14: E126  A9 00     LDA #$00                       A:7B X:F0 Y:00 P:A5 SP:F6 CYC:313 SL:-11
15:25:14: E128  8D 06 20  STA $2006 = 00                 A:00 X:F0 Y:00 P:27 SP:F6 CYC:319 SL:-11
15:25:14: E12B  8D 06 20  STA $2006 = 00                 A:00 X:F0 Y:00 P:27 SP:F6 CYC:331 SL:-11
15:25:14: E12E  A9 10     LDA #$10                       A:00 X:F0 Y:00 P:27 SP:F6 CYC:  2 SL:-10
15:25:14: E130  8D 06 20  STA $2006 = 00                 A:10 X:F0 Y:00 P:25 SP:F6 CYC:  8 SL:-10
15:25:14: E133  8D 06 20  STA $2006 = 00                 A:10 X:F0 Y:00 P:25 SP:F6 CYC: 20 SL:-10
15:25:14: E136  A9 00     LDA #$00                       A:10 X:F0 Y:00 P:25 SP:F6 CYC: 32 SL:-10
15:25:14: E138  8D 06 20  STA $2006 = 00                 A:00 X:F0 Y:00 P:27 SP:F6 CYC: 38 SL:-10
15:25:14: E13B  8D 06 20  STA $2006 = 00                 A:00 X:F0 Y:00 P:27 SP:F6 CYC: 50 SL:-10
15:25:14: E13E  68        PLA                            A:00 X:F0 Y:00 P:27 SP:F6 CYC: 62 SL:-10
15:25:14: E13F  60        RTS                            A:7B X:F0 Y:00 P:25 SP:F7 CYC: 74 SL:-10
15:25:14: E121  CA        DEX                            A:7B X:F0 Y:00 P:25 SP:F9 CYC: 92 SL:-10
15:25:14: E122  D0 FA     BNE $E11E                      A:7B X:EF Y:00 P:A5 SP:F9 CYC: 98 SL:-10
15:25:14: E11E  20 25 E1  JSR $E125                      A:7B X:EF Y:00 P:A5 SP:F9 CYC:107 SL:-10
15:25:14: E125  48        PHA                            A:7B X:EF Y:00 P:A5 SP:F7 CYC:125 SL:-10
15:25:14: E126  A9 00     LDA #$00                       A:7B X:EF Y:00 P:A5 SP:F6 CYC:134 SL:-10
15:25:14: E128  8D 06 20  STA $2006 = 00                 A:00 X:EF Y:00 P:27 SP:F6 CYC:140 SL:-10
15:25:14: E12B  8D 06 20  STA $2006 = 00                 A:00 X:EF Y:00 P:27 SP:F6 CYC:152 SL:-10
15:25:14: E12E  A9 10     LDA #$10                       A:00 X:EF Y:00 P:27 SP:F6 CYC:164 SL:-10
15:25:14: E130  8D 06 20  STA $2006 = 00                 A:10 X:EF Y:00 P:25 SP:F6 CYC:170 SL:-10
15:25:14: E133  8D 06 20  STA $2006 = 00                 A:10 X:EF Y:00 P:25 SP:F6 CYC:182 SL:-10
15:25:14: E136  A9 00     LDA #$00                       A:10 X:EF Y:00 P:25 SP:F6 CYC:194 SL:-10
15:25:14: E138  8D 06 20  STA $2006 = 00                 A:00 X:EF Y:00 P:27 SP:F6 CYC:200 SL:-10
15:25:14: E13B  8D 06 20  STA $2006 = 00                 A:00 X:EF Y:00 P:27 SP:F6 CYC:212 SL:-10
15:25:14: E13E  68        PLA                            A:00 X:EF Y:00 P:27 SP:F6 CYC:224 SL:-10
15:25:14: E13F  60        RTS                            A:7B X:EF Y:00 P:25 SP:F7 CYC:236 SL:-10
15:25:14: E121  CA        DEX                            A:7B X:EF Y:00 P:25 SP:F9 CYC:254 SL:-10
15:25:14: E122  D0 FA     BNE $E11E                      A:7B X:EE Y:00 P:A5 SP:F9 CYC:260 SL:-10
15:25:14: E11E  20 25 E1  JSR $E125                      A:7B X:EE Y:00 P:A5 SP:F9 CYC:269 SL:-10
15:25:14: E125  48        PHA                            A:7B X:EE Y:00 P:A5 SP:F7 CYC:287 SL:-10
15:25:14: E126  A9 00     LDA #$00                       A:7B X:EE Y:00 P:A5 SP:F6 CYC:296 SL:-10
15:25:14: E128  8D 06 20  STA $2006 = 00                 A:00 X:EE Y:00 P:27 SP:F6 CYC:302 SL:-10
15:25:14: E12B  8D 06 20  STA $2006 = 00                 A:00 X:EE Y:00 P:27 SP:F6 CYC:314 SL:-10
15:25:14: E12E  A9 10     LDA #$10                       A:00 X:EE Y:00 P:27 SP:F6 CYC:326 SL:-10
15:25:14: E130  8D 06 20  STA $2006 = 00                 A:10 X:EE Y:00 P:25 SP:F6 CYC:332 SL:-10
15:25:14: E133  8D 06 20  STA $2006 = 00                 A:10 X:EE Y:00 P:25 SP:F6 CYC:  3 SL:-9
15:25:14: E136  A9 00     LDA #$00                       A:10 X:EE Y:00 P:25 SP:F6 CYC: 15 SL:-9
15:25:14: E138  8D 06 20  STA $2006 = 00                 A:00 X:EE Y:00 P:27 SP:F6 CYC: 21 SL:-9
15:25:14: E13B  8D 06 20  STA $2006 = 00                 A:00 X:EE Y:00 P:27 SP:F6 CYC: 33 SL:-9
15:25:14: E13E  68        PLA                            A:00 X:EE Y:00 P:27 SP:F6 CYC: 45 SL:-9
15:25:14: E13F  60        RTS                            A:7B X:EE Y:00 P:25 SP:F7 CYC: 57 SL:-9
15:25:14: E121  CA        DEX                            A:7B X:EE Y:00 P:25 SP:F9 CYC: 75 SL:-9
15:25:14: E122  D0 FA     BNE $E11E                      A:7B X:ED Y:00 P:A5 SP:F9 CYC: 81 SL:-9
15:25:14: E11E  20 25 E1  JSR $E125                      A:7B X:ED Y:00 P:A5 SP:F9 CYC: 90 SL:-9
15:25:14: E125  48        PHA                            A:7B X:ED Y:00 P:A5 SP:F7 CYC:108 SL:-9
15:25:14: E126  A9 00     LDA #$00                       A:7B X:ED Y:00 P:A5 SP:F6 CYC:117 SL:-9
15:25:14: E128  8D 06 20  STA $2006 = 00                 A:00 X:ED Y:00 P:27 SP:F6 CYC:123 SL:-9
15:25:14: E12B  8D 06 20  STA $2006 = 00                 A:00 X:ED Y:00 P:27 SP:F6 CYC:135 SL:-9
15:25:14: E12E  A9 10     LDA #$10                       A:00 X:ED Y:00 P:27 SP:F6 CYC:147 SL:-9
15:25:14: E130  8D 06 20  STA $2006 = 00                 A:10 X:ED Y:00 P:25 SP:F6 CYC:153 SL:-9
15:25:14: E133  8D 06 20  STA $2006 = 00                 A:10 X:ED Y:00 P:25 SP:F6 CYC:165 SL:-9
15:25:14: E136  A9 00     LDA #$00                       A:10 X:ED Y:00 P:25 SP:F6 CYC:177 SL:-9
15:25:14: E138  8D 06 20  STA $2006 = 00                 A:00 X:ED Y:00 P:27 SP:F6 CYC:183 SL:-9
15:25:14: E13B  8D 06 20  STA $2006 = 00                 A:00 X:ED Y:00 P:27 SP:F6 CYC:195 SL:-9
15:25:14: E13E  68        PLA                            A:00 X:ED Y:00 P:27 SP:F6 CYC:207 SL:-9
15:25:14: E13F  60        RTS                            A:7B X:ED Y:00 P:25 SP:F7 CYC:219 SL:-9
15:25:14: E121  CA        DEX                            A:7B X:ED Y:00 P:25 SP:F9 CYC:237 SL:-9
15:25:14: E122  D0 FA     BNE $E11E                      A:7B X:EC Y:00 P:A5 SP:F9 CYC:243 SL:-9
15:25:14: E11E  20 25 E1  JSR $E125                      A:7B X:EC Y:00 P:A5 SP:F9 CYC:252 SL:-9
15:25:14: E125  48        PHA                            A:7B X:EC Y:00 P:A5 SP:F7 CYC:270 SL:-9
15:25:14: E126  A9 00     LDA #$00                       A:7B X:EC Y:00 P:A5 SP:F6 CYC:279 SL:-9
15:25:14: E128  8D 06 20  STA $2006 = 00                 A:00 X:EC Y:00 P:27 SP:F6 CYC:285 SL:-9
15:25:14: E12B  8D 06 20  STA $2006 = 00                 A:00 X:EC Y:00 P:27 SP:F6 CYC:297 SL:-9
15:25:14: E12E  A9 10     LDA #$10                       A:00 X:EC Y:00 P:27 SP:F6 CYC:309 SL:-9
15:25:14: E130  8D 06 20  STA $2006 = 00                 A:10 X:EC Y:00 P:25 SP:F6 CYC:315 SL:-9
15:25:14: E133  8D 06 20  STA $2006 = 00                 A:10 X:EC Y:00 P:25 SP:F6 CYC:327 SL:-9
15:25:14: E136  A9 00     LDA #$00                       A:10 X:EC Y:00 P:25 SP:F6 CYC:339 SL:-9
15:25:14: E138  8D 06 20  STA $2006 = 00                 A:00 X:EC Y:00 P:27 SP:F6 CYC:  4 SL:-8
15:25:14: E13B  8D 06 20  STA $2006 = 00                 A:00 X:EC Y:00 P:27 SP:F6 CYC: 16 SL:-8
15:25:14: E13E  68        PLA                            A:00 X:EC Y:00 P:27 SP:F6 CYC: 28 SL:-8
15:25:14: E13F  60        RTS                            A:7B X:EC Y:00 P:25 SP:F7 CYC: 40 SL:-8
15:25:14: E121  CA        DEX                            A:7B X:EC Y:00 P:25 SP:F9 CYC: 58 SL:-8
15:25:14: E122  D0 FA     BNE $E11E                      A:7B X:EB Y:00 P:A5 SP:F9 CYC: 64 SL:-8
15:25:14: E11E  20 25 E1  JSR $E125                      A:7B X:EB Y:00 P:A5 SP:F9 CYC: 73 SL:-8
15:25:14: E125  48        PHA                            A:7B X:EB Y:00 P:A5 SP:F7 CYC: 91 SL:-8
15:25:14: E126  A9 00     LDA #$00                       A:7B X:EB Y:00 P:A5 SP:F6 CYC:100 SL:-8
15:25:14: E128  8D 06 20  STA $2006 = 00                 A:00 X:EB Y:00 P:27 SP:F6 CYC:106 SL:-8
15:25:14: E12B  8D 06 20  STA $2006 = 00                 A:00 X:EB Y:00 P:27 SP:F6 CYC:118 SL:-8
15:25:14: E12E  A9 10     LDA #$10                       A:00 X:EB Y:00 P:27 SP:F6 CYC:130 SL:-8
15:25:14: E130  8D 06 20  STA $2006 = 00                 A:10 X:EB Y:00 P:25 SP:F6 CYC:136 SL:-8
15:25:14: E133  8D 06 20  STA $2006 = 00                 A:10 X:EB Y:00 P:25 SP:F6 CYC:148 SL:-8
15:25:14: E136  A9 00     LDA #$00                       A:10 X:EB Y:00 P:25 SP:F6 CYC:160 SL:-8
15:25:14: E138  8D 06 20  STA $2006 = 00                 A:00 X:EB Y:00 P:27 SP:F6 CYC:166 SL:-8
15:25:14: E13B  8D 06 20  STA $2006 = 00                 A:00 X:EB Y:00 P:27 SP:F6 CYC:178 SL:-8
15:25:14: E13E  68        PLA                            A:00 X:EB Y:00 P:27 SP:F6 CYC:190 SL:-8
15:25:14: E13F  60        RTS                            A:7B X:EB Y:00 P:25 SP:F7 CYC:202 SL:-8
15:25:14: E121  CA        DEX                            A:7B X:EB Y:00 P:25 SP:F9 CYC:220 SL:-8
15:25:14: E122  D0 FA     BNE $E11E                      A:7B X:EA Y:00 P:A5 SP:F9 CYC:226 SL:-8
15:25:14: E11E  20 25 E1  JSR $E125                      A:7B X:EA Y:00 P:A5 SP:F9 CYC:235 SL:-8
15:25:14: E125  48        PHA                            A:7B X:EA Y:00 P:A5 SP:F7 CYC:253 SL:-8
15:25:14: E126  A9 00     LDA #$00                       A:7B X:EA Y:00 P:A5 SP:F6 CYC:262 SL:-8
15:25:14: E128  8D 06 20  STA $2006 = 00                 A:00 X:EA Y:00 P:27 SP:F6 CYC:268 SL:-8
15:25:14: E12B  8D 06 20  STA $2006 = 00                 A:00 X:EA Y:00 P:27 SP:F6 CYC:280 SL:-8
15:25:14: E12E  A9 10     LDA #$10                       A:00 X:EA Y:00 P:27 SP:F6 CYC:292 SL:-8
15:25:14: E130  8D 06 20  STA $2006 = 00                 A:10 X:EA Y:00 P:25 SP:F6 CYC:298 SL:-8
15:25:14: E133  8D 06 20  STA $2006 = 00                 A:10 X:EA Y:00 P:25 SP:F6 CYC:310 SL:-8
15:25:14: E136  A9 00     LDA #$00                       A:10 X:EA Y:00 P:25 SP:F6 CYC:322 SL:-8
15:25:14: E138  8D 06 20  STA $2006 = 00                 A:00 X:EA Y:00 P:27 SP:F6 CYC:328 SL:-8
15:25:14: E13B  8D 06 20  STA $2006 = 00                 A:00 X:EA Y:00 P:27 SP:F6 CYC:340 SL:-8
15:25:14: E13E  68        PLA                            A:00 X:EA Y:00 P:27 SP:F6 CYC: 11 SL:-7
15:25:14: E13F  60        RTS                            A:7B X:EA Y:00 P:25 SP:F7 CYC: 23 SL:-7
15:25:14: E121  CA        DEX                            A:7B X:EA Y:00 P:25 SP:F9 CYC: 41 SL:-7
15:25:14: E122  D0 FA     BNE $E11E                      A:7B X:E9 Y:00 P:A5 SP:F9 CYC: 47 SL:-7
15:25:14: E11E  20 25 E1  JSR $E125                      A:7B X:E9 Y:00 P:A5 SP:F9 CYC: 56 SL:-7
15:25:14: E125  48        PHA                            A:7B X:E9 Y:00 P:A5 SP:F7 CYC: 74 SL:-7
15:25:14: E126  A9 00     LDA #$00                       A:7B X:E9 Y:00 P:A5 SP:F6 CYC: 83 SL:-7
15:25:14: E128  8D 06 20  STA $2006 = 00                 A:00 X:E9 Y:00 P:27 SP:F6 CYC: 89 SL:-7
15:25:14: E12B  8D 06 20  STA $2006 = 00                 A:00 X:E9 Y:00 P:27 SP:F6 CYC:101 SL:-7
15:25:14: E12E  A9 10     LDA #$10                       A:00 X:E9 Y:00 P:27 SP:F6 CYC:113 SL:-7
15:25:14: E130  8D 06 20  STA $2006 = 00                 A:10 X:E9 Y:00 P:25 SP:F6 CYC:119 SL:-7
15:25:14: E133  8D 06 20  STA $2006 = 00                 A:10 X:E9 Y:00 P:25 SP:F6 CYC:131 SL:-7
15:25:14: E136  A9 00     LDA #$00                       A:10 X:E9 Y:00 P:25 SP:F6 CYC:143 SL:-7
15:25:14: E138  8D 06 20  STA $2006 = 00                 A:00 X:E9 Y:00 P:27 SP:F6 CYC:149 SL:-7
15:25:14: E13B  8D 06 20  STA $2006 = 00                 A:00 X:E9 Y:00 P:27 SP:F6 CYC:161 SL:-7
15:25:14: E13E  68        PLA                            A:00 X:E9 Y:00 P:27 SP:F6 CYC:173 SL:-7
15:25:14: E13F  60        RTS                            A:7B X:E9 Y:00 P:25 SP:F7 CYC:185 SL:-7
15:25:14: E121  CA        DEX                            A:7B X:E9 Y:00 P:25 SP:F9 CYC:203 SL:-7
15:25:14: E122  D0 FA     BNE $E11E                      A:7B X:E8 Y:00 P:A5 SP:F9 CYC:209 SL:-7
15:25:14: E11E  20 25 E1  JSR $E125                      A:7B X:E8 Y:00 P:A5 SP:F9 CYC:218 SL:-7
15:25:14: E125  48        PHA                            A:7B X:E8 Y:00 P:A5 SP:F7 CYC:236 SL:-7
15:25:14: E126  A9 00     LDA #$00                       A:7B X:E8 Y:00 P:A5 SP:F6 CYC:245 SL:-7
15:25:14: E128  8D 06 20  STA $2006 = 00                 A:00 X:E8 Y:00 P:27 SP:F6 CYC:251 SL:-7
15:25:14: E12B  8D 06 20  STA $2006 = 00                 A:00 X:E8 Y:00 P:27 SP:F6 CYC:263 SL:-7
15:25:14: E12E  A9 10     LDA #$10                       A:00 X:E8 Y:00 P:27 SP:F6 CYC:275 SL:-7
15:25:14: E130  8D 06 20  STA $2006 = 00                 A:10 X:E8 Y:00 P:25 SP:F6 CYC:281 SL:-7
15:25:14: E133  8D 06 20  STA $2006 = 00                 A:10 X:E8 Y:00 P:25 SP:F6 CYC:293 SL:-7
15:25:14: E136  A9 00     LDA #$00                       A:10 X:E8 Y:00 P:25 SP:F6 CYC:305 SL:-7
15:25:14: E138  8D 06 20  STA $2006 = 00                 A:00 X:E8 Y:00 P:27 SP:F6 CYC:311 SL:-7
15:25:14: E13B  8D 06 20  STA $2006 = 00                 A:00 X:E8 Y:00 P:27 SP:F6 CYC:323 SL:-7
15:25:14: E13E  68        PLA                            A:00 X:E8 Y:00 P:27 SP:F6 CYC:335 SL:-7
15:25:14: E13F  60        RTS                            A:7B X:E8 Y:00 P:25 SP:F7 CYC:  6 SL:-6
15:25:14: E121  CA        DEX                            A:7B X:E8 Y:00 P:25 SP:F9 CYC: 24 SL:-6
15:25:14: E122  D0 FA     BNE $E11E                      A:7B X:E7 Y:00 P:A5 SP:F9 CYC: 30 SL:-6
15:25:14: E11E  20 25 E1  JSR $E125                      A:7B X:E7 Y:00 P:A5 SP:F9 CYC: 39 SL:-6
15:25:14: E125  48        PHA                            A:7B X:E7 Y:00 P:A5 SP:F7 CYC: 57 SL:-6
15:25:14: E126  A9 00     LDA #$00                       A:7B X:E7 Y:00 P:A5 SP:F6 CYC: 66 SL:-6
15:25:14: E128  8D 06 20  STA $2006 = 00                 A:00 X:E7 Y:00 P:27 SP:F6 CYC: 72 SL:-6
15:25:14: E12B  8D 06 20  STA $2006 = 00                 A:00 X:E7 Y:00 P:27 SP:F6 CYC: 84 SL:-6
15:25:14: E12E  A9 10     LDA #$10                       A:00 X:E7 Y:00 P:27 SP:F6 CYC: 96 SL:-6
15:25:14: E130  8D 06 20  STA $2006 = 00                 A:10 X:E7 Y:00 P:25 SP:F6 CYC:102 SL:-6
15:25:14: E133  8D 06 20  STA $2006 = 00                 A:10 X:E7 Y:00 P:25 SP:F6 CYC:114 SL:-6
15:25:14: E136  A9 00     LDA #$00                       A:10 X:E7 Y:00 P:25 SP:F6 CYC:126 SL:-6
15:25:14: E138  8D 06 20  STA $2006 = 00                 A:00 X:E7 Y:00 P:27 SP:F6 CYC:132 SL:-6
15:25:14: E13B  8D 06 20  STA $2006 = 00                 A:00 X:E7 Y:00 P:27 SP:F6 CYC:144 SL:-6
15:25:14: E13E  68        PLA                            A:00 X:E7 Y:00 P:27 SP:F6 CYC:156 SL:-6
15:25:14: E13F  60        RTS                            A:7B X:E7 Y:00 P:25 SP:F7 CYC:168 SL:-6
15:25:14: E121  CA        DEX                            A:7B X:E7 Y:00 P:25 SP:F9 CYC:186 SL:-6
15:25:14: E122  D0 FA     BNE $E11E                      A:7B X:E6 Y:00 P:A5 SP:F9 CYC:192 SL:-6
15:25:14: E11E  20 25 E1  JSR $E125                      A:7B X:E6 Y:00 P:A5 SP:F9 CYC:201 SL:-6
15:25:14: E125  48        PHA                            A:7B X:E6 Y:00 P:A5 SP:F7 CYC:219 SL:-6
15:25:14: E126  A9 00     LDA #$00                       A:7B X:E6 Y:00 P:A5 SP:F6 CYC:228 SL:-6
15:25:14: E128  8D 06 20  STA $2006 = 00                 A:00 X:E6 Y:00 P:27 SP:F6 CYC:234 SL:-6
15:25:14: E12B  8D 06 20  STA $2006 = 00                 A:00 X:E6 Y:00 P:27 SP:F6 CYC:246 SL:-6
15:25:14: E12E  A9 10     LDA #$10                       A:00 X:E6 Y:00 P:27 SP:F6 CYC:258 SL:-6
15:25:14: E130  8D 06 20  STA $2006 = 00                 A:10 X:E6 Y:00 P:25 SP:F6 CYC:264 SL:-6
15:25:14: E133  8D 06 20  STA $2006 = 00                 A:10 X:E6 Y:00 P:25 SP:F6 CYC:276 SL:-6
15:25:14: E136  A9 00     LDA #$00                       A:10 X:E6 Y:00 P:25 SP:F6 CYC:288 SL:-6
15:25:14: E138  8D 06 20  STA $2006 = 00                 A:00 X:E6 Y:00 P:27 SP:F6 CYC:294 SL:-6
15:25:14: E13B  8D 06 20  STA $2006 = 00                 A:00 X:E6 Y:00 P:27 SP:F6 CYC:306 SL:-6
15:25:14: E13E  68        PLA                            A:00 X:E6 Y:00 P:27 SP:F6 CYC:318 SL:-6
15:25:14: E13F  60        RTS                            A:7B X:E6 Y:00 P:25 SP:F7 CYC:330 SL:-6
15:25:14: E121  CA        DEX                            A:7B X:E6 Y:00 P:25 SP:F9 CYC:  7 SL:-5
15:25:14: E122  D0 FA     BNE $E11E                      A:7B X:E5 Y:00 P:A5 SP:F9 CYC: 13 SL:-5
15:25:14: E11E  20 25 E1  JSR $E125                      A:7B X:E5 Y:00 P:A5 SP:F9 CYC: 22 SL:-5
15:25:14: E125  48        PHA                            A:7B X:E5 Y:00 P:A5 SP:F7 CYC: 40 SL:-5
15:25:14: E126  A9 00     LDA #$00                       A:7B X:E5 Y:00 P:A5 SP:F6 CYC: 49 SL:-5
15:25:14: E128  8D 06 20  STA $2006 = 00                 A:00 X:E5 Y:00 P:27 SP:F6 CYC: 55 SL:-5
15:25:14: E12B  8D 06 20  STA $2006 = 00                 A:00 X:E5 Y:00 P:27 SP:F6 CYC: 67 SL:-5
15:25:14: E12E  A9 10     LDA #$10                       A:00 X:E5 Y:00 P:27 SP:F6 CYC: 79 SL:-5
15:25:14: E130  8D 06 20  STA $2006 = 00                 A:10 X:E5 Y:00 P:25 SP:F6 CYC: 85 SL:-5
15:25:14: E133  8D 06 20  STA $2006 = 00                 A:10 X:E5 Y:00 P:25 SP:F6 CYC: 97 SL:-5
15:25:14: E136  A9 00     LDA #$00                       A:10 X:E5 Y:00 P:25 SP:F6 CYC:109 SL:-5
15:25:14: E138  8D 06 20  STA $2006 = 00                 A:00 X:E5 Y:00 P:27 SP:F6 CYC:115 SL:-5
15:25:14: E13B  8D 06 20  STA $2006 = 00                 A:00 X:E5 Y:00 P:27 SP:F6 CYC:127 SL:-5
15:25:14: E13E  68        PLA                            A:00 X:E5 Y:00 P:27 SP:F6 CYC:139 SL:-5
15:25:14: E13F  60        RTS                            A:7B X:E5 Y:00 P:25 SP:F7 CYC:151 SL:-5
15:25:14: E121  CA        DEX                            A:7B X:E5 Y:00 P:25 SP:F9 CYC:169 SL:-5
15:25:14: E122  D0 FA     BNE $E11E                      A:7B X:E4 Y:00 P:A5 SP:F9 CYC:175 SL:-5
15:25:14: E11E  20 25 E1  JSR $E125                      A:7B X:E4 Y:00 P:A5 SP:F9 CYC:184 SL:-5
15:25:14: E125  48        PHA                            A:7B X:E4 Y:00 P:A5 SP:F7 CYC:202 SL:-5
15:25:14: E126  A9 00     LDA #$00                       A:7B X:E4 Y:00 P:A5 SP:F6 CYC:211 SL:-5
15:25:14: E128  8D 06 20  STA $2006 = 00                 A:00 X:E4 Y:00 P:27 SP:F6 CYC:217 SL:-5
15:25:14: E12B  8D 06 20  STA $2006 = 00                 A:00 X:E4 Y:00 P:27 SP:F6 CYC:229 SL:-5
15:25:14: E12E  A9 10     LDA #$10                       A:00 X:E4 Y:00 P:27 SP:F6 CYC:241 SL:-5
15:25:14: E130  8D 06 20  STA $2006 = 00                 A:10 X:E4 Y:00 P:25 SP:F6 CYC:247 SL:-5
15:25:14: E133  8D 06 20  STA $2006 = 00                 A:10 X:E4 Y:00 P:25 SP:F6 CYC:259 SL:-5
15:25:14: E136  A9 00     LDA #$00                       A:10 X:E4 Y:00 P:25 SP:F6 CYC:271 SL:-5
15:25:14: E138  8D 06 20  STA $2006 = 00                 A:00 X:E4 Y:00 P:27 SP:F6 CYC:277 SL:-5
15:25:14: E13B  8D 06 20  STA $2006 = 00                 A:00 X:E4 Y:00 P:27 SP:F6 CYC:289 SL:-5
15:25:14: E13E  68        PLA                            A:00 X:E4 Y:00 P:27 SP:F6 CYC:301 SL:-5
15:25:14: E13F  60        RTS                            A:7B X:E4 Y:00 P:25 SP:F7 CYC:313 SL:-5
15:25:14: E121  CA        DEX                            A:7B X:E4 Y:00 P:25 SP:F9 CYC:331 SL:-5
15:25:14: E122  D0 FA     BNE $E11E                      A:7B X:E3 Y:00 P:A5 SP:F9 CYC:337 SL:-5
15:25:14: E11E  20 25 E1  JSR $E125                      A:7B X:E3 Y:00 P:A5 SP:F9 CYC:  5 SL:-4
15:25:14: E125  48        PHA                            A:7B X:E3 Y:00 P:A5 SP:F7 CYC: 23 SL:-4
15:25:14: E126  A9 00     LDA #$00                       A:7B X:E3 Y:00 P:A5 SP:F6 CYC: 32 SL:-4
15:25:14: E128  8D 06 20  STA $2006 = 00                 A:00 X:E3 Y:00 P:27 SP:F6 CYC: 38 SL:-4
15:25:14: E12B  8D 06 20  STA $2006 = 00                 A:00 X:E3 Y:00 P:27 SP:F6 CYC: 50 SL:-4
15:25:14: E12E  A9 10     LDA #$10                       A:00 X:E3 Y:00 P:27 SP:F6 CYC: 62 SL:-4
15:25:14: E130  8D 06 20  STA $2006 = 00                 A:10 X:E3 Y:00 P:25 SP:F6 CYC: 68 SL:-4
15:25:14: E133  8D 06 20  STA $2006 = 00                 A:10 X:E3 Y:00 P:25 SP:F6 CYC: 80 SL:-4
15:25:14: E136  A9 00     LDA #$00                       A:10 X:E3 Y:00 P:25 SP:F6 CYC: 92 SL:-4
15:25:14: E138  8D 06 20  STA $2006 = 00                 A:00 X:E3 Y:00 P:27 SP:F6 CYC: 98 SL:-4
15:25:14: E13B  8D 06 20  STA $2006 = 00                 A:00 X:E3 Y:00 P:27 SP:F6 CYC:110 SL:-4
15:25:14: E13E  68        PLA                            A:00 X:E3 Y:00 P:27 SP:F6 CYC:122 SL:-4
15:25:14: E13F  60        RTS                            A:7B X:E3 Y:00 P:25 SP:F7 CYC:134 SL:-4
15:25:14: E121  CA        DEX                            A:7B X:E3 Y:00 P:25 SP:F9 CYC:152 SL:-4
15:25:14: E122  D0 FA     BNE $E11E                      A:7B X:E2 Y:00 P:A5 SP:F9 CYC:158 SL:-4
15:25:14: E11E  20 25 E1  JSR $E125                      A:7B X:E2 Y:00 P:A5 SP:F9 CYC:167 SL:-4
15:25:14: E125  48        PHA                            A:7B X:E2 Y:00 P:A5 SP:F7 CYC:185 SL:-4
15:25:14: E126  A9 00     LDA #$00                       A:7B X:E2 Y:00 P:A5 SP:F6 CYC:194 SL:-4
15:25:14: E128  8D 06 20  STA $2006 = 00                 A:00 X:E2 Y:00 P:27 SP:F6 CYC:200 SL:-4
15:25:14: E12B  8D 06 20  STA $2006 = 00                 A:00 X:E2 Y:00 P:27 SP:F6 CYC:212 SL:-4
15:25:14: E12E  A9 10     LDA #$10                       A:00 X:E2 Y:00 P:27 SP:F6 CYC:224 SL:-4
15:25:14: E130  8D 06 20  STA $2006 = 00                 A:10 X:E2 Y:00 P:25 SP:F6 CYC:230 SL:-4
15:25:14: E133  8D 06 20  STA $2006 = 00                 A:10 X:E2 Y:00 P:25 SP:F6 CYC:242 SL:-4
15:25:14: E136  A9 00     LDA #$00                       A:10 X:E2 Y:00 P:25 SP:F6 CYC:254 SL:-4
15:25:14: E138  8D 06 20  STA $2006 = 00                 A:00 X:E2 Y:00 P:27 SP:F6 CYC:260 SL:-4
15:25:14: E13B  8D 06 20  STA $2006 = 00                 A:00 X:E2 Y:00 P:27 SP:F6 CYC:272 SL:-4
15:25:14: E13E  68        PLA                            A:00 X:E2 Y:00 P:27 SP:F6 CYC:284 SL:-4
15:25:14: E13F  60        RTS                            A:7B X:E2 Y:00 P:25 SP:F7 CYC:296 SL:-4
15:25:14: E121  CA        DEX                            A:7B X:E2 Y:00 P:25 SP:F9 CYC:314 SL:-4
15:25:14: E122  D0 FA     BNE $E11E                      A:7B X:E1 Y:00 P:A5 SP:F9 CYC:320 SL:-4
15:25:14: E11E  20 25 E1  JSR $E125                      A:7B X:E1 Y:00 P:A5 SP:F9 CYC:329 SL:-4
15:25:14: E125  48        PHA                            A:7B X:E1 Y:00 P:A5 SP:F7 CYC:  6 SL:-3
15:25:14: E126  A9 00     LDA #$00                       A:7B X:E1 Y:00 P:A5 SP:F6 CYC: 15 SL:-3
15:25:14: E128  8D 06 20  STA $2006 = 00                 A:00 X:E1 Y:00 P:27 SP:F6 CYC: 21 SL:-3
15:25:14: E12B  8D 06 20  STA $2006 = 00                 A:00 X:E1 Y:00 P:27 SP:F6 CYC: 33 SL:-3
15:25:14: E12E  A9 10     LDA #$10                       A:00 X:E1 Y:00 P:27 SP:F6 CYC: 45 SL:-3
15:25:14: E130  8D 06 20  STA $2006 = 00                 A:10 X:E1 Y:00 P:25 SP:F6 CYC: 51 SL:-3
15:25:14: E133  8D 06 20  STA $2006 = 00                 A:10 X:E1 Y:00 P:25 SP:F6 CYC: 63 SL:-3
15:25:14: E136  A9 00     LDA #$00                       A:10 X:E1 Y:00 P:25 SP:F6 CYC: 75 SL:-3
15:25:14: E138  8D 06 20  STA $2006 = 00                 A:00 X:E1 Y:00 P:27 SP:F6 CYC: 81 SL:-3
15:25:14: E13B  8D 06 20  STA $2006 = 00                 A:00 X:E1 Y:00 P:27 SP:F6 CYC: 93 SL:-3
15:25:14: E13E  68        PLA                            A:00 X:E1 Y:00 P:27 SP:F6 CYC:105 SL:-3
15:25:14: E13F  60        RTS                            A:7B X:E1 Y:00 P:25 SP:F7 CYC:117 SL:-3
15:25:14: E121  CA        DEX                            A:7B X:E1 Y:00 P:25 SP:F9 CYC:135 SL:-3
15:25:14: E122  D0 FA     BNE $E11E                      A:7B X:E0 Y:00 P:A5 SP:F9 CYC:141 SL:-3
15:25:14: E11E  20 25 E1  JSR $E125                      A:7B X:E0 Y:00 P:A5 SP:F9 CYC:150 SL:-3
15:25:14: E125  48        PHA                            A:7B X:E0 Y:00 P:A5 SP:F7 CYC:168 SL:-3
15:25:14: E126  A9 00     LDA #$00                       A:7B X:E0 Y:00 P:A5 SP:F6 CYC:177 SL:-3
15:25:14: E128  8D 06 20  STA $2006 = 00                 A:00 X:E0 Y:00 P:27 SP:F6 CYC:183 SL:-3
15:25:14: E12B  8D 06 20  STA $2006 = 00                 A:00 X:E0 Y:00 P:27 SP:F6 CYC:195 SL:-3
15:25:14: E12E  A9 10     LDA #$10                       A:00 X:E0 Y:00 P:27 SP:F6 CYC:207 SL:-3
15:25:14: E130  8D 06 20  STA $2006 = 00                 A:10 X:E0 Y:00 P:25 SP:F6 CYC:213 SL:-3
15:25:14: E133  8D 06 20  STA $2006 = 00                 A:10 X:E0 Y:00 P:25 SP:F6 CYC:225 SL:-3
15:25:14: E136  A9 00     LDA #$00                       A:10 X:E0 Y:00 P:25 SP:F6 CYC:237 SL:-3
15:25:14: E138  8D 06 20  STA $2006 = 00                 A:00 X:E0 Y:00 P:27 SP:F6 CYC:243 SL:-3
15:25:14: E13B  8D 06 20  STA $2006 = 00                 A:00 X:E0 Y:00 P:27 SP:F6 CYC:255 SL:-3
15:25:14: E13E  68        PLA                            A:00 X:E0 Y:00 P:27 SP:F6 CYC:267 SL:-3
15:25:14: E13F  60        RTS                            A:7B X:E0 Y:00 P:25 SP:F7 CYC:279 SL:-3
15:25:14: E121  CA        DEX                            A:7B X:E0 Y:00 P:25 SP:F9 CYC:297 SL:-3
15:25:14: E122  D0 FA     BNE $E11E                      A:7B X:DF Y:00 P:A5 SP:F9 CYC:303 SL:-3
15:25:14: E11E  20 25 E1  JSR $E125                      A:7B X:DF Y:00 P:A5 SP:F9 CYC:312 SL:-3
15:25:14: E125  48        PHA                            A:7B X:DF Y:00 P:A5 SP:F7 CYC:330 SL:-3
15:25:14: E126  A9 00     LDA #$00                       A:7B X:DF Y:00 P:A5 SP:F6 CYC:339 SL:-3
15:25:14: E128  8D 06 20  STA $2006 = 00                 A:00 X:DF Y:00 P:27 SP:F6 CYC:  4 SL:-2
15:25:14: E12B  8D 06 20  STA $2006 = 00                 A:00 X:DF Y:00 P:27 SP:F6 CYC: 16 SL:-2
15:25:14: E12E  A9 10     LDA #$10                       A:00 X:DF Y:00 P:27 SP:F6 CYC: 28 SL:-2
15:25:14: E130  8D 06 20  STA $2006 = 00                 A:10 X:DF Y:00 P:25 SP:F6 CYC: 34 SL:-2
15:25:14: E133  8D 06 20  STA $2006 = 00                 A:10 X:DF Y:00 P:25 SP:F6 CYC: 46 SL:-2
15:25:14: E136  A9 00     LDA #$00                       A:10 X:DF Y:00 P:25 SP:F6 CYC: 58 SL:-2
15:25:14: E138  8D 06 20  STA $2006 = 00                 A:00 X:DF Y:00 P:27 SP:F6 CYC: 64 SL:-2
15:25:14: E13B  8D 06 20  STA $2006 = 00                 A:00 X:DF Y:00 P:27 SP:F6 CYC: 76 SL:-2
15:25:14: E13E  68        PLA                            A:00 X:DF Y:00 P:27 SP:F6 CYC: 88 SL:-2
15:25:14: E13F  60        RTS                            A:7B X:DF Y:00 P:25 SP:F7 CYC:100 SL:-2
15:25:14: E121  CA        DEX                            A:7B X:DF Y:00 P:25 SP:F9 CYC:118 SL:-2
15:25:14: E122  D0 FA     BNE $E11E                      A:7B X:DE Y:00 P:A5 SP:F9 CYC:124 SL:-2
15:25:14: E11E  20 25 E1  JSR $E125                      A:7B X:DE Y:00 P:A5 SP:F9 CYC:133 SL:-2
15:25:14: E125  48        PHA                            A:7B X:DE Y:00 P:A5 SP:F7 CYC:151 SL:-2
15:25:14: E126  A9 00     LDA #$00                       A:7B X:DE Y:00 P:A5 SP:F6 CYC:160 SL:-2
15:25:14: E128  8D 06 20  STA $2006 = 00                 A:00 X:DE Y:00 P:27 SP:F6 CYC:166 SL:-2
15:25:14: E12B  8D 06 20  STA $2006 = 00                 A:00 X:DE Y:00 P:27 SP:F6 CYC:178 SL:-2
15:25:14: E12E  A9 10     LDA #$10                       A:00 X:DE Y:00 P:27 SP:F6 CYC:190 SL:-2
15:25:14: E130  8D 06 20  STA $2006 = 00                 A:10 X:DE Y:00 P:25 SP:F6 CYC:196 SL:-2
15:25:14: E133  8D 06 20  STA $2006 = 00                 A:10 X:DE Y:00 P:25 SP:F6 CYC:208 SL:-2
15:25:14: E136  A9 00     LDA #$00                       A:10 X:DE Y:00 P:25 SP:F6 CYC:220 SL:-2
15:25:14: E138  8D 06 20  STA $2006 = 00                 A:00 X:DE Y:00 P:27 SP:F6 CYC:226 SL:-2
15:25:14: E13B  8D 06 20  STA $2006 = 00                 A:00 X:DE Y:00 P:27 SP:F6 CYC:238 SL:-2
15:25:14: E13E  68        PLA                            A:00 X:DE Y:00 P:27 SP:F6 CYC:250 SL:-2
15:25:14: E13F  60        RTS                            A:7B X:DE Y:00 P:25 SP:F7 CYC:262 SL:-2
15:25:14: E121  CA        DEX                            A:7B X:DE Y:00 P:25 SP:F9 CYC:280 SL:-2
15:25:14: E122  D0 FA     BNE $E11E                      A:7B X:DD Y:00 P:A5 SP:F9 CYC:286 SL:-2
15:25:14: E11E  20 25 E1  JSR $E125                      A:7B X:DD Y:00 P:A5 SP:F9 CYC:295 SL:-2
15:25:14: E125  48        PHA                            A:7B X:DD Y:00 P:A5 SP:F7 CYC:313 SL:-2
15:25:14: E126  A9 00     LDA #$00                       A:7B X:DD Y:00 P:A5 SP:F6 CYC:322 SL:-2
15:25:14: E128  8D 06 20  STA $2006 = 00                 A:00 X:DD Y:00 P:27 SP:F6 CYC:328 SL:-2
15:25:14: E12B  8D 06 20  STA $2006 = 00                 A:00 X:DD Y:00 P:27 SP:F6 CYC:340 SL:-2
15:25:14: VBL CLEARED HT: 0 VT: 0 FX: 0 FY: 0 RX: 5 RY: -1
15:25:14: E12E  A9 10     LDA #$10                       A:00 X:DD Y:00 P:27 SP:F6 CYC: 11 SL:-1
15:25:14: E130  8D 06 20  STA $2006 = 00                 A:10 X:DD Y:00 P:25 SP:F6 CYC: 17 SL:-1
15:25:14: E133  8D 06 20  STA $2006 = 00                 A:10 X:DD Y:00 P:25 SP:F6 CYC: 29 SL:-1
15:25:14: E136  A9 00     LDA #$00                       A:10 X:DD Y:00 P:25 SP:F6 CYC: 41 SL:-1
15:25:14: E138  8D 06 20  STA $2006 = 00                 A:00 X:DD Y:00 P:27 SP:F6 CYC: 47 SL:-1
15:25:14: E13B  8D 06 20  STA $2006 = 00                 A:00 X:DD Y:00 P:27 SP:F6 CYC: 59 SL:-1
15:25:14: E13E  68        PLA                            A:00 X:DD Y:00 P:27 SP:F6 CYC: 71 SL:-1
15:25:14: E13F  60        RTS                            A:7B X:DD Y:00 P:25 SP:F7 CYC: 83 SL:-1
15:25:14: E121  CA        DEX                            A:7B X:DD Y:00 P:25 SP:F9 CYC:101 SL:-1
15:25:14: E122  D0 FA     BNE $E11E                      A:7B X:DC Y:00 P:A5 SP:F9 CYC:107 SL:-1
15:25:14: E11E  20 25 E1  JSR $E125                      A:7B X:DC Y:00 P:A5 SP:F9 CYC:116 SL:-1
15:25:14: E125  48        PHA                            A:7B X:DC Y:00 P:A5 SP:F7 CYC:134 SL:-1
15:25:14: E126  A9 00     LDA #$00                       A:7B X:DC Y:00 P:A5 SP:F6 CYC:143 SL:-1
15:25:14: E128  8D 06 20  STA $2006 = 00                 A:00 X:DC Y:00 P:27 SP:F6 CYC:149 SL:-1
15:25:14: E12B  8D 06 20  STA $2006 = 00                 A:00 X:DC Y:00 P:27 SP:F6 CYC:161 SL:-1
15:25:14: E12E  A9 10     LDA #$10                       A:00 X:DC Y:00 P:27 SP:F6 CYC:173 SL:-1
15:25:14: E130  8D 06 20  STA $2006 = 00                 A:10 X:DC Y:00 P:25 SP:F6 CYC:179 SL:-1
15:25:14: E133  8D 06 20  STA $2006 = 00                 A:10 X:DC Y:00 P:25 SP:F6 CYC:191 SL:-1
15:25:14: E136  A9 00     LDA #$00                       A:10 X:DC Y:00 P:25 SP:F6 CYC:203 SL:-1
15:25:14: E138  8D 06 20  STA $2006 = 00                 A:00 X:DC Y:00 P:27 SP:F6 CYC:209 SL:-1
15:25:14: E13B  8D 06 20  STA $2006 = 00                 A:00 X:DC Y:00 P:27 SP:F6 CYC:221 SL:-1
15:25:14: E13E  68        PLA                            A:00 X:DC Y:00 P:27 SP:F6 CYC:233 SL:-1
15:25:14: E13F  60        RTS                            A:7B X:DC Y:00 P:25 SP:F7 CYC:245 SL:-1
15:25:14: E121  CA        DEX                            A:7B X:DC Y:00 P:25 SP:F9 CYC:263 SL:-1
15:25:14: E122  D0 FA     BNE $E11E                      A:7B X:DB Y:00 P:A5 SP:F9 CYC:269 SL:-1
15:25:14: E11E  20 25 E1  JSR $E125                      A:7B X:DB Y:00 P:A5 SP:F9 CYC:278 SL:-1
15:25:14: E125  48        PHA                            A:7B X:DB Y:00 P:A5 SP:F7 CYC:296 SL:-1
15:25:14: E126  A9 00     LDA #$00                       A:7B X:DB Y:00 P:A5 SP:F6 CYC:305 SL:-1
15:25:14: E128  8D 06 20  STA $2006 = 00                 A:00 X:DB Y:00 P:27 SP:F6 CYC:311 SL:-1
15:25:14: E12B  8D 06 20  STA $2006 = 00                 A:00 X:DB Y:00 P:27 SP:F6 CYC:323 SL:-1
15:25:14: E12E  A9 10     LDA #$10                       A:00 X:DB Y:00 P:27 SP:F6 CYC:335 SL:-1
15:25:14: E130  8D 06 20  STA $2006 = 00                 A:10 X:DB Y:00 P:25 SP:F6 CYC:  0 SL:0
15:25:14: E133  8D 06 20  STA $2006 = 00                 A:10 X:DB Y:00 P:25 SP:F6 CYC: 12 SL:0
15:25:14: E136  A9 00     LDA #$00                       A:10 X:DB Y:00 P:25 SP:F6 CYC: 24 SL:0
15:25:14: E138  8D 06 20  STA $2006 = 00                 A:00 X:DB Y:00 P:27 SP:F6 CYC: 30 SL:0
15:25:14: E13B  8D 06 20  STA $2006 = 00                 A:00 X:DB Y:00 P:27 SP:F6 CYC: 42 SL:0
15:25:14: E13E  68        PLA                            A:00 X:DB Y:00 P:27 SP:F6 CYC: 54 SL:0
15:25:14: E13F  60        RTS                            A:7B X:DB Y:00 P:25 SP:F7 CYC: 66 SL:0
15:25:14: E121  CA        DEX                            A:7B X:DB Y:00 P:25 SP:F9 CYC: 84 SL:0
15:25:14: E122  D0 FA     BNE $E11E                      A:7B X:DA Y:00 P:A5 SP:F9 CYC: 90 SL:0
15:25:14: E11E  20 25 E1  JSR $E125                      A:7B X:DA Y:00 P:A5 SP:F9 CYC: 99 SL:0
15:25:14: E125  48        PHA                            A:7B X:DA Y:00 P:A5 SP:F7 CYC:117 SL:0
15:25:14: E126  A9 00     LDA #$00                       A:7B X:DA Y:00 P:A5 SP:F6 CYC:126 SL:0
15:25:14: E128  8D 06 20  STA $2006 = 00                 A:00 X:DA Y:00 P:27 SP:F6 CYC:132 SL:0
15:25:14: E12B  8D 06 20  STA $2006 = 00                 A:00 X:DA Y:00 P:27 SP:F6 CYC:144 SL:0
15:25:14: E12E  A9 10     LDA #$10                       A:00 X:DA Y:00 P:27 SP:F6 CYC:156 SL:0
15:25:14: E130  8D 06 20  STA $2006 = 00                 A:10 X:DA Y:00 P:25 SP:F6 CYC:162 SL:0
15:25:14: E133  8D 06 20  STA $2006 = 00                 A:10 X:DA Y:00 P:25 SP:F6 CYC:174 SL:0
15:25:14: E136  A9 00     LDA #$00                       A:10 X:DA Y:00 P:25 SP:F6 CYC:186 SL:0
15:25:14: E138  8D 06 20  STA $2006 = 00                 A:00 X:DA Y:00 P:27 SP:F6 CYC:192 SL:0
15:25:14: E13B  8D 06 20  STA $2006 = 00                 A:00 X:DA Y:00 P:27 SP:F6 CYC:204 SL:0
15:25:14: E13E  68        PLA                            A:00 X:DA Y:00 P:27 SP:F6 CYC:216 SL:0
15:25:14: E13F  60        RTS                            A:7B X:DA Y:00 P:25 SP:F7 CYC:228 SL:0
15:25:14: E121  CA        DEX                            A:7B X:DA Y:00 P:25 SP:F9 CYC:246 SL:0
15:25:14: E122  D0 FA     BNE $E11E                      A:7B X:D9 Y:00 P:A5 SP:F9 CYC:252 SL:0
15:25:14: E11E  20 25 E1  JSR $E125                      A:7B X:D9 Y:00 P:A5 SP:F9 CYC:261 SL:0
15:25:14: E125  48        PHA                            A:7B X:D9 Y:00 P:A5 SP:F7 CYC:279 SL:0
15:25:14: E126  A9 00     LDA #$00                       A:7B X:D9 Y:00 P:A5 SP:F6 CYC:288 SL:0
15:25:14: E128  8D 06 20  STA $2006 = 00                 A:00 X:D9 Y:00 P:27 SP:F6 CYC:294 SL:0
15:25:14: E12B  8D 06 20  STA $2006 = 00                 A:00 X:D9 Y:00 P:27 SP:F6 CYC:306 SL:0
15:25:14: E12E  A9 10     LDA #$10                       A:00 X:D9 Y:00 P:27 SP:F6 CYC:318 SL:0
15:25:14: E130  8D 06 20  STA $2006 = 00                 A:10 X:D9 Y:00 P:25 SP:F6 CYC:324 SL:0
15:25:14: E133  8D 06 20  STA $2006 = 00                 A:10 X:D9 Y:00 P:25 SP:F6 CYC:336 SL:0
15:25:14: E136  A9 00     LDA #$00                       A:10 X:D9 Y:00 P:25 SP:F6 CYC:  7 SL:1
15:25:14: E138  8D 06 20  STA $2006 = 00                 A:00 X:D9 Y:00 P:27 SP:F6 CYC: 13 SL:1
15:25:14: E13B  8D 06 20  STA $2006 = 00                 A:00 X:D9 Y:00 P:27 SP:F6 CYC: 25 SL:1
15:25:14: E13E  68        PLA                            A:00 X:D9 Y:00 P:27 SP:F6 CYC: 37 SL:1
15:25:14: E13F  60        RTS                            A:7B X:D9 Y:00 P:25 SP:F7 CYC: 49 SL:1
15:25:14: E121  CA        DEX                            A:7B X:D9 Y:00 P:25 SP:F9 CYC: 67 SL:1
15:25:14: E122  D0 FA     BNE $E11E                      A:7B X:D8 Y:00 P:A5 SP:F9 CYC: 73 SL:1
15:25:14: E11E  20 25 E1  JSR $E125                      A:7B X:D8 Y:00 P:A5 SP:F9 CYC: 82 SL:1
15:25:14: E125  48        PHA                            A:7B X:D8 Y:00 P:A5 SP:F7 CYC:100 SL:1
15:25:14: E126  A9 00     LDA #$00                       A:7B X:D8 Y:00 P:A5 SP:F6 CYC:109 SL:1
15:25:14: E128  8D 06 20  STA $2006 = 00                 A:00 X:D8 Y:00 P:27 SP:F6 CYC:115 SL:1
15:25:14: E12B  8D 06 20  STA $2006 = 00                 A:00 X:D8 Y:00 P:27 SP:F6 CYC:127 SL:1
15:25:14: E12E  A9 10     LDA #$10                       A:00 X:D8 Y:00 P:27 SP:F6 CYC:139 SL:1
15:25:14: E130  8D 06 20  STA $2006 = 00                 A:10 X:D8 Y:00 P:25 SP:F6 CYC:145 SL:1
15:25:14: E133  8D 06 20  STA $2006 = 00                 A:10 X:D8 Y:00 P:25 SP:F6 CYC:157 SL:1
15:25:14: E136  A9 00     LDA #$00                       A:10 X:D8 Y:00 P:25 SP:F6 CYC:169 SL:1
15:25:14: E138  8D 06 20  STA $2006 = 00                 A:00 X:D8 Y:00 P:27 SP:F6 CYC:175 SL:1
15:25:14: E13B  8D 06 20  STA $2006 = 00                 A:00 X:D8 Y:00 P:27 SP:F6 CYC:187 SL:1
15:25:14: E13E  68        PLA                            A:00 X:D8 Y:00 P:27 SP:F6 CYC:199 SL:1
15:25:14: E13F  60        RTS                            A:7B X:D8 Y:00 P:25 SP:F7 CYC:211 SL:1
15:25:14: E121  CA        DEX                            A:7B X:D8 Y:00 P:25 SP:F9 CYC:229 SL:1
15:25:14: E122  D0 FA     BNE $E11E                      A:7B X:D7 Y:00 P:A5 SP:F9 CYC:235 SL:1
15:25:14: E11E  20 25 E1  JSR $E125                      A:7B X:D7 Y:00 P:A5 SP:F9 CYC:244 SL:1
15:25:14: E125  48        PHA                            A:7B X:D7 Y:00 P:A5 SP:F7 CYC:262 SL:1
15:25:14: E126  A9 00     LDA #$00                       A:7B X:D7 Y:00 P:A5 SP:F6 CYC:271 SL:1
15:25:14: E128  8D 06 20  STA $2006 = 00                 A:00 X:D7 Y:00 P:27 SP:F6 CYC:277 SL:1
15:25:14: E12B  8D 06 20  STA $2006 = 00                 A:00 X:D7 Y:00 P:27 SP:F6 CYC:289 SL:1
15:25:14: E12E  A9 10     LDA #$10                       A:00 X:D7 Y:00 P:27 SP:F6 CYC:301 SL:1
15:25:14: E130  8D 06 20  STA $2006 = 00                 A:10 X:D7 Y:00 P:25 SP:F6 CYC:307 SL:1
15:25:14: E133  8D 06 20  STA $2006 = 00                 A:10 X:D7 Y:00 P:25 SP:F6 CYC:319 SL:1
15:25:14: E136  A9 00     LDA #$00                       A:10 X:D7 Y:00 P:25 SP:F6 CYC:331 SL:1
15:25:14: E138  8D 06 20  STA $2006 = 00                 A:00 X:D7 Y:00 P:27 SP:F6 CYC:337 SL:1
15:25:14: E13B  8D 06 20  STA $2006 = 00                 A:00 X:D7 Y:00 P:27 SP:F6 CYC:  8 SL:2
15:25:14: E13E  68        PLA                            A:00 X:D7 Y:00 P:27 SP:F6 CYC: 20 SL:2
15:25:14: E13F  60        RTS                            A:7B X:D7 Y:00 P:25 SP:F7 CYC: 32 SL:2
15:25:14: E121  CA        DEX                            A:7B X:D7 Y:00 P:25 SP:F9 CYC: 50 SL:2
15:25:14: E122  D0 FA     BNE $E11E                      A:7B X:D6 Y:00 P:A5 SP:F9 CYC: 56 SL:2
15:25:14: E11E  20 25 E1  JSR $E125                      A:7B X:D6 Y:00 P:A5 SP:F9 CYC: 65 SL:2
15:25:14: E125  48        PHA                            A:7B X:D6 Y:00 P:A5 SP:F7 CYC: 83 SL:2
15:25:14: E126  A9 00     LDA #$00                       A:7B X:D6 Y:00 P:A5 SP:F6 CYC: 92 SL:2
15:25:14: E128  8D 06 20  STA $2006 = 00                 A:00 X:D6 Y:00 P:27 SP:F6 CYC: 98 SL:2
15:25:14: E12B  8D 06 20  STA $2006 = 00                 A:00 X:D6 Y:00 P:27 SP:F6 CYC:110 SL:2
15:25:14: E12E  A9 10     LDA #$10                       A:00 X:D6 Y:00 P:27 SP:F6 CYC:122 SL:2
15:25:14: E130  8D 06 20  STA $2006 = 00                 A:10 X:D6 Y:00 P:25 SP:F6 CYC:128 SL:2
15:25:14: E133  8D 06 20  STA $2006 = 00                 A:10 X:D6 Y:00 P:25 SP:F6 CYC:140 SL:2
15:25:14: E136  A9 00     LDA #$00                       A:10 X:D6 Y:00 P:25 SP:F6 CYC:152 SL:2
15:25:14: E138  8D 06 20  STA $2006 = 00                 A:00 X:D6 Y:00 P:27 SP:F6 CYC:158 SL:2
15:25:14: E13B  8D 06 20  STA $2006 = 00                 A:00 X:D6 Y:00 P:27 SP:F6 CYC:170 SL:2
15:25:14: E13E  68        PLA                            A:00 X:D6 Y:00 P:27 SP:F6 CYC:182 SL:2
15:25:14: E13F  60        RTS                            A:7B X:D6 Y:00 P:25 SP:F7 CYC:194 SL:2
15:25:14: E121  CA        DEX                            A:7B X:D6 Y:00 P:25 SP:F9 CYC:212 SL:2
15:25:14: E122  D0 FA     BNE $E11E                      A:7B X:D5 Y:00 P:A5 SP:F9 CYC:218 SL:2
15:25:14: E11E  20 25 E1  JSR $E125                      A:7B X:D5 Y:00 P:A5 SP:F9 CYC:227 SL:2
15:25:14: E125  48        PHA                            A:7B X:D5 Y:00 P:A5 SP:F7 CYC:245 SL:2
15:25:14: E126  A9 00     LDA #$00                       A:7B X:D5 Y:00 P:A5 SP:F6 CYC:254 SL:2
15:25:14: E128  8D 06 20  STA $2006 = 00                 A:00 X:D5 Y:00 P:27 SP:F6 CYC:260 SL:2
15:25:14: E12B  8D 06 20  STA $2006 = 00                 A:00 X:D5 Y:00 P:27 SP:F6 CYC:272 SL:2
15:25:14: E12E  A9 10     LDA #$10                       A:00 X:D5 Y:00 P:27 SP:F6 CYC:284 SL:2
15:25:14: E130  8D 06 20  STA $2006 = 00                 A:10 X:D5 Y:00 P:25 SP:F6 CYC:290 SL:2
15:25:14: E133  8D 06 20  STA $2006 = 00                 A:10 X:D5 Y:00 P:25 SP:F6 CYC:302 SL:2
15:25:14: E136  A9 00     LDA #$00                       A:10 X:D5 Y:00 P:25 SP:F6 CYC:314 SL:2
15:25:14: E138  8D 06 20  STA $2006 = 00                 A:00 X:D5 Y:00 P:27 SP:F6 CYC:320 SL:2
15:25:14: E13B  8D 06 20  STA $2006 = 00                 A:00 X:D5 Y:00 P:27 SP:F6 CYC:332 SL:2
15:25:14: E13E  68        PLA                            A:00 X:D5 Y:00 P:27 SP:F6 CYC:  3 SL:3
15:25:14: E13F  60        RTS                            A:7B X:D5 Y:00 P:25 SP:F7 CYC: 15 SL:3
15:25:14: E121  CA        DEX                            A:7B X:D5 Y:00 P:25 SP:F9 CYC: 33 SL:3
15:25:14: E122  D0 FA     BNE $E11E                      A:7B X:D4 Y:00 P:A5 SP:F9 CYC: 39 SL:3
15:25:14: E11E  20 25 E1  JSR $E125                      A:7B X:D4 Y:00 P:A5 SP:F9 CYC: 48 SL:3
15:25:14: E125  48        PHA                            A:7B X:D4 Y:00 P:A5 SP:F7 CYC: 66 SL:3
15:25:14: E126  A9 00     LDA #$00                       A:7B X:D4 Y:00 P:A5 SP:F6 CYC: 75 SL:3
15:25:14: E128  8D 06 20  STA $2006 = 00                 A:00 X:D4 Y:00 P:27 SP:F6 CYC: 81 SL:3
15:25:14: E12B  8D 06 20  STA $2006 = 00                 A:00 X:D4 Y:00 P:27 SP:F6 CYC: 93 SL:3
15:25:14: E12E  A9 10     LDA #$10                       A:00 X:D4 Y:00 P:27 SP:F6 CYC:105 SL:3
15:25:14: E130  8D 06 20  STA $2006 = 00                 A:10 X:D4 Y:00 P:25 SP:F6 CYC:111 SL:3
15:25:14: E133  8D 06 20  STA $2006 = 00                 A:10 X:D4 Y:00 P:25 SP:F6 CYC:123 SL:3
15:25:14: E136  A9 00     LDA #$00                       A:10 X:D4 Y:00 P:25 SP:F6 CYC:135 SL:3
15:25:14: E138  8D 06 20  STA $2006 = 00                 A:00 X:D4 Y:00 P:27 SP:F6 CYC:141 SL:3
15:25:14: E13B  8D 06 20  STA $2006 = 00                 A:00 X:D4 Y:00 P:27 SP:F6 CYC:153 SL:3
15:25:15: E13E  68        PLA                            A:00 X:D4 Y:00 P:27 SP:F6 CYC:165 SL:3
15:25:15: E13F  60        RTS                            A:7B X:D4 Y:00 P:25 SP:F7 CYC:177 SL:3
15:25:15: E121  CA        DEX                            A:7B X:D4 Y:00 P:25 SP:F9 CYC:195 SL:3
15:25:15: E122  D0 FA     BNE $E11E                      A:7B X:D3 Y:00 P:A5 SP:F9 CYC:201 SL:3
15:25:15: E11E  20 25 E1  JSR $E125                      A:7B X:D3 Y:00 P:A5 SP:F9 CYC:210 SL:3
15:25:15: E125  48        PHA                            A:7B X:D3 Y:00 P:A5 SP:F7 CYC:228 SL:3
15:25:15: E126  A9 00     LDA #$00                       A:7B X:D3 Y:00 P:A5 SP:F6 CYC:237 SL:3
15:25:15: E128  8D 06 20  STA $2006 = 00                 A:00 X:D3 Y:00 P:27 SP:F6 CYC:243 SL:3
15:25:15: E12B  8D 06 20  STA $2006 = 00                 A:00 X:D3 Y:00 P:27 SP:F6 CYC:255 SL:3
15:25:15: E12E  A9 10     LDA #$10                       A:00 X:D3 Y:00 P:27 SP:F6 CYC:267 SL:3
15:25:15: E130  8D 06 20  STA $2006 = 00                 A:10 X:D3 Y:00 P:25 SP:F6 CYC:273 SL:3
15:25:15: E133  8D 06 20  STA $2006 = 00                 A:10 X:D3 Y:00 P:25 SP:F6 CYC:285 SL:3
15:25:15: E136  A9 00     LDA #$00                       A:10 X:D3 Y:00 P:25 SP:F6 CYC:297 SL:3
15:25:15: E138  8D 06 20  STA $2006 = 00                 A:00 X:D3 Y:00 P:27 SP:F6 CYC:303 SL:3
15:25:15: E13B  8D 06 20  STA $2006 = 00                 A:00 X:D3 Y:00 P:27 SP:F6 CYC:315 SL:3
15:25:15: E13E  68        PLA                            A:00 X:D3 Y:00 P:27 SP:F6 CYC:327 SL:3
15:25:15: E13F  60        RTS                            A:7B X:D3 Y:00 P:25 SP:F7 CYC:339 SL:3
15:25:15: E121  CA        DEX                            A:7B X:D3 Y:00 P:25 SP:F9 CYC: 16 SL:4
15:25:15: E122  D0 FA     BNE $E11E                      A:7B X:D2 Y:00 P:A5 SP:F9 CYC: 22 SL:4
15:25:15: E11E  20 25 E1  JSR $E125                      A:7B X:D2 Y:00 P:A5 SP:F9 CYC: 31 SL:4
15:25:15: E125  48        PHA                            A:7B X:D2 Y:00 P:A5 SP:F7 CYC: 49 SL:4
15:25:15: E126  A9 00     LDA #$00                       A:7B X:D2 Y:00 P:A5 SP:F6 CYC: 58 SL:4
15:25:15: E128  8D 06 20  STA $2006 = 00                 A:00 X:D2 Y:00 P:27 SP:F6 CYC: 64 SL:4
15:25:15: E12B  8D 06 20  STA $2006 = 00                 A:00 X:D2 Y:00 P:27 SP:F6 CYC: 76 SL:4
15:25:15: E12E  A9 10     LDA #$10                       A:00 X:D2 Y:00 P:27 SP:F6 CYC: 88 SL:4
15:25:15: E130  8D 06 20  STA $2006 = 00                 A:10 X:D2 Y:00 P:25 SP:F6 CYC: 94 SL:4
15:25:15: E133  8D 06 20  STA $2006 = 00                 A:10 X:D2 Y:00 P:25 SP:F6 CYC:106 SL:4
15:25:15: E136  A9 00     LDA #$00                       A:10 X:D2 Y:00 P:25 SP:F6 CYC:118 SL:4
15:25:15: E138  8D 06 20  STA $2006 = 00                 A:00 X:D2 Y:00 P:27 SP:F6 CYC:124 SL:4
15:25:15: E13B  8D 06 20  STA $2006 = 00                 A:00 X:D2 Y:00 P:27 SP:F6 CYC:136 SL:4
15:25:15: E13E  68        PLA                            A:00 X:D2 Y:00 P:27 SP:F6 CYC:148 SL:4
15:25:15: E13F  60        RTS                            A:7B X:D2 Y:00 P:25 SP:F7 CYC:160 SL:4
15:25:15: E121  CA        DEX                            A:7B X:D2 Y:00 P:25 SP:F9 CYC:178 SL:4
15:25:15: E122  D0 FA     BNE $E11E                      A:7B X:D1 Y:00 P:A5 SP:F9 CYC:184 SL:4
15:25:15: E11E  20 25 E1  JSR $E125                      A:7B X:D1 Y:00 P:A5 SP:F9 CYC:193 SL:4
15:25:15: E125  48        PHA                            A:7B X:D1 Y:00 P:A5 SP:F7 CYC:211 SL:4
15:25:15: E126  A9 00     LDA #$00                       A:7B X:D1 Y:00 P:A5 SP:F6 CYC:220 SL:4
15:25:15: E128  8D 06 20  STA $2006 = 00                 A:00 X:D1 Y:00 P:27 SP:F6 CYC:226 SL:4
15:25:15: E12B  8D 06 20  STA $2006 = 00                 A:00 X:D1 Y:00 P:27 SP:F6 CYC:238 SL:4
15:25:15: E12E  A9 10     LDA #$10                       A:00 X:D1 Y:00 P:27 SP:F6 CYC:250 SL:4
15:25:15: E130  8D 06 20  STA $2006 = 00                 A:10 X:D1 Y:00 P:25 SP:F6 CYC:256 SL:4
15:25:15: E133  8D 06 20  STA $2006 = 00                 A:10 X:D1 Y:00 P:25 SP:F6 CYC:268 SL:4
15:25:15: E136  A9 00     LDA #$00                       A:10 X:D1 Y:00 P:25 SP:F6 CYC:280 SL:4
15:25:15: E138  8D 06 20  STA $2006 = 00                 A:00 X:D1 Y:00 P:27 SP:F6 CYC:286 SL:4
15:25:15: E13B  8D 06 20  STA $2006 = 00                 A:00 X:D1 Y:00 P:27 SP:F6 CYC:298 SL:4
15:25:15: E13E  68        PLA                            A:00 X:D1 Y:00 P:27 SP:F6 CYC:310 SL:4
15:25:15: E13F  60        RTS                            A:7B X:D1 Y:00 P:25 SP:F7 CYC:322 SL:4
15:25:15: E121  CA        DEX                            A:7B X:D1 Y:00 P:25 SP:F9 CYC:340 SL:4
15:25:15: E122  D0 FA     BNE $E11E                      A:7B X:D0 Y:00 P:A5 SP:F9 CYC:  5 SL:5
15:25:15: E11E  20 25 E1  JSR $E125                      A:7B X:D0 Y:00 P:A5 SP:F9 CYC: 14 SL:5
15:25:15: E125  48        PHA                            A:7B X:D0 Y:00 P:A5 SP:F7 CYC: 32 SL:5
15:25:15: E126  A9 00     LDA #$00                       A:7B X:D0 Y:00 P:A5 SP:F6 CYC: 41 SL:5
15:25:15: E128  8D 06 20  STA $2006 = 00                 A:00 X:D0 Y:00 P:27 SP:F6 CYC: 47 SL:5
15:25:15: E12B  8D 06 20  STA $2006 = 00                 A:00 X:D0 Y:00 P:27 SP:F6 CYC: 59 SL:5
15:25:15: E12E  A9 10     LDA #$10                       A:00 X:D0 Y:00 P:27 SP:F6 CYC: 71 SL:5
15:25:15: E130  8D 06 20  STA $2006 = 00                 A:10 X:D0 Y:00 P:25 SP:F6 CYC: 77 SL:5
15:25:15: E133  8D 06 20  STA $2006 = 00                 A:10 X:D0 Y:00 P:25 SP:F6 CYC: 89 SL:5
15:25:15: E136  A9 00     LDA #$00                       A:10 X:D0 Y:00 P:25 SP:F6 CYC:101 SL:5
15:25:15: E138  8D 06 20  STA $2006 = 00                 A:00 X:D0 Y:00 P:27 SP:F6 CYC:107 SL:5
15:25:15: E13B  8D 06 20  STA $2006 = 00                 A:00 X:D0 Y:00 P:27 SP:F6 CYC:119 SL:5
15:25:15: E13E  68        PLA                            A:00 X:D0 Y:00 P:27 SP:F6 CYC:131 SL:5
15:25:15: E13F  60        RTS                            A:7B X:D0 Y:00 P:25 SP:F7 CYC:143 SL:5
15:25:15: E121  CA        DEX                            A:7B X:D0 Y:00 P:25 SP:F9 CYC:161 SL:5
15:25:15: E122  D0 FA     BNE $E11E                      A:7B X:CF Y:00 P:A5 SP:F9 CYC:167 SL:5
15:25:15: E11E  20 25 E1  JSR $E125                      A:7B X:CF Y:00 P:A5 SP:F9 CYC:176 SL:5
15:25:15: E125  48        PHA                            A:7B X:CF Y:00 P:A5 SP:F7 CYC:194 SL:5
15:25:15: E126  A9 00     LDA #$00                       A:7B X:CF Y:00 P:A5 SP:F6 CYC:203 SL:5
15:25:15: E128  8D 06 20  STA $2006 = 00                 A:00 X:CF Y:00 P:27 SP:F6 CYC:209 SL:5
15:25:15: E12B  8D 06 20  STA $2006 = 00                 A:00 X:CF Y:00 P:27 SP:F6 CYC:221 SL:5
15:25:15: E12E  A9 10     LDA #$10                       A:00 X:CF Y:00 P:27 SP:F6 CYC:233 SL:5
15:25:15: E130  8D 06 20  STA $2006 = 00                 A:10 X:CF Y:00 P:25 SP:F6 CYC:239 SL:5
15:25:15: E133  8D 06 20  STA $2006 = 00                 A:10 X:CF Y:00 P:25 SP:F6 CYC:251 SL:5
15:25:15: E136  A9 00     LDA #$00                       A:10 X:CF Y:00 P:25 SP:F6 CYC:263 SL:5
15:25:15: E138  8D 06 20  STA $2006 = 00                 A:00 X:CF Y:00 P:27 SP:F6 CYC:269 SL:5
15:25:15: E13B  8D 06 20  STA $2006 = 00                 A:00 X:CF Y:00 P:27 SP:F6 CYC:281 SL:5
15:25:15: E13E  68        PLA                            A:00 X:CF Y:00 P:27 SP:F6 CYC:293 SL:5
15:25:15: E13F  60        RTS                            A:7B X:CF Y:00 P:25 SP:F7 CYC:305 SL:5
15:25:15: E121  CA        DEX                            A:7B X:CF Y:00 P:25 SP:F9 CYC:323 SL:5
15:25:15: E122  D0 FA     BNE $E11E                      A:7B X:CE Y:00 P:A5 SP:F9 CYC:329 SL:5
15:25:15: E11E  20 25 E1  JSR $E125                      A:7B X:CE Y:00 P:A5 SP:F9 CYC:338 SL:5
15:25:15: E125  48        PHA                            A:7B X:CE Y:00 P:A5 SP:F7 CYC: 15 SL:6
15:25:15: E126  A9 00     LDA #$00                       A:7B X:CE Y:00 P:A5 SP:F6 CYC: 24 SL:6
15:25:15: E128  8D 06 20  STA $2006 = 00                 A:00 X:CE Y:00 P:27 SP:F6 CYC: 30 SL:6
15:25:15: E12B  8D 06 20  STA $2006 = 00                 A:00 X:CE Y:00 P:27 SP:F6 CYC: 42 SL:6
15:25:15: E12E  A9 10     LDA #$10                       A:00 X:CE Y:00 P:27 SP:F6 CYC: 54 SL:6
15:25:15: E130  8D 06 20  STA $2006 = 00                 A:10 X:CE Y:00 P:25 SP:F6 CYC: 60 SL:6
15:25:15: E133  8D 06 20  STA $2006 = 00                 A:10 X:CE Y:00 P:25 SP:F6 CYC: 72 SL:6
15:25:15: E136  A9 00     LDA #$00                       A:10 X:CE Y:00 P:25 SP:F6 CYC: 84 SL:6
15:25:15: E138  8D 06 20  STA $2006 = 00                 A:00 X:CE Y:00 P:27 SP:F6 CYC: 90 SL:6
15:25:15: E13B  8D 06 20  STA $2006 = 00                 A:00 X:CE Y:00 P:27 SP:F6 CYC:102 SL:6
15:25:15: E13E  68        PLA                            A:00 X:CE Y:00 P:27 SP:F6 CYC:114 SL:6
15:25:15: E13F  60        RTS                            A:7B X:CE Y:00 P:25 SP:F7 CYC:126 SL:6
15:25:15: E121  CA        DEX                            A:7B X:CE Y:00 P:25 SP:F9 CYC:144 SL:6
15:25:15: E122  D0 FA     BNE $E11E                      A:7B X:CD Y:00 P:A5 SP:F9 CYC:150 SL:6
15:25:15: E11E  20 25 E1  JSR $E125                      A:7B X:CD Y:00 P:A5 SP:F9 CYC:159 SL:6
15:25:15: E125  48        PHA                            A:7B X:CD Y:00 P:A5 SP:F7 CYC:177 SL:6
15:25:15: E126  A9 00     LDA #$00                       A:7B X:CD Y:00 P:A5 SP:F6 CYC:186 SL:6
15:25:15: E128  8D 06 20  STA $2006 = 00                 A:00 X:CD Y:00 P:27 SP:F6 CYC:192 SL:6
15:25:15: E12B  8D 06 20  STA $2006 = 00                 A:00 X:CD Y:00 P:27 SP:F6 CYC:204 SL:6
15:25:15: E12E  A9 10     LDA #$10                       A:00 X:CD Y:00 P:27 SP:F6 CYC:216 SL:6
15:25:15: E130  8D 06 20  STA $2006 = 00                 A:10 X:CD Y:00 P:25 SP:F6 CYC:222 SL:6
15:25:15: E133  8D 06 20  STA $2006 = 00                 A:10 X:CD Y:00 P:25 SP:F6 CYC:234 SL:6
15:25:15: E136  A9 00     LDA #$00                       A:10 X:CD Y:00 P:25 SP:F6 CYC:246 SL:6
15:25:15: E138  8D 06 20  STA $2006 = 00                 A:00 X:CD Y:00 P:27 SP:F6 CYC:252 SL:6
15:25:15: E13B  8D 06 20  STA $2006 = 00                 A:00 X:CD Y:00 P:27 SP:F6 CYC:264 SL:6
15:25:15: E13E  68        PLA                            A:00 X:CD Y:00 P:27 SP:F6 CYC:276 SL:6
15:25:15: E13F  60        RTS                            A:7B X:CD Y:00 P:25 SP:F7 CYC:288 SL:6
15:25:15: E121  CA        DEX                            A:7B X:CD Y:00 P:25 SP:F9 CYC:306 SL:6
15:25:15: E122  D0 FA     BNE $E11E                      A:7B X:CC Y:00 P:A5 SP:F9 CYC:312 SL:6
15:25:15: E11E  20 25 E1  JSR $E125                      A:7B X:CC Y:00 P:A5 SP:F9 CYC:321 SL:6
15:25:15: E125  48        PHA                            A:7B X:CC Y:00 P:A5 SP:F7 CYC:339 SL:6
15:25:15: E126  A9 00     LDA #$00                       A:7B X:CC Y:00 P:A5 SP:F6 CYC:  7 SL:7
15:25:15: E128  8D 06 20  STA $2006 = 00                 A:00 X:CC Y:00 P:27 SP:F6 CYC: 13 SL:7
15:25:15: E12B  8D 06 20  STA $2006 = 00                 A:00 X:CC Y:00 P:27 SP:F6 CYC: 25 SL:7
15:25:15: E12E  A9 10     LDA #$10                       A:00 X:CC Y:00 P:27 SP:F6 CYC: 37 SL:7
15:25:15: E130  8D 06 20  STA $2006 = 00                 A:10 X:CC Y:00 P:25 SP:F6 CYC: 43 SL:7
15:25:15: E133  8D 06 20  STA $2006 = 00                 A:10 X:CC Y:00 P:25 SP:F6 CYC: 55 SL:7
15:25:15: E136  A9 00     LDA #$00                       A:10 X:CC Y:00 P:25 SP:F6 CYC: 67 SL:7
15:25:15: E138  8D 06 20  STA $2006 = 00                 A:00 X:CC Y:00 P:27 SP:F6 CYC: 73 SL:7
15:25:15: E13B  8D 06 20  STA $2006 = 00                 A:00 X:CC Y:00 P:27 SP:F6 CYC: 85 SL:7
15:25:15: E13E  68        PLA                            A:00 X:CC Y:00 P:27 SP:F6 CYC: 97 SL:7
15:25:15: E13F  60        RTS                            A:7B X:CC Y:00 P:25 SP:F7 CYC:109 SL:7
15:25:15: E121  CA        DEX                            A:7B X:CC Y:00 P:25 SP:F9 CYC:127 SL:7
15:25:15: E122  D0 FA     BNE $E11E                      A:7B X:CB Y:00 P:A5 SP:F9 CYC:133 SL:7
15:25:15: E11E  20 25 E1  JSR $E125                      A:7B X:CB Y:00 P:A5 SP:F9 CYC:142 SL:7
15:25:15: E125  48        PHA                            A:7B X:CB Y:00 P:A5 SP:F7 CYC:160 SL:7
15:25:15: E126  A9 00     LDA #$00                       A:7B X:CB Y:00 P:A5 SP:F6 CYC:169 SL:7
15:25:15: E128  8D 06 20  STA $2006 = 00                 A:00 X:CB Y:00 P:27 SP:F6 CYC:175 SL:7
15:25:15: E12B  8D 06 20  STA $2006 = 00                 A:00 X:CB Y:00 P:27 SP:F6 CYC:187 SL:7
15:25:15: E12E  A9 10     LDA #$10                       A:00 X:CB Y:00 P:27 SP:F6 CYC:199 SL:7
15:25:15: E130  8D 06 20  STA $2006 = 00                 A:10 X:CB Y:00 P:25 SP:F6 CYC:205 SL:7
15:25:15: E133  8D 06 20  STA $2006 = 00                 A:10 X:CB Y:00 P:25 SP:F6 CYC:217 SL:7
15:25:15: E136  A9 00     LDA #$00                       A:10 X:CB Y:00 P:25 SP:F6 CYC:229 SL:7
15:25:15: E138  8D 06 20  STA $2006 = 00                 A:00 X:CB Y:00 P:27 SP:F6 CYC:235 SL:7
15:25:15: E13B  8D 06 20  STA $2006 = 00                 A:00 X:CB Y:00 P:27 SP:F6 CYC:247 SL:7
15:25:15: E13E  68        PLA                            A:00 X:CB Y:00 P:27 SP:F6 CYC:259 SL:7
15:25:15: E13F  60        RTS                            A:7B X:CB Y:00 P:25 SP:F7 CYC:271 SL:7
15:25:15: E121  CA        DEX                            A:7B X:CB Y:00 P:25 SP:F9 CYC:289 SL:7
15:25:15: E122  D0 FA     BNE $E11E                      A:7B X:CA Y:00 P:A5 SP:F9 CYC:295 SL:7
15:25:15: E11E  20 25 E1  JSR $E125                      A:7B X:CA Y:00 P:A5 SP:F9 CYC:304 SL:7
15:25:15: E125  48        PHA                            A:7B X:CA Y:00 P:A5 SP:F7 CYC:322 SL:7
15:25:15: E126  A9 00     LDA #$00                       A:7B X:CA Y:00 P:A5 SP:F6 CYC:331 SL:7
15:25:15: E128  8D 06 20  STA $2006 = 00                 A:00 X:CA Y:00 P:27 SP:F6 CYC:337 SL:7
15:25:15: E12B  8D 06 20  STA $2006 = 00                 A:00 X:CA Y:00 P:27 SP:F6 CYC:  8 SL:8
15:25:15: E12E  A9 10     LDA #$10                       A:00 X:CA Y:00 P:27 SP:F6 CYC: 20 SL:8
15:25:15: E130  8D 06 20  STA $2006 = 00                 A:10 X:CA Y:00 P:25 SP:F6 CYC: 26 SL:8
15:25:15: E133  8D 06 20  STA $2006 = 00                 A:10 X:CA Y:00 P:25 SP:F6 CYC: 38 SL:8
15:25:15: E136  A9 00     LDA #$00                       A:10 X:CA Y:00 P:25 SP:F6 CYC: 50 SL:8
15:25:15: E138  8D 06 20  STA $2006 = 00                 A:00 X:CA Y:00 P:27 SP:F6 CYC: 56 SL:8
15:25:15: E13B  8D 06 20  STA $2006 = 00                 A:00 X:CA Y:00 P:27 SP:F6 CYC: 68 SL:8
15:25:15: E13E  68        PLA                            A:00 X:CA Y:00 P:27 SP:F6 CYC: 80 SL:8
15:25:15: E13F  60        RTS                            A:7B X:CA Y:00 P:25 SP:F7 CYC: 92 SL:8
15:25:15: E121  CA        DEX                            A:7B X:CA Y:00 P:25 SP:F9 CYC:110 SL:8
15:25:15: E122  D0 FA     BNE $E11E                      A:7B X:C9 Y:00 P:A5 SP:F9 CYC:116 SL:8
15:25:15: E11E  20 25 E1  JSR $E125                      A:7B X:C9 Y:00 P:A5 SP:F9 CYC:125 SL:8
15:25:15: E125  48        PHA                            A:7B X:C9 Y:00 P:A5 SP:F7 CYC:143 SL:8
15:25:15: E126  A9 00     LDA #$00                       A:7B X:C9 Y:00 P:A5 SP:F6 CYC:152 SL:8
15:25:15: E128  8D 06 20  STA $2006 = 00                 A:00 X:C9 Y:00 P:27 SP:F6 CYC:158 SL:8
15:25:15: E12B  8D 06 20  STA $2006 = 00                 A:00 X:C9 Y:00 P:27 SP:F6 CYC:170 SL:8
15:25:15: E12E  A9 10     LDA #$10                       A:00 X:C9 Y:00 P:27 SP:F6 CYC:182 SL:8
15:25:15: E130  8D 06 20  STA $2006 = 00                 A:10 X:C9 Y:00 P:25 SP:F6 CYC:188 SL:8
15:25:15: E133  8D 06 20  STA $2006 = 00                 A:10 X:C9 Y:00 P:25 SP:F6 CYC:200 SL:8
15:25:15: E136  A9 00     LDA #$00                       A:10 X:C9 Y:00 P:25 SP:F6 CYC:212 SL:8
15:25:15: E138  8D 06 20  STA $2006 = 00                 A:00 X:C9 Y:00 P:27 SP:F6 CYC:218 SL:8
15:25:15: E13B  8D 06 20  STA $2006 = 00                 A:00 X:C9 Y:00 P:27 SP:F6 CYC:230 SL:8
15:25:15: E13E  68        PLA                            A:00 X:C9 Y:00 P:27 SP:F6 CYC:242 SL:8
15:25:15: E13F  60        RTS                            A:7B X:C9 Y:00 P:25 SP:F7 CYC:254 SL:8
15:25:15: E121  CA        DEX                            A:7B X:C9 Y:00 P:25 SP:F9 CYC:272 SL:8
15:25:15: E122  D0 FA     BNE $E11E                      A:7B X:C8 Y:00 P:A5 SP:F9 CYC:278 SL:8
15:25:15: E11E  20 25 E1  JSR $E125                      A:7B X:C8 Y:00 P:A5 SP:F9 CYC:287 SL:8
15:25:15: E125  48        PHA                            A:7B X:C8 Y:00 P:A5 SP:F7 CYC:305 SL:8
15:25:15: E126  A9 00     LDA #$00                       A:7B X:C8 Y:00 P:A5 SP:F6 CYC:314 SL:8
15:25:15: E128  8D 06 20  STA $2006 = 00                 A:00 X:C8 Y:00 P:27 SP:F6 CYC:320 SL:8
15:25:15: E12B  8D 06 20  STA $2006 = 00                 A:00 X:C8 Y:00 P:27 SP:F6 CYC:332 SL:8
15:25:15: E12E  A9 10     LDA #$10                       A:00 X:C8 Y:00 P:27 SP:F6 CYC:  3 SL:9
15:25:15: E130  8D 06 20  STA $2006 = 00                 A:10 X:C8 Y:00 P:25 SP:F6 CYC:  9 SL:9
15:25:15: E133  8D 06 20  STA $2006 = 00                 A:10 X:C8 Y:00 P:25 SP:F6 CYC: 21 SL:9
15:25:15: E136  A9 00     LDA #$00                       A:10 X:C8 Y:00 P:25 SP:F6 CYC: 33 SL:9
15:25:15: E138  8D 06 20  STA $2006 = 00                 A:00 X:C8 Y:00 P:27 SP:F6 CYC: 39 SL:9
15:25:15: E13B  8D 06 20  STA $2006 = 00                 A:00 X:C8 Y:00 P:27 SP:F6 CYC: 51 SL:9
15:25:15: E13E  68        PLA                            A:00 X:C8 Y:00 P:27 SP:F6 CYC: 63 SL:9
15:25:15: E13F  60        RTS                            A:7B X:C8 Y:00 P:25 SP:F7 CYC: 75 SL:9
15:25:15: E121  CA        DEX                            A:7B X:C8 Y:00 P:25 SP:F9 CYC: 93 SL:9
15:25:15: E122  D0 FA     BNE $E11E                      A:7B X:C7 Y:00 P:A5 SP:F9 CYC: 99 SL:9
15:25:15: E11E  20 25 E1  JSR $E125                      A:7B X:C7 Y:00 P:A5 SP:F9 CYC:108 SL:9
15:25:15: E125  48        PHA                            A:7B X:C7 Y:00 P:A5 SP:F7 CYC:126 SL:9
15:25:15: E126  A9 00     LDA #$00                       A:7B X:C7 Y:00 P:A5 SP:F6 CYC:135 SL:9
15:25:15: E128  8D 06 20  STA $2006 = 00                 A:00 X:C7 Y:00 P:27 SP:F6 CYC:141 SL:9
15:25:15: E12B  8D 06 20  STA $2006 = 00                 A:00 X:C7 Y:00 P:27 SP:F6 CYC:153 SL:9
15:25:15: E12E  A9 10     LDA #$10                       A:00 X:C7 Y:00 P:27 SP:F6 CYC:165 SL:9
15:25:15: E130  8D 06 20  STA $2006 = 00                 A:10 X:C7 Y:00 P:25 SP:F6 CYC:171 SL:9
15:25:15: E133  8D 06 20  STA $2006 = 00                 A:10 X:C7 Y:00 P:25 SP:F6 CYC:183 SL:9
15:25:15: E136  A9 00     LDA #$00                       A:10 X:C7 Y:00 P:25 SP:F6 CYC:195 SL:9
15:25:15: E138  8D 06 20  STA $2006 = 00                 A:00 X:C7 Y:00 P:27 SP:F6 CYC:201 SL:9
15:25:15: E13B  8D 06 20  STA $2006 = 00                 A:00 X:C7 Y:00 P:27 SP:F6 CYC:213 SL:9
15:25:15: E13E  68        PLA                            A:00 X:C7 Y:00 P:27 SP:F6 CYC:225 SL:9
15:25:15: E13F  60        RTS                            A:7B X:C7 Y:00 P:25 SP:F7 CYC:237 SL:9
15:25:15: E121  CA        DEX                            A:7B X:C7 Y:00 P:25 SP:F9 CYC:255 SL:9
15:25:15: E122  D0 FA     BNE $E11E                      A:7B X:C6 Y:00 P:A5 SP:F9 CYC:261 SL:9
15:25:15: E11E  20 25 E1  JSR $E125                      A:7B X:C6 Y:00 P:A5 SP:F9 CYC:270 SL:9
15:25:15: E125  48        PHA                            A:7B X:C6 Y:00 P:A5 SP:F7 CYC:288 SL:9
15:25:15: E126  A9 00     LDA #$00                       A:7B X:C6 Y:00 P:A5 SP:F6 CYC:297 SL:9
15:25:15: E128  8D 06 20  STA $2006 = 00                 A:00 X:C6 Y:00 P:27 SP:F6 CYC:303 SL:9
15:25:15: E12B  8D 06 20  STA $2006 = 00                 A:00 X:C6 Y:00 P:27 SP:F6 CYC:315 SL:9
15:25:15: E12E  A9 10     LDA #$10                       A:00 X:C6 Y:00 P:27 SP:F6 CYC:327 SL:9
15:25:15: E130  8D 06 20  STA $2006 = 00                 A:10 X:C6 Y:00 P:25 SP:F6 CYC:333 SL:9
15:25:15: E133  8D 06 20  STA $2006 = 00                 A:10 X:C6 Y:00 P:25 SP:F6 CYC:  4 SL:10
15:25:15: E136  A9 00     LDA #$00                       A:10 X:C6 Y:00 P:25 SP:F6 CYC: 16 SL:10
15:25:15: E138  8D 06 20  STA $2006 = 00                 A:00 X:C6 Y:00 P:27 SP:F6 CYC: 22 SL:10
15:25:15: E13B  8D 06 20  STA $2006 = 00                 A:00 X:C6 Y:00 P:27 SP:F6 CYC: 34 SL:10
15:25:15: E13E  68        PLA                            A:00 X:C6 Y:00 P:27 SP:F6 CYC: 46 SL:10
15:25:15: E13F  60        RTS                            A:7B X:C6 Y:00 P:25 SP:F7 CYC: 58 SL:10
15:25:15: E121  CA        DEX                            A:7B X:C6 Y:00 P:25 SP:F9 CYC: 76 SL:10
15:25:15: E122  D0 FA     BNE $E11E                      A:7B X:C5 Y:00 P:A5 SP:F9 CYC: 82 SL:10
15:25:15: E11E  20 25 E1  JSR $E125                      A:7B X:C5 Y:00 P:A5 SP:F9 CYC: 91 SL:10
15:25:15: E125  48        PHA                            A:7B X:C5 Y:00 P:A5 SP:F7 CYC:109 SL:10
15:25:15: E126  A9 00     LDA #$00                       A:7B X:C5 Y:00 P:A5 SP:F6 CYC:118 SL:10
15:25:15: E128  8D 06 20  STA $2006 = 00                 A:00 X:C5 Y:00 P:27 SP:F6 CYC:124 SL:10
15:25:15: E12B  8D 06 20  STA $2006 = 00                 A:00 X:C5 Y:00 P:27 SP:F6 CYC:136 SL:10
15:25:15: E12E  A9 10     LDA #$10                       A:00 X:C5 Y:00 P:27 SP:F6 CYC:148 SL:10
15:25:15: E130  8D 06 20  STA $2006 = 00                 A:10 X:C5 Y:00 P:25 SP:F6 CYC:154 SL:10
15:25:15: E133  8D 06 20  STA $2006 = 00                 A:10 X:C5 Y:00 P:25 SP:F6 CYC:166 SL:10
15:25:15: E136  A9 00     LDA #$00                       A:10 X:C5 Y:00 P:25 SP:F6 CYC:178 SL:10
15:25:15: E138  8D 06 20  STA $2006 = 00                 A:00 X:C5 Y:00 P:27 SP:F6 CYC:184 SL:10
15:25:15: E13B  8D 06 20  STA $2006 = 00                 A:00 X:C5 Y:00 P:27 SP:F6 CYC:196 SL:10
15:25:15: E13E  68        PLA                            A:00 X:C5 Y:00 P:27 SP:F6 CYC:208 SL:10
15:25:15: E13F  60        RTS                            A:7B X:C5 Y:00 P:25 SP:F7 CYC:220 SL:10
15:25:15: E121  CA        DEX                            A:7B X:C5 Y:00 P:25 SP:F9 CYC:238 SL:10
15:25:15: E122  D0 FA     BNE $E11E                      A:7B X:C4 Y:00 P:A5 SP:F9 CYC:244 SL:10
15:25:15: E11E  20 25 E1  JSR $E125                      A:7B X:C4 Y:00 P:A5 SP:F9 CYC:253 SL:10
15:25:15: E125  48        PHA                            A:7B X:C4 Y:00 P:A5 SP:F7 CYC:271 SL:10
15:25:15: E126  A9 00     LDA #$00                       A:7B X:C4 Y:00 P:A5 SP:F6 CYC:280 SL:10
15:25:15: E128  8D 06 20  STA $2006 = 00                 A:00 X:C4 Y:00 P:27 SP:F6 CYC:286 SL:10
15:25:15: E12B  8D 06 20  STA $2006 = 00                 A:00 X:C4 Y:00 P:27 SP:F6 CYC:298 SL:10
15:25:15: E12E  A9 10     LDA #$10                       A:00 X:C4 Y:00 P:27 SP:F6 CYC:310 SL:10
15:25:15: E130  8D 06 20  STA $2006 = 00                 A:10 X:C4 Y:00 P:25 SP:F6 CYC:316 SL:10
15:25:15: E133  8D 06 20  STA $2006 = 00                 A:10 X:C4 Y:00 P:25 SP:F6 CYC:328 SL:10
15:25:15: E136  A9 00     LDA #$00                       A:10 X:C4 Y:00 P:25 SP:F6 CYC:340 SL:10
15:25:15: E138  8D 06 20  STA $2006 = 00                 A:00 X:C4 Y:00 P:27 SP:F6 CYC:  5 SL:11
15:25:15: E13B  8D 06 20  STA $2006 = 00                 A:00 X:C4 Y:00 P:27 SP:F6 CYC: 17 SL:11
15:25:15: E13E  68        PLA                            A:00 X:C4 Y:00 P:27 SP:F6 CYC: 29 SL:11
15:25:15: E13F  60        RTS                            A:7B X:C4 Y:00 P:25 SP:F7 CYC: 41 SL:11
15:25:15: E121  CA        DEX                            A:7B X:C4 Y:00 P:25 SP:F9 CYC: 59 SL:11
15:25:15: E122  D0 FA     BNE $E11E                      A:7B X:C3 Y:00 P:A5 SP:F9 CYC: 65 SL:11
15:25:15: E11E  20 25 E1  JSR $E125                      A:7B X:C3 Y:00 P:A5 SP:F9 CYC: 74 SL:11
15:25:15: E125  48        PHA                            A:7B X:C3 Y:00 P:A5 SP:F7 CYC: 92 SL:11
15:25:15: E126  A9 00     LDA #$00                       A:7B X:C3 Y:00 P:A5 SP:F6 CYC:101 SL:11
15:25:15: E128  8D 06 20  STA $2006 = 00                 A:00 X:C3 Y:00 P:27 SP:F6 CYC:107 SL:11
15:25:15: E12B  8D 06 20  STA $2006 = 00                 A:00 X:C3 Y:00 P:27 SP:F6 CYC:119 SL:11
15:25:15: E12E  A9 10     LDA #$10                       A:00 X:C3 Y:00 P:27 SP:F6 CYC:131 SL:11
15:25:15: E130  8D 06 20  STA $2006 = 00                 A:10 X:C3 Y:00 P:25 SP:F6 CYC:137 SL:11
15:25:15: E133  8D 06 20  STA $2006 = 00                 A:10 X:C3 Y:00 P:25 SP:F6 CYC:149 SL:11
15:25:15: E136  A9 00     LDA #$00                       A:10 X:C3 Y:00 P:25 SP:F6 CYC:161 SL:11
15:25:15: E138  8D 06 20  STA $2006 = 00                 A:00 X:C3 Y:00 P:27 SP:F6 CYC:167 SL:11
15:25:15: E13B  8D 06 20  STA $2006 = 00                 A:00 X:C3 Y:00 P:27 SP:F6 CYC:179 SL:11
15:25:15: E13E  68        PLA                            A:00 X:C3 Y:00 P:27 SP:F6 CYC:191 SL:11
15:25:15: E13F  60        RTS                            A:7B X:C3 Y:00 P:25 SP:F7 CYC:203 SL:11
15:25:15: E121  CA        DEX                            A:7B X:C3 Y:00 P:25 SP:F9 CYC:221 SL:11
15:25:15: E122  D0 FA     BNE $E11E                      A:7B X:C2 Y:00 P:A5 SP:F9 CYC:227 SL:11
15:25:15: E11E  20 25 E1  JSR $E125                      A:7B X:C2 Y:00 P:A5 SP:F9 CYC:236 SL:11
15:25:15: E125  48        PHA                            A:7B X:C2 Y:00 P:A5 SP:F7 CYC:254 SL:11
15:25:15: E126  A9 00     LDA #$00                       A:7B X:C2 Y:00 P:A5 SP:F6 CYC:263 SL:11
15:25:15: E128  8D 06 20  STA $2006 = 00                 A:00 X:C2 Y:00 P:27 SP:F6 CYC:269 SL:11
15:25:15: E12B  8D 06 20  STA $2006 = 00                 A:00 X:C2 Y:00 P:27 SP:F6 CYC:281 SL:11
15:25:15: E12E  A9 10     LDA #$10                       A:00 X:C2 Y:00 P:27 SP:F6 CYC:293 SL:11
15:25:15: E130  8D 06 20  STA $2006 = 00                 A:10 X:C2 Y:00 P:25 SP:F6 CYC:299 SL:11
15:25:15: E133  8D 06 20  STA $2006 = 00                 A:10 X:C2 Y:00 P:25 SP:F6 CYC:311 SL:11
15:25:15: E136  A9 00     LDA #$00                       A:10 X:C2 Y:00 P:25 SP:F6 CYC:323 SL:11
15:25:15: E138  8D 06 20  STA $2006 = 00                 A:00 X:C2 Y:00 P:27 SP:F6 CYC:329 SL:11
15:25:15: E13B  8D 06 20  STA $2006 = 00                 A:00 X:C2 Y:00 P:27 SP:F6 CYC:  0 SL:12
15:25:15: E13E  68        PLA                            A:00 X:C2 Y:00 P:27 SP:F6 CYC: 12 SL:12
15:25:15: E13F  60        RTS                            A:7B X:C2 Y:00 P:25 SP:F7 CYC: 24 SL:12
15:25:15: E121  CA        DEX                            A:7B X:C2 Y:00 P:25 SP:F9 CYC: 42 SL:12
15:25:15: E122  D0 FA     BNE $E11E                      A:7B X:C1 Y:00 P:A5 SP:F9 CYC: 48 SL:12
15:25:15: E11E  20 25 E1  JSR $E125                      A:7B X:C1 Y:00 P:A5 SP:F9 CYC: 57 SL:12
15:25:15: E125  48        PHA                            A:7B X:C1 Y:00 P:A5 SP:F7 CYC: 75 SL:12
15:25:15: E126  A9 00     LDA #$00                       A:7B X:C1 Y:00 P:A5 SP:F6 CYC: 84 SL:12
15:25:15: E128  8D 06 20  STA $2006 = 00                 A:00 X:C1 Y:00 P:27 SP:F6 CYC: 90 SL:12
15:25:15: E12B  8D 06 20  STA $2006 = 00                 A:00 X:C1 Y:00 P:27 SP:F6 CYC:102 SL:12
15:25:15: E12E  A9 10     LDA #$10                       A:00 X:C1 Y:00 P:27 SP:F6 CYC:114 SL:12
15:25:15: E130  8D 06 20  STA $2006 = 00                 A:10 X:C1 Y:00 P:25 SP:F6 CYC:120 SL:12
15:25:15: E133  8D 06 20  STA $2006 = 00                 A:10 X:C1 Y:00 P:25 SP:F6 CYC:132 SL:12
15:25:15: E136  A9 00     LDA #$00                       A:10 X:C1 Y:00 P:25 SP:F6 CYC:144 SL:12
15:25:15: E138  8D 06 20  STA $2006 = 00                 A:00 X:C1 Y:00 P:27 SP:F6 CYC:150 SL:12
15:25:15: E13B  8D 06 20  STA $2006 = 00                 A:00 X:C1 Y:00 P:27 SP:F6 CYC:162 SL:12
15:25:15: E13E  68        PLA                            A:00 X:C1 Y:00 P:27 SP:F6 CYC:174 SL:12
15:25:15: E13F  60        RTS                            A:7B X:C1 Y:00 P:25 SP:F7 CYC:186 SL:12
15:25:15: E121  CA        DEX                            A:7B X:C1 Y:00 P:25 SP:F9 CYC:204 SL:12
15:25:15: E122  D0 FA     BNE $E11E                      A:7B X:C0 Y:00 P:A5 SP:F9 CYC:210 SL:12
15:25:15: E11E  20 25 E1  JSR $E125                      A:7B X:C0 Y:00 P:A5 SP:F9 CYC:219 SL:12
15:25:15: E125  48        PHA                            A:7B X:C0 Y:00 P:A5 SP:F7 CYC:237 SL:12
15:25:15: E126  A9 00     LDA #$00                       A:7B X:C0 Y:00 P:A5 SP:F6 CYC:246 SL:12
15:25:15: E128  8D 06 20  STA $2006 = 00                 A:00 X:C0 Y:00 P:27 SP:F6 CYC:252 SL:12
15:25:15: E12B  8D 06 20  STA $2006 = 00                 A:00 X:C0 Y:00 P:27 SP:F6 CYC:264 SL:12
15:25:15: E12E  A9 10     LDA #$10                       A:00 X:C0 Y:00 P:27 SP:F6 CYC:276 SL:12
15:25:15: E130  8D 06 20  STA $2006 = 00                 A:10 X:C0 Y:00 P:25 SP:F6 CYC:282 SL:12
15:25:15: E133  8D 06 20  STA $2006 = 00                 A:10 X:C0 Y:00 P:25 SP:F6 CYC:294 SL:12
15:25:15: E136  A9 00     LDA #$00                       A:10 X:C0 Y:00 P:25 SP:F6 CYC:306 SL:12
15:25:15: E138  8D 06 20  STA $2006 = 00                 A:00 X:C0 Y:00 P:27 SP:F6 CYC:312 SL:12
15:25:15: E13B  8D 06 20  STA $2006 = 00                 A:00 X:C0 Y:00 P:27 SP:F6 CYC:324 SL:12
15:25:15: E13E  68        PLA                            A:00 X:C0 Y:00 P:27 SP:F6 CYC:336 SL:12
15:25:15: E13F  60        RTS                            A:7B X:C0 Y:00 P:25 SP:F7 CYC:  7 SL:13
15:25:15: E121  CA        DEX                            A:7B X:C0 Y:00 P:25 SP:F9 CYC: 25 SL:13
15:25:15: E122  D0 FA     BNE $E11E                      A:7B X:BF Y:00 P:A5 SP:F9 CYC: 31 SL:13
15:25:15: E11E  20 25 E1  JSR $E125                      A:7B X:BF Y:00 P:A5 SP:F9 CYC: 40 SL:13
15:25:15: E125  48        PHA                            A:7B X:BF Y:00 P:A5 SP:F7 CYC: 58 SL:13
15:25:15: E126  A9 00     LDA #$00                       A:7B X:BF Y:00 P:A5 SP:F6 CYC: 67 SL:13
15:25:15: E128  8D 06 20  STA $2006 = 00                 A:00 X:BF Y:00 P:27 SP:F6 CYC: 73 SL:13
15:25:15: E12B  8D 06 20  STA $2006 = 00                 A:00 X:BF Y:00 P:27 SP:F6 CYC: 85 SL:13
15:25:15: E12E  A9 10     LDA #$10                       A:00 X:BF Y:00 P:27 SP:F6 CYC: 97 SL:13
15:25:15: E130  8D 06 20  STA $2006 = 00                 A:10 X:BF Y:00 P:25 SP:F6 CYC:103 SL:13
15:25:15: E133  8D 06 20  STA $2006 = 00                 A:10 X:BF Y:00 P:25 SP:F6 CYC:115 SL:13
15:25:15: E136  A9 00     LDA #$00                       A:10 X:BF Y:00 P:25 SP:F6 CYC:127 SL:13
15:25:15: E138  8D 06 20  STA $2006 = 00                 A:00 X:BF Y:00 P:27 SP:F6 CYC:133 SL:13
15:25:15: E13B  8D 06 20  STA $2006 = 00                 A:00 X:BF Y:00 P:27 SP:F6 CYC:145 SL:13
15:25:15: E13E  68        PLA                            A:00 X:BF Y:00 P:27 SP:F6 CYC:157 SL:13
15:25:15: E13F  60        RTS                            A:7B X:BF Y:00 P:25 SP:F7 CYC:169 SL:13
15:25:15: E121  CA        DEX                            A:7B X:BF Y:00 P:25 SP:F9 CYC:187 SL:13
15:25:15: E122  D0 FA     BNE $E11E                      A:7B X:BE Y:00 P:A5 SP:F9 CYC:193 SL:13
15:25:15: E11E  20 25 E1  JSR $E125                      A:7B X:BE Y:00 P:A5 SP:F9 CYC:202 SL:13
15:25:15: E125  48        PHA                            A:7B X:BE Y:00 P:A5 SP:F7 CYC:220 SL:13
15:25:15: E126  A9 00     LDA #$00                       A:7B X:BE Y:00 P:A5 SP:F6 CYC:229 SL:13
15:25:15: E128  8D 06 20  STA $2006 = 00                 A:00 X:BE Y:00 P:27 SP:F6 CYC:235 SL:13
15:25:15: E12B  8D 06 20  STA $2006 = 00                 A:00 X:BE Y:00 P:27 SP:F6 CYC:247 SL:13
15:25:15: E12E  A9 10     LDA #$10                       A:00 X:BE Y:00 P:27 SP:F6 CYC:259 SL:13
15:25:15: E130  8D 06 20  STA $2006 = 00                 A:10 X:BE Y:00 P:25 SP:F6 CYC:265 SL:13
15:25:15: E133  8D 06 20  STA $2006 = 00                 A:10 X:BE Y:00 P:25 SP:F6 CYC:277 SL:13
15:25:15: E136  A9 00     LDA #$00                       A:10 X:BE Y:00 P:25 SP:F6 CYC:289 SL:13
15:25:15: E138  8D 06 20  STA $2006 = 00                 A:00 X:BE Y:00 P:27 SP:F6 CYC:295 SL:13
15:25:15: E13B  8D 06 20  STA $2006 = 00                 A:00 X:BE Y:00 P:27 SP:F6 CYC:307 SL:13
15:25:15: E13E  68        PLA                            A:00 X:BE Y:00 P:27 SP:F6 CYC:319 SL:13
15:25:15: E13F  60        RTS                            A:7B X:BE Y:00 P:25 SP:F7 CYC:331 SL:13
15:25:15: E121  CA        DEX                            A:7B X:BE Y:00 P:25 SP:F9 CYC:  8 SL:14
15:25:15: E122  D0 FA     BNE $E11E                      A:7B X:BD Y:00 P:A5 SP:F9 CYC: 14 SL:14
15:25:15: E11E  20 25 E1  JSR $E125                      A:7B X:BD Y:00 P:A5 SP:F9 CYC: 23 SL:14
15:25:15: E125  48        PHA                            A:7B X:BD Y:00 P:A5 SP:F7 CYC: 41 SL:14
15:25:15: E126  A9 00     LDA #$00                       A:7B X:BD Y:00 P:A5 SP:F6 CYC: 50 SL:14
15:25:15: E128  8D 06 20  STA $2006 = 00                 A:00 X:BD Y:00 P:27 SP:F6 CYC: 56 SL:14
15:25:15: E12B  8D 06 20  STA $2006 = 00                 A:00 X:BD Y:00 P:27 SP:F6 CYC: 68 SL:14
15:25:15: E12E  A9 10     LDA #$10                       A:00 X:BD Y:00 P:27 SP:F6 CYC: 80 SL:14
15:25:15: E130  8D 06 20  STA $2006 = 00                 A:10 X:BD Y:00 P:25 SP:F6 CYC: 86 SL:14
15:25:15: E133  8D 06 20  STA $2006 = 00                 A:10 X:BD Y:00 P:25 SP:F6 CYC: 98 SL:14
15:25:15: E136  A9 00     LDA #$00                       A:10 X:BD Y:00 P:25 SP:F6 CYC:110 SL:14
15:25:15: E138  8D 06 20  STA $2006 = 00                 A:00 X:BD Y:00 P:27 SP:F6 CYC:116 SL:14
15:25:15: E13B  8D 06 20  STA $2006 = 00                 A:00 X:BD Y:00 P:27 SP:F6 CYC:128 SL:14
15:25:15: E13E  68        PLA                            A:00 X:BD Y:00 P:27 SP:F6 CYC:140 SL:14
15:25:15: E13F  60        RTS                            A:7B X:BD Y:00 P:25 SP:F7 CYC:152 SL:14
15:25:15: E121  CA        DEX                            A:7B X:BD Y:00 P:25 SP:F9 CYC:170 SL:14
15:25:15: E122  D0 FA     BNE $E11E                      A:7B X:BC Y:00 P:A5 SP:F9 CYC:176 SL:14
15:25:15: E11E  20 25 E1  JSR $E125                      A:7B X:BC Y:00 P:A5 SP:F9 CYC:185 SL:14
15:25:15: E125  48        PHA                            A:7B X:BC Y:00 P:A5 SP:F7 CYC:203 SL:14
15:25:15: E126  A9 00     LDA #$00                       A:7B X:BC Y:00 P:A5 SP:F6 CYC:212 SL:14
15:25:15: E128  8D 06 20  STA $2006 = 00                 A:00 X:BC Y:00 P:27 SP:F6 CYC:218 SL:14
15:25:15: E12B  8D 06 20  STA $2006 = 00                 A:00 X:BC Y:00 P:27 SP:F6 CYC:230 SL:14
15:25:15: E12E  A9 10     LDA #$10                       A:00 X:BC Y:00 P:27 SP:F6 CYC:242 SL:14
15:25:15: E130  8D 06 20  STA $2006 = 00                 A:10 X:BC Y:00 P:25 SP:F6 CYC:248 SL:14
15:25:15: E133  8D 06 20  STA $2006 = 00                 A:10 X:BC Y:00 P:25 SP:F6 CYC:260 SL:14
15:25:15: E136  A9 00     LDA #$00                       A:10 X:BC Y:00 P:25 SP:F6 CYC:272 SL:14
15:25:15: E138  8D 06 20  STA $2006 = 00                 A:00 X:BC Y:00 P:27 SP:F6 CYC:278 SL:14
15:25:15: E13B  8D 06 20  STA $2006 = 00                 A:00 X:BC Y:00 P:27 SP:F6 CYC:290 SL:14
15:25:15: E13E  68        PLA                            A:00 X:BC Y:00 P:27 SP:F6 CYC:302 SL:14
15:25:15: E13F  60        RTS                            A:7B X:BC Y:00 P:25 SP:F7 CYC:314 SL:14
15:25:15: E121  CA        DEX                            A:7B X:BC Y:00 P:25 SP:F9 CYC:332 SL:14
15:25:15: E122  D0 FA     BNE $E11E                      A:7B X:BB Y:00 P:A5 SP:F9 CYC:338 SL:14
15:25:15: E11E  20 25 E1  JSR $E125                      A:7B X:BB Y:00 P:A5 SP:F9 CYC:  6 SL:15
15:25:15: E125  48        PHA                            A:7B X:BB Y:00 P:A5 SP:F7 CYC: 24 SL:15
15:25:15: E126  A9 00     LDA #$00                       A:7B X:BB Y:00 P:A5 SP:F6 CYC: 33 SL:15
15:25:15: E128  8D 06 20  STA $2006 = 00                 A:00 X:BB Y:00 P:27 SP:F6 CYC: 39 SL:15
15:25:15: E12B  8D 06 20  STA $2006 = 00                 A:00 X:BB Y:00 P:27 SP:F6 CYC: 51 SL:15
15:25:15: E12E  A9 10     LDA #$10                       A:00 X:BB Y:00 P:27 SP:F6 CYC: 63 SL:15
15:25:15: E130  8D 06 20  STA $2006 = 00                 A:10 X:BB Y:00 P:25 SP:F6 CYC: 69 SL:15
15:25:15: E133  8D 06 20  STA $2006 = 00                 A:10 X:BB Y:00 P:25 SP:F6 CYC: 81 SL:15
15:25:15: E136  A9 00     LDA #$00                       A:10 X:BB Y:00 P:25 SP:F6 CYC: 93 SL:15
15:25:15: E138  8D 06 20  STA $2006 = 00                 A:00 X:BB Y:00 P:27 SP:F6 CYC: 99 SL:15
15:25:15: E13B  8D 06 20  STA $2006 = 00                 A:00 X:BB Y:00 P:27 SP:F6 CYC:111 SL:15
15:25:15: E13E  68        PLA                            A:00 X:BB Y:00 P:27 SP:F6 CYC:123 SL:15
15:25:15: E13F  60        RTS                            A:7B X:BB Y:00 P:25 SP:F7 CYC:135 SL:15
15:25:15: E121  CA        DEX                            A:7B X:BB Y:00 P:25 SP:F9 CYC:153 SL:15
15:25:15: E122  D0 FA     BNE $E11E                      A:7B X:BA Y:00 P:A5 SP:F9 CYC:159 SL:15
15:25:15: E11E  20 25 E1  JSR $E125                      A:7B X:BA Y:00 P:A5 SP:F9 CYC:168 SL:15
15:25:15: E125  48        PHA                            A:7B X:BA Y:00 P:A5 SP:F7 CYC:186 SL:15
15:25:15: E126  A9 00     LDA #$00                       A:7B X:BA Y:00 P:A5 SP:F6 CYC:195 SL:15
15:25:15: E128  8D 06 20  STA $2006 = 00                 A:00 X:BA Y:00 P:27 SP:F6 CYC:201 SL:15
15:25:15: E12B  8D 06 20  STA $2006 = 00                 A:00 X:BA Y:00 P:27 SP:F6 CYC:213 SL:15
15:25:15: E12E  A9 10     LDA #$10                       A:00 X:BA Y:00 P:27 SP:F6 CYC:225 SL:15
15:25:15: E130  8D 06 20  STA $2006 = 00                 A:10 X:BA Y:00 P:25 SP:F6 CYC:231 SL:15
15:25:15: E133  8D 06 20  STA $2006 = 00                 A:10 X:BA Y:00 P:25 SP:F6 CYC:243 SL:15
15:25:15: E136  A9 00     LDA #$00                       A:10 X:BA Y:00 P:25 SP:F6 CYC:255 SL:15
15:25:15: E138  8D 06 20  STA $2006 = 00                 A:00 X:BA Y:00 P:27 SP:F6 CYC:261 SL:15
15:25:15: E13B  8D 06 20  STA $2006 = 00                 A:00 X:BA Y:00 P:27 SP:F6 CYC:273 SL:15
15:25:15: E13E  68        PLA                            A:00 X:BA Y:00 P:27 SP:F6 CYC:285 SL:15
15:25:15: E13F  60        RTS                            A:7B X:BA Y:00 P:25 SP:F7 CYC:297 SL:15
15:25:15: E121  CA        DEX                            A:7B X:BA Y:00 P:25 SP:F9 CYC:315 SL:15
15:25:15: E122  D0 FA     BNE $E11E                      A:7B X:B9 Y:00 P:A5 SP:F9 CYC:321 SL:15
15:25:15: E11E  20 25 E1  JSR $E125                      A:7B X:B9 Y:00 P:A5 SP:F9 CYC:330 SL:15
15:25:15: E125  48        PHA                            A:7B X:B9 Y:00 P:A5 SP:F7 CYC:  7 SL:16
15:25:15: E126  A9 00     LDA #$00                       A:7B X:B9 Y:00 P:A5 SP:F6 CYC: 16 SL:16
15:25:15: E128  8D 06 20  STA $2006 = 00                 A:00 X:B9 Y:00 P:27 SP:F6 CYC: 22 SL:16
15:25:15: E12B  8D 06 20  STA $2006 = 00                 A:00 X:B9 Y:00 P:27 SP:F6 CYC: 34 SL:16
15:25:15: E12E  A9 10     LDA #$10                       A:00 X:B9 Y:00 P:27 SP:F6 CYC: 46 SL:16
15:25:15: E130  8D 06 20  STA $2006 = 00                 A:10 X:B9 Y:00 P:25 SP:F6 CYC: 52 SL:16
15:25:15: E133  8D 06 20  STA $2006 = 00                 A:10 X:B9 Y:00 P:25 SP:F6 CYC: 64 SL:16
15:25:15: E136  A9 00     LDA #$00                       A:10 X:B9 Y:00 P:25 SP:F6 CYC: 76 SL:16
15:25:15: E138  8D 06 20  STA $2006 = 00                 A:00 X:B9 Y:00 P:27 SP:F6 CYC: 82 SL:16
15:25:15: E13B  8D 06 20  STA $2006 = 00                 A:00 X:B9 Y:00 P:27 SP:F6 CYC: 94 SL:16
15:25:15: E13E  68        PLA                            A:00 X:B9 Y:00 P:27 SP:F6 CYC:106 SL:16
15:25:15: E13F  60        RTS                            A:7B X:B9 Y:00 P:25 SP:F7 CYC:118 SL:16
15:25:15: E121  CA        DEX                            A:7B X:B9 Y:00 P:25 SP:F9 CYC:136 SL:16
15:25:15: E122  D0 FA     BNE $E11E                      A:7B X:B8 Y:00 P:A5 SP:F9 CYC:142 SL:16
15:25:15: E11E  20 25 E1  JSR $E125                      A:7B X:B8 Y:00 P:A5 SP:F9 CYC:151 SL:16
15:25:15: E125  48        PHA                            A:7B X:B8 Y:00 P:A5 SP:F7 CYC:169 SL:16
15:25:15: E126  A9 00     LDA #$00                       A:7B X:B8 Y:00 P:A5 SP:F6 CYC:178 SL:16
15:25:15: E128  8D 06 20  STA $2006 = 00                 A:00 X:B8 Y:00 P:27 SP:F6 CYC:184 SL:16
15:25:15: E12B  8D 06 20  STA $2006 = 00                 A:00 X:B8 Y:00 P:27 SP:F6 CYC:196 SL:16
15:25:15: E12E  A9 10     LDA #$10                       A:00 X:B8 Y:00 P:27 SP:F6 CYC:208 SL:16
15:25:15: E130  8D 06 20  STA $2006 = 00                 A:10 X:B8 Y:00 P:25 SP:F6 CYC:214 SL:16
15:25:15: E133  8D 06 20  STA $2006 = 00                 A:10 X:B8 Y:00 P:25 SP:F6 CYC:226 SL:16
15:25:15: E136  A9 00     LDA #$00                       A:10 X:B8 Y:00 P:25 SP:F6 CYC:238 SL:16
15:25:15: E138  8D 06 20  STA $2006 = 00                 A:00 X:B8 Y:00 P:27 SP:F6 CYC:244 SL:16
15:25:15: E13B  8D 06 20  STA $2006 = 00                 A:00 X:B8 Y:00 P:27 SP:F6 CYC:256 SL:16
15:25:15: E13E  68        PLA                            A:00 X:B8 Y:00 P:27 SP:F6 CYC:268 SL:16
15:25:15: E13F  60        RTS                            A:7B X:B8 Y:00 P:25 SP:F7 CYC:280 SL:16
15:25:15: E121  CA        DEX                            A:7B X:B8 Y:00 P:25 SP:F9 CYC:298 SL:16
15:25:15: E122  D0 FA     BNE $E11E                      A:7B X:B7 Y:00 P:A5 SP:F9 CYC:304 SL:16
15:25:15: E11E  20 25 E1  JSR $E125                      A:7B X:B7 Y:00 P:A5 SP:F9 CYC:313 SL:16
15:25:15: E125  48        PHA                            A:7B X:B7 Y:00 P:A5 SP:F7 CYC:331 SL:16
15:25:15: E126  A9 00     LDA #$00                       A:7B X:B7 Y:00 P:A5 SP:F6 CYC:340 SL:16
15:25:15: E128  8D 06 20  STA $2006 = 00                 A:00 X:B7 Y:00 P:27 SP:F6 CYC:  5 SL:17
15:25:15: E12B  8D 06 20  STA $2006 = 00                 A:00 X:B7 Y:00 P:27 SP:F6 CYC: 17 SL:17
15:25:15: E12E  A9 10     LDA #$10                       A:00 X:B7 Y:00 P:27 SP:F6 CYC: 29 SL:17
15:25:15: E130  8D 06 20  STA $2006 = 00                 A:10 X:B7 Y:00 P:25 SP:F6 CYC: 35 SL:17
15:25:15: E133  8D 06 20  STA $2006 = 00                 A:10 X:B7 Y:00 P:25 SP:F6 CYC: 47 SL:17
15:25:15: E136  A9 00     LDA #$00                       A:10 X:B7 Y:00 P:25 SP:F6 CYC: 59 SL:17
15:25:15: E138  8D 06 20  STA $2006 = 00                 A:00 X:B7 Y:00 P:27 SP:F6 CYC: 65 SL:17
15:25:15: E13B  8D 06 20  STA $2006 = 00                 A:00 X:B7 Y:00 P:27 SP:F6 CYC: 77 SL:17
15:25:15: E13E  68        PLA                            A:00 X:B7 Y:00 P:27 SP:F6 CYC: 89 SL:17
15:25:15: E13F  60        RTS                            A:7B X:B7 Y:00 P:25 SP:F7 CYC:101 SL:17
15:25:15: E121  CA        DEX                            A:7B X:B7 Y:00 P:25 SP:F9 CYC:119 SL:17
15:25:15: E122  D0 FA     BNE $E11E                      A:7B X:B6 Y:00 P:A5 SP:F9 CYC:125 SL:17
15:25:15: E11E  20 25 E1  JSR $E125                      A:7B X:B6 Y:00 P:A5 SP:F9 CYC:134 SL:17
15:25:15: E125  48        PHA                            A:7B X:B6 Y:00 P:A5 SP:F7 CYC:152 SL:17
15:25:15: E126  A9 00     LDA #$00                       A:7B X:B6 Y:00 P:A5 SP:F6 CYC:161 SL:17
15:25:15: E128  8D 06 20  STA $2006 = 00                 A:00 X:B6 Y:00 P:27 SP:F6 CYC:167 SL:17
15:25:15: E12B  8D 06 20  STA $2006 = 00                 A:00 X:B6 Y:00 P:27 SP:F6 CYC:179 SL:17
15:25:15: E12E  A9 10     LDA #$10                       A:00 X:B6 Y:00 P:27 SP:F6 CYC:191 SL:17
15:25:15: E130  8D 06 20  STA $2006 = 00                 A:10 X:B6 Y:00 P:25 SP:F6 CYC:197 SL:17
15:25:15: E133  8D 06 20  STA $2006 = 00                 A:10 X:B6 Y:00 P:25 SP:F6 CYC:209 SL:17
15:25:15: E136  A9 00     LDA #$00                       A:10 X:B6 Y:00 P:25 SP:F6 CYC:221 SL:17
15:25:15: E138  8D 06 20  STA $2006 = 00                 A:00 X:B6 Y:00 P:27 SP:F6 CYC:227 SL:17
15:25:15: E13B  8D 06 20  STA $2006 = 00                 A:00 X:B6 Y:00 P:27 SP:F6 CYC:239 SL:17
15:25:15: E13E  68        PLA                            A:00 X:B6 Y:00 P:27 SP:F6 CYC:251 SL:17
15:25:15: E13F  60        RTS                            A:7B X:B6 Y:00 P:25 SP:F7 CYC:263 SL:17
15:25:15: E121  CA        DEX                            A:7B X:B6 Y:00 P:25 SP:F9 CYC:281 SL:17
15:25:15: E122  D0 FA     BNE $E11E                      A:7B X:B5 Y:00 P:A5 SP:F9 CYC:287 SL:17
15:25:15: E11E  20 25 E1  JSR $E125                      A:7B X:B5 Y:00 P:A5 SP:F9 CYC:296 SL:17
15:25:15: E125  48        PHA                            A:7B X:B5 Y:00 P:A5 SP:F7 CYC:314 SL:17
15:25:15: E126  A9 00     LDA #$00                       A:7B X:B5 Y:00 P:A5 SP:F6 CYC:323 SL:17
15:25:15: E128  8D 06 20  STA $2006 = 00                 A:00 X:B5 Y:00 P:27 SP:F6 CYC:329 SL:17
15:25:15: E12B  8D 06 20  STA $2006 = 00                 A:00 X:B5 Y:00 P:27 SP:F6 CYC:  0 SL:18
15:25:15: E12E  A9 10     LDA #$10                       A:00 X:B5 Y:00 P:27 SP:F6 CYC: 12 SL:18
15:25:15: E130  8D 06 20  STA $2006 = 00                 A:10 X:B5 Y:00 P:25 SP:F6 CYC: 18 SL:18
15:25:15: E133  8D 06 20  STA $2006 = 00                 A:10 X:B5 Y:00 P:25 SP:F6 CYC: 30 SL:18
15:25:15: E136  A9 00     LDA #$00                       A:10 X:B5 Y:00 P:25 SP:F6 CYC: 42 SL:18
15:25:15: E138  8D 06 20  STA $2006 = 00                 A:00 X:B5 Y:00 P:27 SP:F6 CYC: 48 SL:18
15:25:15: E13B  8D 06 20  STA $2006 = 00                 A:00 X:B5 Y:00 P:27 SP:F6 CYC: 60 SL:18
15:25:15: E13E  68        PLA                            A:00 X:B5 Y:00 P:27 SP:F6 CYC: 72 SL:18
15:25:15: E13F  60        RTS                            A:7B X:B5 Y:00 P:25 SP:F7 CYC: 84 SL:18
15:25:15: E121  CA        DEX                            A:7B X:B5 Y:00 P:25 SP:F9 CYC:102 SL:18
15:25:15: E122  D0 FA     BNE $E11E                      A:7B X:B4 Y:00 P:A5 SP:F9 CYC:108 SL:18
15:25:15: E11E  20 25 E1  JSR $E125                      A:7B X:B4 Y:00 P:A5 SP:F9 CYC:117 SL:18
15:25:15: E125  48        PHA                            A:7B X:B4 Y:00 P:A5 SP:F7 CYC:135 SL:18
15:25:15: E126  A9 00     LDA #$00                       A:7B X:B4 Y:00 P:A5 SP:F6 CYC:144 SL:18
15:25:15: E128  8D 06 20  STA $2006 = 00                 A:00 X:B4 Y:00 P:27 SP:F6 CYC:150 SL:18
15:25:15: E12B  8D 06 20  STA $2006 = 00                 A:00 X:B4 Y:00 P:27 SP:F6 CYC:162 SL:18
15:25:15: E12E  A9 10     LDA #$10                       A:00 X:B4 Y:00 P:27 SP:F6 CYC:174 SL:18
15:25:15: E130  8D 06 20  STA $2006 = 00                 A:10 X:B4 Y:00 P:25 SP:F6 CYC:180 SL:18
15:25:15: E133  8D 06 20  STA $2006 = 00                 A:10 X:B4 Y:00 P:25 SP:F6 CYC:192 SL:18
15:25:15: E136  A9 00     LDA #$00                       A:10 X:B4 Y:00 P:25 SP:F6 CYC:204 SL:18
15:25:15: E138  8D 06 20  STA $2006 = 00                 A:00 X:B4 Y:00 P:27 SP:F6 CYC:210 SL:18
15:25:15: E13B  8D 06 20  STA $2006 = 00                 A:00 X:B4 Y:00 P:27 SP:F6 CYC:222 SL:18
15:25:15: E13E  68        PLA                            A:00 X:B4 Y:00 P:27 SP:F6 CYC:234 SL:18
15:25:15: E13F  60        RTS                            A:7B X:B4 Y:00 P:25 SP:F7 CYC:246 SL:18
15:25:15: E121  CA        DEX                            A:7B X:B4 Y:00 P:25 SP:F9 CYC:264 SL:18
15:25:15: E122  D0 FA     BNE $E11E                      A:7B X:B3 Y:00 P:A5 SP:F9 CYC:270 SL:18
15:25:15: E11E  20 25 E1  JSR $E125                      A:7B X:B3 Y:00 P:A5 SP:F9 CYC:279 SL:18
15:25:15: E125  48        PHA                            A:7B X:B3 Y:00 P:A5 SP:F7 CYC:297 SL:18
15:25:15: E126  A9 00     LDA #$00                       A:7B X:B3 Y:00 P:A5 SP:F6 CYC:306 SL:18
15:25:15: E128  8D 06 20  STA $2006 = 00                 A:00 X:B3 Y:00 P:27 SP:F6 CYC:312 SL:18
15:25:15: E12B  8D 06 20  STA $2006 = 00                 A:00 X:B3 Y:00 P:27 SP:F6 CYC:324 SL:18
15:25:15: E12E  A9 10     LDA #$10                       A:00 X:B3 Y:00 P:27 SP:F6 CYC:336 SL:18
15:25:15: E130  8D 06 20  STA $2006 = 00                 A:10 X:B3 Y:00 P:25 SP:F6 CYC:  1 SL:19
15:25:15: E133  8D 06 20  STA $2006 = 00                 A:10 X:B3 Y:00 P:25 SP:F6 CYC: 13 SL:19
15:25:15: E136  A9 00     LDA #$00                       A:10 X:B3 Y:00 P:25 SP:F6 CYC: 25 SL:19
15:25:15: E138  8D 06 20  STA $2006 = 00                 A:00 X:B3 Y:00 P:27 SP:F6 CYC: 31 SL:19
15:25:15: E13B  8D 06 20  STA $2006 = 00                 A:00 X:B3 Y:00 P:27 SP:F6 CYC: 43 SL:19
15:25:15: E13E  68        PLA                            A:00 X:B3 Y:00 P:27 SP:F6 CYC: 55 SL:19
15:25:15: E13F  60        RTS                            A:7B X:B3 Y:00 P:25 SP:F7 CYC: 67 SL:19
15:25:15: E121  CA        DEX                            A:7B X:B3 Y:00 P:25 SP:F9 CYC: 85 SL:19
15:25:15: E122  D0 FA     BNE $E11E                      A:7B X:B2 Y:00 P:A5 SP:F9 CYC: 91 SL:19
15:25:15: E11E  20 25 E1  JSR $E125                      A:7B X:B2 Y:00 P:A5 SP:F9 CYC:100 SL:19
15:25:15: E125  48        PHA                            A:7B X:B2 Y:00 P:A5 SP:F7 CYC:118 SL:19
15:25:15: E126  A9 00     LDA #$00                       A:7B X:B2 Y:00 P:A5 SP:F6 CYC:127 SL:19
15:25:15: E128  8D 06 20  STA $2006 = 00                 A:00 X:B2 Y:00 P:27 SP:F6 CYC:133 SL:19
15:25:15: E12B  8D 06 20  STA $2006 = 00                 A:00 X:B2 Y:00 P:27 SP:F6 CYC:145 SL:19
15:25:15: E12E  A9 10     LDA #$10                       A:00 X:B2 Y:00 P:27 SP:F6 CYC:157 SL:19
15:25:15: E130  8D 06 20  STA $2006 = 00                 A:10 X:B2 Y:00 P:25 SP:F6 CYC:163 SL:19
15:25:15: E133  8D 06 20  STA $2006 = 00                 A:10 X:B2 Y:00 P:25 SP:F6 CYC:175 SL:19
15:25:15: E136  A9 00     LDA #$00                       A:10 X:B2 Y:00 P:25 SP:F6 CYC:187 SL:19
15:25:15: E138  8D 06 20  STA $2006 = 00                 A:00 X:B2 Y:00 P:27 SP:F6 CYC:193 SL:19
15:25:15: E13B  8D 06 20  STA $2006 = 00                 A:00 X:B2 Y:00 P:27 SP:F6 CYC:205 SL:19
15:25:15: E13E  68        PLA                            A:00 X:B2 Y:00 P:27 SP:F6 CYC:217 SL:19
15:25:15: E13F  60        RTS                            A:7B X:B2 Y:00 P:25 SP:F7 CYC:229 SL:19
15:25:15: E121  CA        DEX                            A:7B X:B2 Y:00 P:25 SP:F9 CYC:247 SL:19
15:25:15: E122  D0 FA     BNE $E11E                      A:7B X:B1 Y:00 P:A5 SP:F9 CYC:253 SL:19
15:25:15: E11E  20 25 E1  JSR $E125                      A:7B X:B1 Y:00 P:A5 SP:F9 CYC:262 SL:19
15:25:15: E125  48        PHA                            A:7B X:B1 Y:00 P:A5 SP:F7 CYC:280 SL:19
15:25:15: E126  A9 00     LDA #$00                       A:7B X:B1 Y:00 P:A5 SP:F6 CYC:289 SL:19
15:25:15: E128  8D 06 20  STA $2006 = 00                 A:00 X:B1 Y:00 P:27 SP:F6 CYC:295 SL:19
15:25:15: E12B  8D 06 20  STA $2006 = 00                 A:00 X:B1 Y:00 P:27 SP:F6 CYC:307 SL:19
15:25:15: E12E  A9 10     LDA #$10                       A:00 X:B1 Y:00 P:27 SP:F6 CYC:319 SL:19
15:25:15: E130  8D 06 20  STA $2006 = 00                 A:10 X:B1 Y:00 P:25 SP:F6 CYC:325 SL:19
15:25:15: E133  8D 06 20  STA $2006 = 00                 A:10 X:B1 Y:00 P:25 SP:F6 CYC:337 SL:19
15:25:15: E136  A9 00     LDA #$00                       A:10 X:B1 Y:00 P:25 SP:F6 CYC:  8 SL:20
15:25:15: E138  8D 06 20  STA $2006 = 00                 A:00 X:B1 Y:00 P:27 SP:F6 CYC: 14 SL:20
15:25:15: E13B  8D 06 20  STA $2006 = 00                 A:00 X:B1 Y:00 P:27 SP:F6 CYC: 26 SL:20
15:25:15: E13E  68        PLA                            A:00 X:B1 Y:00 P:27 SP:F6 CYC: 38 SL:20
15:25:15: E13F  60        RTS                            A:7B X:B1 Y:00 P:25 SP:F7 CYC: 50 SL:20
15:25:15: E121  CA        DEX                            A:7B X:B1 Y:00 P:25 SP:F9 CYC: 68 SL:20
15:25:15: E122  D0 FA     BNE $E11E                      A:7B X:B0 Y:00 P:A5 SP:F9 CYC: 74 SL:20
15:25:15: E11E  20 25 E1  JSR $E125                      A:7B X:B0 Y:00 P:A5 SP:F9 CYC: 83 SL:20
15:25:15: E125  48        PHA                            A:7B X:B0 Y:00 P:A5 SP:F7 CYC:101 SL:20
15:25:15: E126  A9 00     LDA #$00                       A:7B X:B0 Y:00 P:A5 SP:F6 CYC:110 SL:20
15:25:15: E128  8D 06 20  STA $2006 = 00                 A:00 X:B0 Y:00 P:27 SP:F6 CYC:116 SL:20
15:25:15: E12B  8D 06 20  STA $2006 = 00                 A:00 X:B0 Y:00 P:27 SP:F6 CYC:128 SL:20
15:25:15: E12E  A9 10     LDA #$10                       A:00 X:B0 Y:00 P:27 SP:F6 CYC:140 SL:20
15:25:15: E130  8D 06 20  STA $2006 = 00                 A:10 X:B0 Y:00 P:25 SP:F6 CYC:146 SL:20
15:25:15: E133  8D 06 20  STA $2006 = 00                 A:10 X:B0 Y:00 P:25 SP:F6 CYC:158 SL:20
15:25:15: E136  A9 00     LDA #$00                       A:10 X:B0 Y:00 P:25 SP:F6 CYC:170 SL:20
15:25:15: E138  8D 06 20  STA $2006 = 00                 A:00 X:B0 Y:00 P:27 SP:F6 CYC:176 SL:20
15:25:15: E13B  8D 06 20  STA $2006 = 00                 A:00 X:B0 Y:00 P:27 SP:F6 CYC:188 SL:20
15:25:15: E13E  68        PLA                            A:00 X:B0 Y:00 P:27 SP:F6 CYC:200 SL:20
15:25:15: E13F  60        RTS                            A:7B X:B0 Y:00 P:25 SP:F7 CYC:212 SL:20
15:25:15: E121  CA        DEX                            A:7B X:B0 Y:00 P:25 SP:F9 CYC:230 SL:20
15:25:15: E122  D0 FA     BNE $E11E                      A:7B X:AF Y:00 P:A5 SP:F9 CYC:236 SL:20
15:25:15: E11E  20 25 E1  JSR $E125                      A:7B X:AF Y:00 P:A5 SP:F9 CYC:245 SL:20
15:25:15: E125  48        PHA                            A:7B X:AF Y:00 P:A5 SP:F7 CYC:263 SL:20
15:25:15: E126  A9 00     LDA #$00                       A:7B X:AF Y:00 P:A5 SP:F6 CYC:272 SL:20
15:25:15: E128  8D 06 20  STA $2006 = 00                 A:00 X:AF Y:00 P:27 SP:F6 CYC:278 SL:20
15:25:15: E12B  8D 06 20  STA $2006 = 00                 A:00 X:AF Y:00 P:27 SP:F6 CYC:290 SL:20
15:25:15: E12E  A9 10     LDA #$10                       A:00 X:AF Y:00 P:27 SP:F6 CYC:302 SL:20
15:25:15: E130  8D 06 20  STA $2006 = 00                 A:10 X:AF Y:00 P:25 SP:F6 CYC:308 SL:20
15:25:15: E133  8D 06 20  STA $2006 = 00                 A:10 X:AF Y:00 P:25 SP:F6 CYC:320 SL:20
15:25:15: E136  A9 00     LDA #$00                       A:10 X:AF Y:00 P:25 SP:F6 CYC:332 SL:20
15:25:15: E138  8D 06 20  STA $2006 = 00                 A:00 X:AF Y:00 P:27 SP:F6 CYC:338 SL:20
15:25:15: E13B  8D 06 20  STA $2006 = 00                 A:00 X:AF Y:00 P:27 SP:F6 CYC:  9 SL:21
15:25:15: E13E  68        PLA                            A:00 X:AF Y:00 P:27 SP:F6 CYC: 21 SL:21
15:25:15: E13F  60        RTS                            A:7B X:AF Y:00 P:25 SP:F7 CYC: 33 SL:21
15:25:15: E121  CA        DEX                            A:7B X:AF Y:00 P:25 SP:F9 CYC: 51 SL:21
15:25:15: E122  D0 FA     BNE $E11E                      A:7B X:AE Y:00 P:A5 SP:F9 CYC: 57 SL:21
15:25:15: E11E  20 25 E1  JSR $E125                      A:7B X:AE Y:00 P:A5 SP:F9 CYC: 66 SL:21
15:25:15: E125  48        PHA                            A:7B X:AE Y:00 P:A5 SP:F7 CYC: 84 SL:21
15:25:15: E126  A9 00     LDA #$00                       A:7B X:AE Y:00 P:A5 SP:F6 CYC: 93 SL:21
15:25:15: E128  8D 06 20  STA $2006 = 00                 A:00 X:AE Y:00 P:27 SP:F6 CYC: 99 SL:21
15:25:15: E12B  8D 06 20  STA $2006 = 00                 A:00 X:AE Y:00 P:27 SP:F6 CYC:111 SL:21
15:25:15: E12E  A9 10     LDA #$10                       A:00 X:AE Y:00 P:27 SP:F6 CYC:123 SL:21
15:25:15: E130  8D 06 20  STA $2006 = 00                 A:10 X:AE Y:00 P:25 SP:F6 CYC:129 SL:21
15:25:15: E133  8D 06 20  STA $2006 = 00                 A:10 X:AE Y:00 P:25 SP:F6 CYC:141 SL:21
15:25:15: E136  A9 00     LDA #$00                       A:10 X:AE Y:00 P:25 SP:F6 CYC:153 SL:21
15:25:15: E138  8D 06 20  STA $2006 = 00                 A:00 X:AE Y:00 P:27 SP:F6 CYC:159 SL:21
15:25:15: E13B  8D 06 20  STA $2006 = 00                 A:00 X:AE Y:00 P:27 SP:F6 CYC:171 SL:21
15:25:15: E13E  68        PLA                            A:00 X:AE Y:00 P:27 SP:F6 CYC:183 SL:21
15:25:15: E13F  60        RTS                            A:7B X:AE Y:00 P:25 SP:F7 CYC:195 SL:21
15:25:15: E121  CA        DEX                            A:7B X:AE Y:00 P:25 SP:F9 CYC:213 SL:21
15:25:15: E122  D0 FA     BNE $E11E                      A:7B X:AD Y:00 P:A5 SP:F9 CYC:219 SL:21
15:25:15: E11E  20 25 E1  JSR $E125                      A:7B X:AD Y:00 P:A5 SP:F9 CYC:228 SL:21
15:25:15: E125  48        PHA                            A:7B X:AD Y:00 P:A5 SP:F7 CYC:246 SL:21
15:25:15: E126  A9 00     LDA #$00                       A:7B X:AD Y:00 P:A5 SP:F6 CYC:255 SL:21
15:25:15: E128  8D 06 20  STA $2006 = 00                 A:00 X:AD Y:00 P:27 SP:F6 CYC:261 SL:21
15:25:15: E12B  8D 06 20  STA $2006 = 00                 A:00 X:AD Y:00 P:27 SP:F6 CYC:273 SL:21
15:25:15: E12E  A9 10     LDA #$10                       A:00 X:AD Y:00 P:27 SP:F6 CYC:285 SL:21
15:25:15: E130  8D 06 20  STA $2006 = 00                 A:10 X:AD Y:00 P:25 SP:F6 CYC:291 SL:21
15:25:15: E133  8D 06 20  STA $2006 = 00                 A:10 X:AD Y:00 P:25 SP:F6 CYC:303 SL:21
15:25:15: E136  A9 00     LDA #$00                       A:10 X:AD Y:00 P:25 SP:F6 CYC:315 SL:21
15:25:15: E138  8D 06 20  STA $2006 = 00                 A:00 X:AD Y:00 P:27 SP:F6 CYC:321 SL:21
15:25:15: E13B  8D 06 20  STA $2006 = 00                 A:00 X:AD Y:00 P:27 SP:F6 CYC:333 SL:21
15:25:15: E13E  68        PLA                            A:00 X:AD Y:00 P:27 SP:F6 CYC:  4 SL:22
15:25:15: E13F  60        RTS                            A:7B X:AD Y:00 P:25 SP:F7 CYC: 16 SL:22
15:25:15: E121  CA        DEX                            A:7B X:AD Y:00 P:25 SP:F9 CYC: 34 SL:22
15:25:15: E122  D0 FA     BNE $E11E                      A:7B X:AC Y:00 P:A5 SP:F9 CYC: 40 SL:22
15:25:15: E11E  20 25 E1  JSR $E125                      A:7B X:AC Y:00 P:A5 SP:F9 CYC: 49 SL:22
15:25:15: E125  48        PHA                            A:7B X:AC Y:00 P:A5 SP:F7 CYC: 67 SL:22
15:25:15: E126  A9 00     LDA #$00                       A:7B X:AC Y:00 P:A5 SP:F6 CYC: 76 SL:22
15:25:15: E128  8D 06 20  STA $2006 = 00                 A:00 X:AC Y:00 P:27 SP:F6 CYC: 82 SL:22
15:25:15: E12B  8D 06 20  STA $2006 = 00                 A:00 X:AC Y:00 P:27 SP:F6 CYC: 94 SL:22
15:25:15: E12E  A9 10     LDA #$10                       A:00 X:AC Y:00 P:27 SP:F6 CYC:106 SL:22
15:25:15: E130  8D 06 20  STA $2006 = 00                 A:10 X:AC Y:00 P:25 SP:F6 CYC:112 SL:22
15:25:15: E133  8D 06 20  STA $2006 = 00                 A:10 X:AC Y:00 P:25 SP:F6 CYC:124 SL:22
15:25:15: E136  A9 00     LDA #$00                       A:10 X:AC Y:00 P:25 SP:F6 CYC:136 SL:22
15:25:15: E138  8D 06 20  STA $2006 = 00                 A:00 X:AC Y:00 P:27 SP:F6 CYC:142 SL:22
15:25:15: E13B  8D 06 20  STA $2006 = 00                 A:00 X:AC Y:00 P:27 SP:F6 CYC:154 SL:22
15:25:15: E13E  68        PLA                            A:00 X:AC Y:00 P:27 SP:F6 CYC:166 SL:22
15:25:15: E13F  60        RTS                            A:7B X:AC Y:00 P:25 SP:F7 CYC:178 SL:22
15:25:15: E121  CA        DEX                            A:7B X:AC Y:00 P:25 SP:F9 CYC:196 SL:22
15:25:15: E122  D0 FA     BNE $E11E                      A:7B X:AB Y:00 P:A5 SP:F9 CYC:202 SL:22
15:25:15: E11E  20 25 E1  JSR $E125                      A:7B X:AB Y:00 P:A5 SP:F9 CYC:211 SL:22
15:25:15: E125  48        PHA                            A:7B X:AB Y:00 P:A5 SP:F7 CYC:229 SL:22
15:25:15: E126  A9 00     LDA #$00                       A:7B X:AB Y:00 P:A5 SP:F6 CYC:238 SL:22
15:25:15: E128  8D 06 20  STA $2006 = 00                 A:00 X:AB Y:00 P:27 SP:F6 CYC:244 SL:22
15:25:15: E12B  8D 06 20  STA $2006 = 00                 A:00 X:AB Y:00 P:27 SP:F6 CYC:256 SL:22
15:25:15: E12E  A9 10     LDA #$10                       A:00 X:AB Y:00 P:27 SP:F6 CYC:268 SL:22
15:25:15: E130  8D 06 20  STA $2006 = 00                 A:10 X:AB Y:00 P:25 SP:F6 CYC:274 SL:22
15:25:15: E133  8D 06 20  STA $2006 = 00                 A:10 X:AB Y:00 P:25 SP:F6 CYC:286 SL:22
15:25:15: E136  A9 00     LDA #$00                       A:10 X:AB Y:00 P:25 SP:F6 CYC:298 SL:22
15:25:15: E138  8D 06 20  STA $2006 = 00                 A:00 X:AB Y:00 P:27 SP:F6 CYC:304 SL:22
15:25:15: E13B  8D 06 20  STA $2006 = 00                 A:00 X:AB Y:00 P:27 SP:F6 CYC:316 SL:22
15:25:15: E13E  68        PLA                            A:00 X:AB Y:00 P:27 SP:F6 CYC:328 SL:22
15:25:15: E13F  60        RTS                            A:7B X:AB Y:00 P:25 SP:F7 CYC:340 SL:22
15:25:15: E121  CA        DEX                            A:7B X:AB Y:00 P:25 SP:F9 CYC: 17 SL:23
15:25:15: E122  D0 FA     BNE $E11E                      A:7B X:AA Y:00 P:A5 SP:F9 CYC: 23 SL:23
15:25:15: E11E  20 25 E1  JSR $E125                      A:7B X:AA Y:00 P:A5 SP:F9 CYC: 32 SL:23
15:25:15: E125  48        PHA                            A:7B X:AA Y:00 P:A5 SP:F7 CYC: 50 SL:23
15:25:15: E126  A9 00     LDA #$00                       A:7B X:AA Y:00 P:A5 SP:F6 CYC: 59 SL:23
15:25:15: E128  8D 06 20  STA $2006 = 00                 A:00 X:AA Y:00 P:27 SP:F6 CYC: 65 SL:23
15:25:15: E12B  8D 06 20  STA $2006 = 00                 A:00 X:AA Y:00 P:27 SP:F6 CYC: 77 SL:23
15:25:15: E12E  A9 10     LDA #$10                       A:00 X:AA Y:00 P:27 SP:F6 CYC: 89 SL:23
15:25:15: E130  8D 06 20  STA $2006 = 00                 A:10 X:AA Y:00 P:25 SP:F6 CYC: 95 SL:23
15:25:15: E133  8D 06 20  STA $2006 = 00                 A:10 X:AA Y:00 P:25 SP:F6 CYC:107 SL:23
15:25:15: E136  A9 00     LDA #$00                       A:10 X:AA Y:00 P:25 SP:F6 CYC:119 SL:23
15:25:15: E138  8D 06 20  STA $2006 = 00                 A:00 X:AA Y:00 P:27 SP:F6 CYC:125 SL:23
15:25:15: E13B  8D 06 20  STA $2006 = 00                 A:00 X:AA Y:00 P:27 SP:F6 CYC:137 SL:23
15:25:15: E13E  68        PLA                            A:00 X:AA Y:00 P:27 SP:F6 CYC:149 SL:23
15:25:15: E13F  60        RTS                            A:7B X:AA Y:00 P:25 SP:F7 CYC:161 SL:23
15:25:15: E121  CA        DEX                            A:7B X:AA Y:00 P:25 SP:F9 CYC:179 SL:23
15:25:15: E122  D0 FA     BNE $E11E                      A:7B X:A9 Y:00 P:A5 SP:F9 CYC:185 SL:23
15:25:15: E11E  20 25 E1  JSR $E125                      A:7B X:A9 Y:00 P:A5 SP:F9 CYC:194 SL:23
15:25:15: E125  48        PHA                            A:7B X:A9 Y:00 P:A5 SP:F7 CYC:212 SL:23
15:25:15: E126  A9 00     LDA #$00                       A:7B X:A9 Y:00 P:A5 SP:F6 CYC:221 SL:23
15:25:16: E128  8D 06 20  STA $2006 = 00                 A:00 X:A9 Y:00 P:27 SP:F6 CYC:227 SL:23
15:25:16: E12B  8D 06 20  STA $2006 = 00                 A:00 X:A9 Y:00 P:27 SP:F6 CYC:239 SL:23
15:25:16: E12E  A9 10     LDA #$10                       A:00 X:A9 Y:00 P:27 SP:F6 CYC:251 SL:23
15:25:16: E130  8D 06 20  STA $2006 = 00                 A:10 X:A9 Y:00 P:25 SP:F6 CYC:257 SL:23
15:25:16: E133  8D 06 20  STA $2006 = 00                 A:10 X:A9 Y:00 P:25 SP:F6 CYC:269 SL:23
15:25:16: E136  A9 00     LDA #$00                       A:10 X:A9 Y:00 P:25 SP:F6 CYC:281 SL:23
15:25:16: E138  8D 06 20  STA $2006 = 00                 A:00 X:A9 Y:00 P:27 SP:F6 CYC:287 SL:23
15:25:16: E13B  8D 06 20  STA $2006 = 00                 A:00 X:A9 Y:00 P:27 SP:F6 CYC:299 SL:23
15:25:16: E13E  68        PLA                            A:00 X:A9 Y:00 P:27 SP:F6 CYC:311 SL:23
15:25:16: E13F  60        RTS                            A:7B X:A9 Y:00 P:25 SP:F7 CYC:323 SL:23
15:25:16: E121  CA        DEX                            A:7B X:A9 Y:00 P:25 SP:F9 CYC:  0 SL:24
15:25:16: E122  D0 FA     BNE $E11E                      A:7B X:A8 Y:00 P:A5 SP:F9 CYC:  6 SL:24
15:25:16: E11E  20 25 E1  JSR $E125                      A:7B X:A8 Y:00 P:A5 SP:F9 CYC: 15 SL:24
15:25:16: E125  48        PHA                            A:7B X:A8 Y:00 P:A5 SP:F7 CYC: 33 SL:24
15:25:16: E126  A9 00     LDA #$00                       A:7B X:A8 Y:00 P:A5 SP:F6 CYC: 42 SL:24
15:25:16: E128  8D 06 20  STA $2006 = 00                 A:00 X:A8 Y:00 P:27 SP:F6 CYC: 48 SL:24
15:25:16: E12B  8D 06 20  STA $2006 = 00                 A:00 X:A8 Y:00 P:27 SP:F6 CYC: 60 SL:24
15:25:16: E12E  A9 10     LDA #$10                       A:00 X:A8 Y:00 P:27 SP:F6 CYC: 72 SL:24
15:25:16: E130  8D 06 20  STA $2006 = 00                 A:10 X:A8 Y:00 P:25 SP:F6 CYC: 78 SL:24
15:25:16: E133  8D 06 20  STA $2006 = 00                 A:10 X:A8 Y:00 P:25 SP:F6 CYC: 90 SL:24
15:25:16: E136  A9 00     LDA #$00                       A:10 X:A8 Y:00 P:25 SP:F6 CYC:102 SL:24
15:25:16: E138  8D 06 20  STA $2006 = 00                 A:00 X:A8 Y:00 P:27 SP:F6 CYC:108 SL:24
15:25:16: E13B  8D 06 20  STA $2006 = 00                 A:00 X:A8 Y:00 P:27 SP:F6 CYC:120 SL:24
15:25:16: E13E  68        PLA                            A:00 X:A8 Y:00 P:27 SP:F6 CYC:132 SL:24
15:25:16: E13F  60        RTS                            A:7B X:A8 Y:00 P:25 SP:F7 CYC:144 SL:24
15:25:16: E121  CA        DEX                            A:7B X:A8 Y:00 P:25 SP:F9 CYC:162 SL:24
15:25:16: E122  D0 FA     BNE $E11E                      A:7B X:A7 Y:00 P:A5 SP:F9 CYC:168 SL:24
15:25:16: E11E  20 25 E1  JSR $E125                      A:7B X:A7 Y:00 P:A5 SP:F9 CYC:177 SL:24
15:25:16: E125  48        PHA                            A:7B X:A7 Y:00 P:A5 SP:F7 CYC:195 SL:24
15:25:16: E126  A9 00     LDA #$00                       A:7B X:A7 Y:00 P:A5 SP:F6 CYC:204 SL:24
15:25:16: E128  8D 06 20  STA $2006 = 00                 A:00 X:A7 Y:00 P:27 SP:F6 CYC:210 SL:24
15:25:16: E12B  8D 06 20  STA $2006 = 00                 A:00 X:A7 Y:00 P:27 SP:F6 CYC:222 SL:24
15:25:16: E12E  A9 10     LDA #$10                       A:00 X:A7 Y:00 P:27 SP:F6 CYC:234 SL:24
15:25:16: E130  8D 06 20  STA $2006 = 00                 A:10 X:A7 Y:00 P:25 SP:F6 CYC:240 SL:24
15:25:16: E133  8D 06 20  STA $2006 = 00                 A:10 X:A7 Y:00 P:25 SP:F6 CYC:252 SL:24
15:25:16: E136  A9 00     LDA #$00                       A:10 X:A7 Y:00 P:25 SP:F6 CYC:264 SL:24
15:25:16: E138  8D 06 20  STA $2006 = 00                 A:00 X:A7 Y:00 P:27 SP:F6 CYC:270 SL:24
15:25:16: E13B  8D 06 20  STA $2006 = 00                 A:00 X:A7 Y:00 P:27 SP:F6 CYC:282 SL:24
15:25:16: E13E  68        PLA                            A:00 X:A7 Y:00 P:27 SP:F6 CYC:294 SL:24
15:25:16: E13F  60        RTS                            A:7B X:A7 Y:00 P:25 SP:F7 CYC:306 SL:24
15:25:16: E121  CA        DEX                            A:7B X:A7 Y:00 P:25 SP:F9 CYC:324 SL:24
15:25:16: E122  D0 FA     BNE $E11E                      A:7B X:A6 Y:00 P:A5 SP:F9 CYC:330 SL:24
15:25:16: E11E  20 25 E1  JSR $E125                      A:7B X:A6 Y:00 P:A5 SP:F9 CYC:339 SL:24
15:25:16: E125  48        PHA                            A:7B X:A6 Y:00 P:A5 SP:F7 CYC: 16 SL:25
15:25:16: E126  A9 00     LDA #$00                       A:7B X:A6 Y:00 P:A5 SP:F6 CYC: 25 SL:25
15:25:16: E128  8D 06 20  STA $2006 = 00                 A:00 X:A6 Y:00 P:27 SP:F6 CYC: 31 SL:25
15:25:16: E12B  8D 06 20  STA $2006 = 00                 A:00 X:A6 Y:00 P:27 SP:F6 CYC: 43 SL:25
15:25:16: E12E  A9 10     LDA #$10                       A:00 X:A6 Y:00 P:27 SP:F6 CYC: 55 SL:25
15:25:16: E130  8D 06 20  STA $2006 = 00                 A:10 X:A6 Y:00 P:25 SP:F6 CYC: 61 SL:25
15:25:16: E133  8D 06 20  STA $2006 = 00                 A:10 X:A6 Y:00 P:25 SP:F6 CYC: 73 SL:25
15:25:16: E136  A9 00     LDA #$00                       A:10 X:A6 Y:00 P:25 SP:F6 CYC: 85 SL:25
15:25:16: E138  8D 06 20  STA $2006 = 00                 A:00 X:A6 Y:00 P:27 SP:F6 CYC: 91 SL:25
15:25:16: E13B  8D 06 20  STA $2006 = 00                 A:00 X:A6 Y:00 P:27 SP:F6 CYC:103 SL:25
15:25:16: E13E  68        PLA                            A:00 X:A6 Y:00 P:27 SP:F6 CYC:115 SL:25
15:25:16: E13F  60        RTS                            A:7B X:A6 Y:00 P:25 SP:F7 CYC:127 SL:25
15:25:16: E121  CA        DEX                            A:7B X:A6 Y:00 P:25 SP:F9 CYC:145 SL:25
15:25:16: E122  D0 FA     BNE $E11E                      A:7B X:A5 Y:00 P:A5 SP:F9 CYC:151 SL:25
15:25:16: E11E  20 25 E1  JSR $E125                      A:7B X:A5 Y:00 P:A5 SP:F9 CYC:160 SL:25
15:25:16: E125  48        PHA                            A:7B X:A5 Y:00 P:A5 SP:F7 CYC:178 SL:25
15:25:16: E126  A9 00     LDA #$00                       A:7B X:A5 Y:00 P:A5 SP:F6 CYC:187 SL:25
15:25:16: E128  8D 06 20  STA $2006 = 00                 A:00 X:A5 Y:00 P:27 SP:F6 CYC:193 SL:25
15:25:16: E12B  8D 06 20  STA $2006 = 00                 A:00 X:A5 Y:00 P:27 SP:F6 CYC:205 SL:25
15:25:16: E12E  A9 10     LDA #$10                       A:00 X:A5 Y:00 P:27 SP:F6 CYC:217 SL:25
15:25:16: E130  8D 06 20  STA $2006 = 00                 A:10 X:A5 Y:00 P:25 SP:F6 CYC:223 SL:25
15:25:16: E133  8D 06 20  STA $2006 = 00                 A:10 X:A5 Y:00 P:25 SP:F6 CYC:235 SL:25
15:25:16: E136  A9 00     LDA #$00                       A:10 X:A5 Y:00 P:25 SP:F6 CYC:247 SL:25
15:25:16: E138  8D 06 20  STA $2006 = 00                 A:00 X:A5 Y:00 P:27 SP:F6 CYC:253 SL:25
15:25:16: E13B  8D 06 20  STA $2006 = 00                 A:00 X:A5 Y:00 P:27 SP:F6 CYC:265 SL:25
15:25:16: E13E  68        PLA                            A:00 X:A5 Y:00 P:27 SP:F6 CYC:277 SL:25
15:25:16: E13F  60        RTS                            A:7B X:A5 Y:00 P:25 SP:F7 CYC:289 SL:25
15:25:16: E121  CA        DEX                            A:7B X:A5 Y:00 P:25 SP:F9 CYC:307 SL:25
15:25:16: E122  D0 FA     BNE $E11E                      A:7B X:A4 Y:00 P:A5 SP:F9 CYC:313 SL:25
15:25:16: E11E  20 25 E1  JSR $E125                      A:7B X:A4 Y:00 P:A5 SP:F9 CYC:322 SL:25
15:25:16: E125  48        PHA                            A:7B X:A4 Y:00 P:A5 SP:F7 CYC:340 SL:25
15:25:16: E126  A9 00     LDA #$00                       A:7B X:A4 Y:00 P:A5 SP:F6 CYC:  8 SL:26
15:25:16: E128  8D 06 20  STA $2006 = 00                 A:00 X:A4 Y:00 P:27 SP:F6 CYC: 14 SL:26
15:25:16: E12B  8D 06 20  STA $2006 = 00                 A:00 X:A4 Y:00 P:27 SP:F6 CYC: 26 SL:26
15:25:16: E12E  A9 10     LDA #$10                       A:00 X:A4 Y:00 P:27 SP:F6 CYC: 38 SL:26
15:25:16: E130  8D 06 20  STA $2006 = 00                 A:10 X:A4 Y:00 P:25 SP:F6 CYC: 44 SL:26
15:25:16: E133  8D 06 20  STA $2006 = 00                 A:10 X:A4 Y:00 P:25 SP:F6 CYC: 56 SL:26
15:25:16: E136  A9 00     LDA #$00                       A:10 X:A4 Y:00 P:25 SP:F6 CYC: 68 SL:26
15:25:16: E138  8D 06 20  STA $2006 = 00                 A:00 X:A4 Y:00 P:27 SP:F6 CYC: 74 SL:26
15:25:16: E13B  8D 06 20  STA $2006 = 00                 A:00 X:A4 Y:00 P:27 SP:F6 CYC: 86 SL:26
15:25:16: E13E  68        PLA                            A:00 X:A4 Y:00 P:27 SP:F6 CYC: 98 SL:26
15:25:16: E13F  60        RTS                            A:7B X:A4 Y:00 P:25 SP:F7 CYC:110 SL:26
15:25:16: E121  CA        DEX                            A:7B X:A4 Y:00 P:25 SP:F9 CYC:128 SL:26
15:25:16: E122  D0 FA     BNE $E11E                      A:7B X:A3 Y:00 P:A5 SP:F9 CYC:134 SL:26
15:25:16: E11E  20 25 E1  JSR $E125                      A:7B X:A3 Y:00 P:A5 SP:F9 CYC:143 SL:26
15:25:16: E125  48        PHA                            A:7B X:A3 Y:00 P:A5 SP:F7 CYC:161 SL:26
15:25:16: E126  A9 00     LDA #$00                       A:7B X:A3 Y:00 P:A5 SP:F6 CYC:170 SL:26
15:25:16: E128  8D 06 20  STA $2006 = 00                 A:00 X:A3 Y:00 P:27 SP:F6 CYC:176 SL:26
15:25:16: E12B  8D 06 20  STA $2006 = 00                 A:00 X:A3 Y:00 P:27 SP:F6 CYC:188 SL:26
15:25:16: E12E  A9 10     LDA #$10                       A:00 X:A3 Y:00 P:27 SP:F6 CYC:200 SL:26
15:25:16: E130  8D 06 20  STA $2006 = 00                 A:10 X:A3 Y:00 P:25 SP:F6 CYC:206 SL:26
15:25:16: E133  8D 06 20  STA $2006 = 00                 A:10 X:A3 Y:00 P:25 SP:F6 CYC:218 SL:26
15:25:16: E136  A9 00     LDA #$00                       A:10 X:A3 Y:00 P:25 SP:F6 CYC:230 SL:26
15:25:16: E138  8D 06 20  STA $2006 = 00                 A:00 X:A3 Y:00 P:27 SP:F6 CYC:236 SL:26
15:25:16: E13B  8D 06 20  STA $2006 = 00                 A:00 X:A3 Y:00 P:27 SP:F6 CYC:248 SL:26
15:25:16: E13E  68        PLA                            A:00 X:A3 Y:00 P:27 SP:F6 CYC:260 SL:26
15:25:16: E13F  60        RTS                            A:7B X:A3 Y:00 P:25 SP:F7 CYC:272 SL:26
15:25:16: E121  CA        DEX                            A:7B X:A3 Y:00 P:25 SP:F9 CYC:290 SL:26
15:25:16: E122  D0 FA     BNE $E11E                      A:7B X:A2 Y:00 P:A5 SP:F9 CYC:296 SL:26
15:25:16: E11E  20 25 E1  JSR $E125                      A:7B X:A2 Y:00 P:A5 SP:F9 CYC:305 SL:26
15:25:16: E125  48        PHA                            A:7B X:A2 Y:00 P:A5 SP:F7 CYC:323 SL:26
15:25:16: E126  A9 00     LDA #$00                       A:7B X:A2 Y:00 P:A5 SP:F6 CYC:332 SL:26
15:25:16: E128  8D 06 20  STA $2006 = 00                 A:00 X:A2 Y:00 P:27 SP:F6 CYC:338 SL:26
15:25:16: E12B  8D 06 20  STA $2006 = 00                 A:00 X:A2 Y:00 P:27 SP:F6 CYC:  9 SL:27
15:25:16: E12E  A9 10     LDA #$10                       A:00 X:A2 Y:00 P:27 SP:F6 CYC: 21 SL:27
15:25:16: E130  8D 06 20  STA $2006 = 00                 A:10 X:A2 Y:00 P:25 SP:F6 CYC: 27 SL:27
15:25:16: E133  8D 06 20  STA $2006 = 00                 A:10 X:A2 Y:00 P:25 SP:F6 CYC: 39 SL:27
15:25:16: E136  A9 00     LDA #$00                       A:10 X:A2 Y:00 P:25 SP:F6 CYC: 51 SL:27
15:25:16: E138  8D 06 20  STA $2006 = 00                 A:00 X:A2 Y:00 P:27 SP:F6 CYC: 57 SL:27
15:25:16: E13B  8D 06 20  STA $2006 = 00                 A:00 X:A2 Y:00 P:27 SP:F6 CYC: 69 SL:27
15:25:16: E13E  68        PLA                            A:00 X:A2 Y:00 P:27 SP:F6 CYC: 81 SL:27
15:25:16: E13F  60        RTS                            A:7B X:A2 Y:00 P:25 SP:F7 CYC: 93 SL:27
15:25:16: E121  CA        DEX                            A:7B X:A2 Y:00 P:25 SP:F9 CYC:111 SL:27
15:25:16: E122  D0 FA     BNE $E11E                      A:7B X:A1 Y:00 P:A5 SP:F9 CYC:117 SL:27
15:25:16: E11E  20 25 E1  JSR $E125                      A:7B X:A1 Y:00 P:A5 SP:F9 CYC:126 SL:27
15:25:16: E125  48        PHA                            A:7B X:A1 Y:00 P:A5 SP:F7 CYC:144 SL:27
15:25:16: E126  A9 00     LDA #$00                       A:7B X:A1 Y:00 P:A5 SP:F6 CYC:153 SL:27
15:25:16: E128  8D 06 20  STA $2006 = 00                 A:00 X:A1 Y:00 P:27 SP:F6 CYC:159 SL:27
15:25:16: E12B  8D 06 20  STA $2006 = 00                 A:00 X:A1 Y:00 P:27 SP:F6 CYC:171 SL:27
15:25:16: E12E  A9 10     LDA #$10                       A:00 X:A1 Y:00 P:27 SP:F6 CYC:183 SL:27
15:25:16: E130  8D 06 20  STA $2006 = 00                 A:10 X:A1 Y:00 P:25 SP:F6 CYC:189 SL:27
15:25:16: E133  8D 06 20  STA $2006 = 00                 A:10 X:A1 Y:00 P:25 SP:F6 CYC:201 SL:27
15:25:16: E136  A9 00     LDA #$00                       A:10 X:A1 Y:00 P:25 SP:F6 CYC:213 SL:27
15:25:16: E138  8D 06 20  STA $2006 = 00                 A:00 X:A1 Y:00 P:27 SP:F6 CYC:219 SL:27
15:25:16: E13B  8D 06 20  STA $2006 = 00                 A:00 X:A1 Y:00 P:27 SP:F6 CYC:231 SL:27
15:25:16: E13E  68        PLA                            A:00 X:A1 Y:00 P:27 SP:F6 CYC:243 SL:27
15:25:16: E13F  60        RTS                            A:7B X:A1 Y:00 P:25 SP:F7 CYC:255 SL:27
15:25:16: E121  CA        DEX                            A:7B X:A1 Y:00 P:25 SP:F9 CYC:273 SL:27
15:25:16: E122  D0 FA     BNE $E11E                      A:7B X:A0 Y:00 P:A5 SP:F9 CYC:279 SL:27
15:25:16: E11E  20 25 E1  JSR $E125                      A:7B X:A0 Y:00 P:A5 SP:F9 CYC:288 SL:27
15:25:16: E125  48        PHA                            A:7B X:A0 Y:00 P:A5 SP:F7 CYC:306 SL:27
15:25:16: E126  A9 00     LDA #$00                       A:7B X:A0 Y:00 P:A5 SP:F6 CYC:315 SL:27
15:25:16: E128  8D 06 20  STA $2006 = 00                 A:00 X:A0 Y:00 P:27 SP:F6 CYC:321 SL:27
15:25:16: E12B  8D 06 20  STA $2006 = 00                 A:00 X:A0 Y:00 P:27 SP:F6 CYC:333 SL:27
15:25:16: E12E  A9 10     LDA #$10                       A:00 X:A0 Y:00 P:27 SP:F6 CYC:  4 SL:28
15:25:16: E130  8D 06 20  STA $2006 = 00                 A:10 X:A0 Y:00 P:25 SP:F6 CYC: 10 SL:28
15:25:16: E133  8D 06 20  STA $2006 = 00                 A:10 X:A0 Y:00 P:25 SP:F6 CYC: 22 SL:28
15:25:16: E136  A9 00     LDA #$00                       A:10 X:A0 Y:00 P:25 SP:F6 CYC: 34 SL:28
15:25:16: E138  8D 06 20  STA $2006 = 00                 A:00 X:A0 Y:00 P:27 SP:F6 CYC: 40 SL:28
15:25:16: E13B  8D 06 20  STA $2006 = 00                 A:00 X:A0 Y:00 P:27 SP:F6 CYC: 52 SL:28
15:25:16: E13E  68        PLA                            A:00 X:A0 Y:00 P:27 SP:F6 CYC: 64 SL:28
15:25:16: E13F  60        RTS                            A:7B X:A0 Y:00 P:25 SP:F7 CYC: 76 SL:28
15:25:16: E121  CA        DEX                            A:7B X:A0 Y:00 P:25 SP:F9 CYC: 94 SL:28
15:25:16: E122  D0 FA     BNE $E11E                      A:7B X:9F Y:00 P:A5 SP:F9 CYC:100 SL:28
15:25:16: E11E  20 25 E1  JSR $E125                      A:7B X:9F Y:00 P:A5 SP:F9 CYC:109 SL:28
15:25:16: E125  48        PHA                            A:7B X:9F Y:00 P:A5 SP:F7 CYC:127 SL:28
15:25:16: E126  A9 00     LDA #$00                       A:7B X:9F Y:00 P:A5 SP:F6 CYC:136 SL:28
15:25:16: E128  8D 06 20  STA $2006 = 00                 A:00 X:9F Y:00 P:27 SP:F6 CYC:142 SL:28
15:25:16: E12B  8D 06 20  STA $2006 = 00                 A:00 X:9F Y:00 P:27 SP:F6 CYC:154 SL:28
15:25:16: E12E  A9 10     LDA #$10                       A:00 X:9F Y:00 P:27 SP:F6 CYC:166 SL:28
15:25:16: E130  8D 06 20  STA $2006 = 00                 A:10 X:9F Y:00 P:25 SP:F6 CYC:172 SL:28
15:25:16: E133  8D 06 20  STA $2006 = 00                 A:10 X:9F Y:00 P:25 SP:F6 CYC:184 SL:28
15:25:16: E136  A9 00     LDA #$00                       A:10 X:9F Y:00 P:25 SP:F6 CYC:196 SL:28
15:25:16: E138  8D 06 20  STA $2006 = 00                 A:00 X:9F Y:00 P:27 SP:F6 CYC:202 SL:28
15:25:16: E13B  8D 06 20  STA $2006 = 00                 A:00 X:9F Y:00 P:27 SP:F6 CYC:214 SL:28
15:25:16: E13E  68        PLA                            A:00 X:9F Y:00 P:27 SP:F6 CYC:226 SL:28
15:25:16: E13F  60        RTS                            A:7B X:9F Y:00 P:25 SP:F7 CYC:238 SL:28
15:25:16: E121  CA        DEX                            A:7B X:9F Y:00 P:25 SP:F9 CYC:256 SL:28
15:25:16: E122  D0 FA     BNE $E11E                      A:7B X:9E Y:00 P:A5 SP:F9 CYC:262 SL:28
15:25:16: E11E  20 25 E1  JSR $E125                      A:7B X:9E Y:00 P:A5 SP:F9 CYC:271 SL:28
15:25:16: E125  48        PHA                            A:7B X:9E Y:00 P:A5 SP:F7 CYC:289 SL:28
15:25:16: E126  A9 00     LDA #$00                       A:7B X:9E Y:00 P:A5 SP:F6 CYC:298 SL:28
15:25:16: E128  8D 06 20  STA $2006 = 00                 A:00 X:9E Y:00 P:27 SP:F6 CYC:304 SL:28
15:25:16: E12B  8D 06 20  STA $2006 = 00                 A:00 X:9E Y:00 P:27 SP:F6 CYC:316 SL:28
15:25:16: E12E  A9 10     LDA #$10                       A:00 X:9E Y:00 P:27 SP:F6 CYC:328 SL:28
15:25:16: E130  8D 06 20  STA $2006 = 00                 A:10 X:9E Y:00 P:25 SP:F6 CYC:334 SL:28
15:25:16: E133  8D 06 20  STA $2006 = 00                 A:10 X:9E Y:00 P:25 SP:F6 CYC:  5 SL:29
15:25:16: E136  A9 00     LDA #$00                       A:10 X:9E Y:00 P:25 SP:F6 CYC: 17 SL:29
15:25:16: E138  8D 06 20  STA $2006 = 00                 A:00 X:9E Y:00 P:27 SP:F6 CYC: 23 SL:29
15:25:16: E13B  8D 06 20  STA $2006 = 00                 A:00 X:9E Y:00 P:27 SP:F6 CYC: 35 SL:29
15:25:16: E13E  68        PLA                            A:00 X:9E Y:00 P:27 SP:F6 CYC: 47 SL:29
15:25:16: E13F  60        RTS                            A:7B X:9E Y:00 P:25 SP:F7 CYC: 59 SL:29
15:25:16: E121  CA        DEX                            A:7B X:9E Y:00 P:25 SP:F9 CYC: 77 SL:29
15:25:16: E122  D0 FA     BNE $E11E                      A:7B X:9D Y:00 P:A5 SP:F9 CYC: 83 SL:29
15:25:16: E11E  20 25 E1  JSR $E125                      A:7B X:9D Y:00 P:A5 SP:F9 CYC: 92 SL:29
15:25:16: E125  48        PHA                            A:7B X:9D Y:00 P:A5 SP:F7 CYC:110 SL:29
15:25:16: E126  A9 00     LDA #$00                       A:7B X:9D Y:00 P:A5 SP:F6 CYC:119 SL:29
15:25:16: E128  8D 06 20  STA $2006 = 00                 A:00 X:9D Y:00 P:27 SP:F6 CYC:125 SL:29
15:25:16: E12B  8D 06 20  STA $2006 = 00                 A:00 X:9D Y:00 P:27 SP:F6 CYC:137 SL:29
15:25:16: E12E  A9 10     LDA #$10                       A:00 X:9D Y:00 P:27 SP:F6 CYC:149 SL:29
15:25:16: E130  8D 06 20  STA $2006 = 00                 A:10 X:9D Y:00 P:25 SP:F6 CYC:155 SL:29
15:25:16: E133  8D 06 20  STA $2006 = 00                 A:10 X:9D Y:00 P:25 SP:F6 CYC:167 SL:29
15:25:16: E136  A9 00     LDA #$00                       A:10 X:9D Y:00 P:25 SP:F6 CYC:179 SL:29
15:25:16: E138  8D 06 20  STA $2006 = 00                 A:00 X:9D Y:00 P:27 SP:F6 CYC:185 SL:29
15:25:16: E13B  8D 06 20  STA $2006 = 00                 A:00 X:9D Y:00 P:27 SP:F6 CYC:197 SL:29
15:25:16: E13E  68        PLA                            A:00 X:9D Y:00 P:27 SP:F6 CYC:209 SL:29
15:25:16: E13F  60        RTS                            A:7B X:9D Y:00 P:25 SP:F7 CYC:221 SL:29
15:25:16: E121  CA        DEX                            A:7B X:9D Y:00 P:25 SP:F9 CYC:239 SL:29
15:25:16: E122  D0 FA     BNE $E11E                      A:7B X:9C Y:00 P:A5 SP:F9 CYC:245 SL:29
15:25:16: E11E  20 25 E1  JSR $E125                      A:7B X:9C Y:00 P:A5 SP:F9 CYC:254 SL:29
15:25:16: E125  48        PHA                            A:7B X:9C Y:00 P:A5 SP:F7 CYC:272 SL:29
15:25:16: E126  A9 00     LDA #$00                       A:7B X:9C Y:00 P:A5 SP:F6 CYC:281 SL:29
15:25:16: E128  8D 06 20  STA $2006 = 00                 A:00 X:9C Y:00 P:27 SP:F6 CYC:287 SL:29
15:25:16: E12B  8D 06 20  STA $2006 = 00                 A:00 X:9C Y:00 P:27 SP:F6 CYC:299 SL:29
15:25:16: E12E  A9 10     LDA #$10                       A:00 X:9C Y:00 P:27 SP:F6 CYC:311 SL:29
15:25:16: E130  8D 06 20  STA $2006 = 00                 A:10 X:9C Y:00 P:25 SP:F6 CYC:317 SL:29
15:25:16: E133  8D 06 20  STA $2006 = 00                 A:10 X:9C Y:00 P:25 SP:F6 CYC:329 SL:29
15:25:16: E136  A9 00     LDA #$00                       A:10 X:9C Y:00 P:25 SP:F6 CYC:  0 SL:30
15:25:16: E138  8D 06 20  STA $2006 = 00                 A:00 X:9C Y:00 P:27 SP:F6 CYC:  6 SL:30
15:25:16: E13B  8D 06 20  STA $2006 = 00                 A:00 X:9C Y:00 P:27 SP:F6 CYC: 18 SL:30
15:25:16: E13E  68        PLA                            A:00 X:9C Y:00 P:27 SP:F6 CYC: 30 SL:30
15:25:16: E13F  60        RTS                            A:7B X:9C Y:00 P:25 SP:F7 CYC: 42 SL:30
15:25:16: E121  CA        DEX                            A:7B X:9C Y:00 P:25 SP:F9 CYC: 60 SL:30
15:25:16: E122  D0 FA     BNE $E11E                      A:7B X:9B Y:00 P:A5 SP:F9 CYC: 66 SL:30
15:25:16: E11E  20 25 E1  JSR $E125                      A:7B X:9B Y:00 P:A5 SP:F9 CYC: 75 SL:30
15:25:16: E125  48        PHA                            A:7B X:9B Y:00 P:A5 SP:F7 CYC: 93 SL:30
15:25:16: E126  A9 00     LDA #$00                       A:7B X:9B Y:00 P:A5 SP:F6 CYC:102 SL:30
15:25:16: E128  8D 06 20  STA $2006 = 00                 A:00 X:9B Y:00 P:27 SP:F6 CYC:108 SL:30
15:25:16: E12B  8D 06 20  STA $2006 = 00                 A:00 X:9B Y:00 P:27 SP:F6 CYC:120 SL:30
15:25:16: E12E  A9 10     LDA #$10                       A:00 X:9B Y:00 P:27 SP:F6 CYC:132 SL:30
15:25:16: E130  8D 06 20  STA $2006 = 00                 A:10 X:9B Y:00 P:25 SP:F6 CYC:138 SL:30
15:25:16: E133  8D 06 20  STA $2006 = 00                 A:10 X:9B Y:00 P:25 SP:F6 CYC:150 SL:30
15:25:16: E136  A9 00     LDA #$00                       A:10 X:9B Y:00 P:25 SP:F6 CYC:162 SL:30
15:25:16: E138  8D 06 20  STA $2006 = 00                 A:00 X:9B Y:00 P:27 SP:F6 CYC:168 SL:30
15:25:16: E13B  8D 06 20  STA $2006 = 00                 A:00 X:9B Y:00 P:27 SP:F6 CYC:180 SL:30
15:25:16: E13E  68        PLA                            A:00 X:9B Y:00 P:27 SP:F6 CYC:192 SL:30
15:25:16: E13F  60        RTS                            A:7B X:9B Y:00 P:25 SP:F7 CYC:204 SL:30
15:25:16: E121  CA        DEX                            A:7B X:9B Y:00 P:25 SP:F9 CYC:222 SL:30
15:25:16: E122  D0 FA     BNE $E11E                      A:7B X:9A Y:00 P:A5 SP:F9 CYC:228 SL:30
15:25:16: E11E  20 25 E1  JSR $E125                      A:7B X:9A Y:00 P:A5 SP:F9 CYC:237 SL:30
15:25:16: E125  48        PHA                            A:7B X:9A Y:00 P:A5 SP:F7 CYC:255 SL:30
15:25:16: E126  A9 00     LDA #$00                       A:7B X:9A Y:00 P:A5 SP:F6 CYC:264 SL:30
15:25:16: E128  8D 06 20  STA $2006 = 00                 A:00 X:9A Y:00 P:27 SP:F6 CYC:270 SL:30
15:25:16: E12B  8D 06 20  STA $2006 = 00                 A:00 X:9A Y:00 P:27 SP:F6 CYC:282 SL:30
15:25:16: E12E  A9 10     LDA #$10                       A:00 X:9A Y:00 P:27 SP:F6 CYC:294 SL:30
15:25:16: E130  8D 06 20  STA $2006 = 00                 A:10 X:9A Y:00 P:25 SP:F6 CYC:300 SL:30
15:25:16: E133  8D 06 20  STA $2006 = 00                 A:10 X:9A Y:00 P:25 SP:F6 CYC:312 SL:30
15:25:16: E136  A9 00     LDA #$00                       A:10 X:9A Y:00 P:25 SP:F6 CYC:324 SL:30
15:25:16: E138  8D 06 20  STA $2006 = 00                 A:00 X:9A Y:00 P:27 SP:F6 CYC:330 SL:30
15:25:16: E13B  8D 06 20  STA $2006 = 00                 A:00 X:9A Y:00 P:27 SP:F6 CYC:  1 SL:31
15:25:16: E13E  68        PLA                            A:00 X:9A Y:00 P:27 SP:F6 CYC: 13 SL:31
15:25:16: E13F  60        RTS                            A:7B X:9A Y:00 P:25 SP:F7 CYC: 25 SL:31
15:25:16: E121  CA        DEX                            A:7B X:9A Y:00 P:25 SP:F9 CYC: 43 SL:31
15:25:16: E122  D0 FA     BNE $E11E                      A:7B X:99 Y:00 P:A5 SP:F9 CYC: 49 SL:31
15:25:16: E11E  20 25 E1  JSR $E125                      A:7B X:99 Y:00 P:A5 SP:F9 CYC: 58 SL:31
15:25:16: E125  48        PHA                            A:7B X:99 Y:00 P:A5 SP:F7 CYC: 76 SL:31
15:25:16: E126  A9 00     LDA #$00                       A:7B X:99 Y:00 P:A5 SP:F6 CYC: 85 SL:31
15:25:16: E128  8D 06 20  STA $2006 = 00                 A:00 X:99 Y:00 P:27 SP:F6 CYC: 91 SL:31
15:25:16: E12B  8D 06 20  STA $2006 = 00                 A:00 X:99 Y:00 P:27 SP:F6 CYC:103 SL:31
15:25:16: E12E  A9 10     LDA #$10                       A:00 X:99 Y:00 P:27 SP:F6 CYC:115 SL:31
15:25:16: E130  8D 06 20  STA $2006 = 00                 A:10 X:99 Y:00 P:25 SP:F6 CYC:121 SL:31
15:25:16: E133  8D 06 20  STA $2006 = 00                 A:10 X:99 Y:00 P:25 SP:F6 CYC:133 SL:31
15:25:16: E136  A9 00     LDA #$00                       A:10 X:99 Y:00 P:25 SP:F6 CYC:145 SL:31
15:25:16: E138  8D 06 20  STA $2006 = 00                 A:00 X:99 Y:00 P:27 SP:F6 CYC:151 SL:31
15:25:16: E13B  8D 06 20  STA $2006 = 00                 A:00 X:99 Y:00 P:27 SP:F6 CYC:163 SL:31
15:25:16: E13E  68        PLA                            A:00 X:99 Y:00 P:27 SP:F6 CYC:175 SL:31
15:25:16: E13F  60        RTS                            A:7B X:99 Y:00 P:25 SP:F7 CYC:187 SL:31
15:25:16: E121  CA        DEX                            A:7B X:99 Y:00 P:25 SP:F9 CYC:205 SL:31
15:25:16: E122  D0 FA     BNE $E11E                      A:7B X:98 Y:00 P:A5 SP:F9 CYC:211 SL:31
15:25:16: E11E  20 25 E1  JSR $E125                      A:7B X:98 Y:00 P:A5 SP:F9 CYC:220 SL:31
15:25:16: E125  48        PHA                            A:7B X:98 Y:00 P:A5 SP:F7 CYC:238 SL:31
15:25:16: E126  A9 00     LDA #$00                       A:7B X:98 Y:00 P:A5 SP:F6 CYC:247 SL:31
15:25:16: E128  8D 06 20  STA $2006 = 00                 A:00 X:98 Y:00 P:27 SP:F6 CYC:253 SL:31
15:25:16: E12B  8D 06 20  STA $2006 = 00                 A:00 X:98 Y:00 P:27 SP:F6 CYC:265 SL:31
15:25:16: E12E  A9 10     LDA #$10                       A:00 X:98 Y:00 P:27 SP:F6 CYC:277 SL:31
15:25:16: E130  8D 06 20  STA $2006 = 00                 A:10 X:98 Y:00 P:25 SP:F6 CYC:283 SL:31
15:25:16: E133  8D 06 20  STA $2006 = 00                 A:10 X:98 Y:00 P:25 SP:F6 CYC:295 SL:31
15:25:16: E136  A9 00     LDA #$00                       A:10 X:98 Y:00 P:25 SP:F6 CYC:307 SL:31
15:25:16: E138  8D 06 20  STA $2006 = 00                 A:00 X:98 Y:00 P:27 SP:F6 CYC:313 SL:31
15:25:16: E13B  8D 06 20  STA $2006 = 00                 A:00 X:98 Y:00 P:27 SP:F6 CYC:325 SL:31
15:25:16: E13E  68        PLA                            A:00 X:98 Y:00 P:27 SP:F6 CYC:337 SL:31
15:25:16: E13F  60        RTS                            A:7B X:98 Y:00 P:25 SP:F7 CYC:  8 SL:32
15:25:16: E121  CA        DEX                            A:7B X:98 Y:00 P:25 SP:F9 CYC: 26 SL:32
15:25:16: E122  D0 FA     BNE $E11E                      A:7B X:97 Y:00 P:A5 SP:F9 CYC: 32 SL:32
15:25:16: E11E  20 25 E1  JSR $E125                      A:7B X:97 Y:00 P:A5 SP:F9 CYC: 41 SL:32
15:25:16: E125  48        PHA                            A:7B X:97 Y:00 P:A5 SP:F7 CYC: 59 SL:32
15:25:16: E126  A9 00     LDA #$00                       A:7B X:97 Y:00 P:A5 SP:F6 CYC: 68 SL:32
15:25:16: E128  8D 06 20  STA $2006 = 00                 A:00 X:97 Y:00 P:27 SP:F6 CYC: 74 SL:32
15:25:16: E12B  8D 06 20  STA $2006 = 00                 A:00 X:97 Y:00 P:27 SP:F6 CYC: 86 SL:32
15:25:16: E12E  A9 10     LDA #$10                       A:00 X:97 Y:00 P:27 SP:F6 CYC: 98 SL:32
15:25:16: E130  8D 06 20  STA $2006 = 00                 A:10 X:97 Y:00 P:25 SP:F6 CYC:104 SL:32
15:25:16: E133  8D 06 20  STA $2006 = 00                 A:10 X:97 Y:00 P:25 SP:F6 CYC:116 SL:32
15:25:16: E136  A9 00     LDA #$00                       A:10 X:97 Y:00 P:25 SP:F6 CYC:128 SL:32
15:25:16: E138  8D 06 20  STA $2006 = 00                 A:00 X:97 Y:00 P:27 SP:F6 CYC:134 SL:32
15:25:16: E13B  8D 06 20  STA $2006 = 00                 A:00 X:97 Y:00 P:27 SP:F6 CYC:146 SL:32
15:25:16: E13E  68        PLA                            A:00 X:97 Y:00 P:27 SP:F6 CYC:158 SL:32
15:25:16: E13F  60        RTS                            A:7B X:97 Y:00 P:25 SP:F7 CYC:170 SL:32
15:25:16: E121  CA        DEX                            A:7B X:97 Y:00 P:25 SP:F9 CYC:188 SL:32
15:25:16: E122  D0 FA     BNE $E11E                      A:7B X:96 Y:00 P:A5 SP:F9 CYC:194 SL:32
15:25:16: E11E  20 25 E1  JSR $E125                      A:7B X:96 Y:00 P:A5 SP:F9 CYC:203 SL:32
15:25:16: E125  48        PHA                            A:7B X:96 Y:00 P:A5 SP:F7 CYC:221 SL:32
15:25:16: E126  A9 00     LDA #$00                       A:7B X:96 Y:00 P:A5 SP:F6 CYC:230 SL:32
15:25:16: E128  8D 06 20  STA $2006 = 00                 A:00 X:96 Y:00 P:27 SP:F6 CYC:236 SL:32
15:25:16: E12B  8D 06 20  STA $2006 = 00                 A:00 X:96 Y:00 P:27 SP:F6 CYC:248 SL:32
15:25:16: E12E  A9 10     LDA #$10                       A:00 X:96 Y:00 P:27 SP:F6 CYC:260 SL:32
15:25:16: E130  8D 06 20  STA $2006 = 00                 A:10 X:96 Y:00 P:25 SP:F6 CYC:266 SL:32
15:25:16: E133  8D 06 20  STA $2006 = 00                 A:10 X:96 Y:00 P:25 SP:F6 CYC:278 SL:32
15:25:16: E136  A9 00     LDA #$00                       A:10 X:96 Y:00 P:25 SP:F6 CYC:290 SL:32
15:25:16: E138  8D 06 20  STA $2006 = 00                 A:00 X:96 Y:00 P:27 SP:F6 CYC:296 SL:32
15:25:16: E13B  8D 06 20  STA $2006 = 00                 A:00 X:96 Y:00 P:27 SP:F6 CYC:308 SL:32
15:25:16: E13E  68        PLA                            A:00 X:96 Y:00 P:27 SP:F6 CYC:320 SL:32
15:25:16: E13F  60        RTS                            A:7B X:96 Y:00 P:25 SP:F7 CYC:332 SL:32
15:25:16: E121  CA        DEX                            A:7B X:96 Y:00 P:25 SP:F9 CYC:  9 SL:33
15:25:16: E122  D0 FA     BNE $E11E                      A:7B X:95 Y:00 P:A5 SP:F9 CYC: 15 SL:33
15:25:16: E11E  20 25 E1  JSR $E125                      A:7B X:95 Y:00 P:A5 SP:F9 CYC: 24 SL:33
15:25:16: E125  48        PHA                            A:7B X:95 Y:00 P:A5 SP:F7 CYC: 42 SL:33
15:25:16: E126  A9 00     LDA #$00                       A:7B X:95 Y:00 P:A5 SP:F6 CYC: 51 SL:33
15:25:16: E128  8D 06 20  STA $2006 = 00                 A:00 X:95 Y:00 P:27 SP:F6 CYC: 57 SL:33
15:25:16: E12B  8D 06 20  STA $2006 = 00                 A:00 X:95 Y:00 P:27 SP:F6 CYC: 69 SL:33
15:25:16: E12E  A9 10     LDA #$10                       A:00 X:95 Y:00 P:27 SP:F6 CYC: 81 SL:33
15:25:16: E130  8D 06 20  STA $2006 = 00                 A:10 X:95 Y:00 P:25 SP:F6 CYC: 87 SL:33
15:25:16: E133  8D 06 20  STA $2006 = 00                 A:10 X:95 Y:00 P:25 SP:F6 CYC: 99 SL:33
15:25:16: E136  A9 00     LDA #$00                       A:10 X:95 Y:00 P:25 SP:F6 CYC:111 SL:33
15:25:16: E138  8D 06 20  STA $2006 = 00                 A:00 X:95 Y:00 P:27 SP:F6 CYC:117 SL:33
15:25:16: E13B  8D 06 20  STA $2006 = 00                 A:00 X:95 Y:00 P:27 SP:F6 CYC:129 SL:33
15:25:16: E13E  68        PLA                            A:00 X:95 Y:00 P:27 SP:F6 CYC:141 SL:33
15:25:16: E13F  60        RTS                            A:7B X:95 Y:00 P:25 SP:F7 CYC:153 SL:33
15:25:16: E121  CA        DEX                            A:7B X:95 Y:00 P:25 SP:F9 CYC:171 SL:33
15:25:16: E122  D0 FA     BNE $E11E                      A:7B X:94 Y:00 P:A5 SP:F9 CYC:177 SL:33
15:25:16: E11E  20 25 E1  JSR $E125                      A:7B X:94 Y:00 P:A5 SP:F9 CYC:186 SL:33
15:25:16: E125  48        PHA                            A:7B X:94 Y:00 P:A5 SP:F7 CYC:204 SL:33
15:25:16: E126  A9 00     LDA #$00                       A:7B X:94 Y:00 P:A5 SP:F6 CYC:213 SL:33
15:25:16: E128  8D 06 20  STA $2006 = 00                 A:00 X:94 Y:00 P:27 SP:F6 CYC:219 SL:33
15:25:16: E12B  8D 06 20  STA $2006 = 00                 A:00 X:94 Y:00 P:27 SP:F6 CYC:231 SL:33
15:25:16: E12E  A9 10     LDA #$10                       A:00 X:94 Y:00 P:27 SP:F6 CYC:243 SL:33
15:25:16: E130  8D 06 20  STA $2006 = 00                 A:10 X:94 Y:00 P:25 SP:F6 CYC:249 SL:33
15:25:16: E133  8D 06 20  STA $2006 = 00                 A:10 X:94 Y:00 P:25 SP:F6 CYC:261 SL:33
15:25:16: E136  A9 00     LDA #$00                       A:10 X:94 Y:00 P:25 SP:F6 CYC:273 SL:33
15:25:16: E138  8D 06 20  STA $2006 = 00                 A:00 X:94 Y:00 P:27 SP:F6 CYC:279 SL:33
15:25:16: E13B  8D 06 20  STA $2006 = 00                 A:00 X:94 Y:00 P:27 SP:F6 CYC:291 SL:33
15:25:16: E13E  68        PLA                            A:00 X:94 Y:00 P:27 SP:F6 CYC:303 SL:33
15:25:16: E13F  60        RTS                            A:7B X:94 Y:00 P:25 SP:F7 CYC:315 SL:33
15:25:16: E121  CA        DEX                            A:7B X:94 Y:00 P:25 SP:F9 CYC:333 SL:33
15:25:16: E122  D0 FA     BNE $E11E                      A:7B X:93 Y:00 P:A5 SP:F9 CYC:339 SL:33
15:25:16: E11E  20 25 E1  JSR $E125                      A:7B X:93 Y:00 P:A5 SP:F9 CYC:  7 SL:34
15:25:16: E125  48        PHA                            A:7B X:93 Y:00 P:A5 SP:F7 CYC: 25 SL:34
15:25:16: E126  A9 00     LDA #$00                       A:7B X:93 Y:00 P:A5 SP:F6 CYC: 34 SL:34
15:25:16: E128  8D 06 20  STA $2006 = 00                 A:00 X:93 Y:00 P:27 SP:F6 CYC: 40 SL:34
15:25:16: E12B  8D 06 20  STA $2006 = 00                 A:00 X:93 Y:00 P:27 SP:F6 CYC: 52 SL:34
15:25:16: E12E  A9 10     LDA #$10                       A:00 X:93 Y:00 P:27 SP:F6 CYC: 64 SL:34
15:25:16: E130  8D 06 20  STA $2006 = 00                 A:10 X:93 Y:00 P:25 SP:F6 CYC: 70 SL:34
15:25:16: E133  8D 06 20  STA $2006 = 00                 A:10 X:93 Y:00 P:25 SP:F6 CYC: 82 SL:34
15:25:16: E136  A9 00     LDA #$00                       A:10 X:93 Y:00 P:25 SP:F6 CYC: 94 SL:34
15:25:16: E138  8D 06 20  STA $2006 = 00                 A:00 X:93 Y:00 P:27 SP:F6 CYC:100 SL:34
15:25:16: E13B  8D 06 20  STA $2006 = 00                 A:00 X:93 Y:00 P:27 SP:F6 CYC:112 SL:34
15:25:16: E13E  68        PLA                            A:00 X:93 Y:00 P:27 SP:F6 CYC:124 SL:34
15:25:16: E13F  60        RTS                            A:7B X:93 Y:00 P:25 SP:F7 CYC:136 SL:34
15:25:16: E121  CA        DEX                            A:7B X:93 Y:00 P:25 SP:F9 CYC:154 SL:34
15:25:16: E122  D0 FA     BNE $E11E                      A:7B X:92 Y:00 P:A5 SP:F9 CYC:160 SL:34
15:25:16: E11E  20 25 E1  JSR $E125                      A:7B X:92 Y:00 P:A5 SP:F9 CYC:169 SL:34
15:25:16: E125  48        PHA                            A:7B X:92 Y:00 P:A5 SP:F7 CYC:187 SL:34
15:25:16: E126  A9 00     LDA #$00                       A:7B X:92 Y:00 P:A5 SP:F6 CYC:196 SL:34
15:25:16: E128  8D 06 20  STA $2006 = 00                 A:00 X:92 Y:00 P:27 SP:F6 CYC:202 SL:34
15:25:16: E12B  8D 06 20  STA $2006 = 00                 A:00 X:92 Y:00 P:27 SP:F6 CYC:214 SL:34
15:25:16: E12E  A9 10     LDA #$10                       A:00 X:92 Y:00 P:27 SP:F6 CYC:226 SL:34
15:25:16: E130  8D 06 20  STA $2006 = 00                 A:10 X:92 Y:00 P:25 SP:F6 CYC:232 SL:34
15:25:16: E133  8D 06 20  STA $2006 = 00                 A:10 X:92 Y:00 P:25 SP:F6 CYC:244 SL:34
15:25:16: E136  A9 00     LDA #$00                       A:10 X:92 Y:00 P:25 SP:F6 CYC:256 SL:34
15:25:16: E138  8D 06 20  STA $2006 = 00                 A:00 X:92 Y:00 P:27 SP:F6 CYC:262 SL:34
15:25:16: E13B  8D 06 20  STA $2006 = 00                 A:00 X:92 Y:00 P:27 SP:F6 CYC:274 SL:34
15:25:16: E13E  68        PLA                            A:00 X:92 Y:00 P:27 SP:F6 CYC:286 SL:34
15:25:16: E13F  60        RTS                            A:7B X:92 Y:00 P:25 SP:F7 CYC:298 SL:34
15:25:16: E121  CA        DEX                            A:7B X:92 Y:00 P:25 SP:F9 CYC:316 SL:34
15:25:16: E122  D0 FA     BNE $E11E                      A:7B X:91 Y:00 P:A5 SP:F9 CYC:322 SL:34
15:25:16: E11E  20 25 E1  JSR $E125                      A:7B X:91 Y:00 P:A5 SP:F9 CYC:331 SL:34
15:25:16: E125  48        PHA                            A:7B X:91 Y:00 P:A5 SP:F7 CYC:  8 SL:35
15:25:16: E126  A9 00     LDA #$00                       A:7B X:91 Y:00 P:A5 SP:F6 CYC: 17 SL:35
15:25:16: E128  8D 06 20  STA $2006 = 00                 A:00 X:91 Y:00 P:27 SP:F6 CYC: 23 SL:35
15:25:16: E12B  8D 06 20  STA $2006 = 00                 A:00 X:91 Y:00 P:27 SP:F6 CYC: 35 SL:35
15:25:16: E12E  A9 10     LDA #$10                       A:00 X:91 Y:00 P:27 SP:F6 CYC: 47 SL:35
15:25:16: E130  8D 06 20  STA $2006 = 00                 A:10 X:91 Y:00 P:25 SP:F6 CYC: 53 SL:35
15:25:16: E133  8D 06 20  STA $2006 = 00                 A:10 X:91 Y:00 P:25 SP:F6 CYC: 65 SL:35
15:25:16: E136  A9 00     LDA #$00                       A:10 X:91 Y:00 P:25 SP:F6 CYC: 77 SL:35
15:25:16: E138  8D 06 20  STA $2006 = 00                 A:00 X:91 Y:00 P:27 SP:F6 CYC: 83 SL:35
15:25:16: E13B  8D 06 20  STA $2006 = 00                 A:00 X:91 Y:00 P:27 SP:F6 CYC: 95 SL:35
15:25:16: E13E  68        PLA                            A:00 X:91 Y:00 P:27 SP:F6 CYC:107 SL:35
15:25:16: E13F  60        RTS                            A:7B X:91 Y:00 P:25 SP:F7 CYC:119 SL:35
15:25:16: E121  CA        DEX                            A:7B X:91 Y:00 P:25 SP:F9 CYC:137 SL:35
15:25:16: E122  D0 FA     BNE $E11E                      A:7B X:90 Y:00 P:A5 SP:F9 CYC:143 SL:35
15:25:16: E11E  20 25 E1  JSR $E125                      A:7B X:90 Y:00 P:A5 SP:F9 CYC:152 SL:35
15:25:16: E125  48        PHA                            A:7B X:90 Y:00 P:A5 SP:F7 CYC:170 SL:35
15:25:16: E126  A9 00     LDA #$00                       A:7B X:90 Y:00 P:A5 SP:F6 CYC:179 SL:35
15:25:16: E128  8D 06 20  STA $2006 = 00                 A:00 X:90 Y:00 P:27 SP:F6 CYC:185 SL:35
15:25:16: E12B  8D 06 20  STA $2006 = 00                 A:00 X:90 Y:00 P:27 SP:F6 CYC:197 SL:35
15:25:16: E12E  A9 10     LDA #$10                       A:00 X:90 Y:00 P:27 SP:F6 CYC:209 SL:35
15:25:16: E130  8D 06 20  STA $2006 = 00                 A:10 X:90 Y:00 P:25 SP:F6 CYC:215 SL:35
15:25:16: E133  8D 06 20  STA $2006 = 00                 A:10 X:90 Y:00 P:25 SP:F6 CYC:227 SL:35
15:25:16: E136  A9 00     LDA #$00                       A:10 X:90 Y:00 P:25 SP:F6 CYC:239 SL:35
15:25:16: E138  8D 06 20  STA $2006 = 00                 A:00 X:90 Y:00 P:27 SP:F6 CYC:245 SL:35
15:25:16: E13B  8D 06 20  STA $2006 = 00                 A:00 X:90 Y:00 P:27 SP:F6 CYC:257 SL:35
15:25:16: E13E  68        PLA                            A:00 X:90 Y:00 P:27 SP:F6 CYC:269 SL:35
15:25:16: E13F  60        RTS                            A:7B X:90 Y:00 P:25 SP:F7 CYC:281 SL:35
15:25:16: E121  CA        DEX                            A:7B X:90 Y:00 P:25 SP:F9 CYC:299 SL:35
15:25:16: E122  D0 FA     BNE $E11E                      A:7B X:8F Y:00 P:A5 SP:F9 CYC:305 SL:35
15:25:16: E11E  20 25 E1  JSR $E125                      A:7B X:8F Y:00 P:A5 SP:F9 CYC:314 SL:35
15:25:16: E125  48        PHA                            A:7B X:8F Y:00 P:A5 SP:F7 CYC:332 SL:35
15:25:16: E126  A9 00     LDA #$00                       A:7B X:8F Y:00 P:A5 SP:F6 CYC:  0 SL:36
15:25:16: E128  8D 06 20  STA $2006 = 00                 A:00 X:8F Y:00 P:27 SP:F6 CYC:  6 SL:36
15:25:16: E12B  8D 06 20  STA $2006 = 00                 A:00 X:8F Y:00 P:27 SP:F6 CYC: 18 SL:36
15:25:16: E12E  A9 10     LDA #$10                       A:00 X:8F Y:00 P:27 SP:F6 CYC: 30 SL:36
15:25:16: E130  8D 06 20  STA $2006 = 00                 A:10 X:8F Y:00 P:25 SP:F6 CYC: 36 SL:36
15:25:16: E133  8D 06 20  STA $2006 = 00                 A:10 X:8F Y:00 P:25 SP:F6 CYC: 48 SL:36
15:25:16: E136  A9 00     LDA #$00                       A:10 X:8F Y:00 P:25 SP:F6 CYC: 60 SL:36
15:25:16: E138  8D 06 20  STA $2006 = 00                 A:00 X:8F Y:00 P:27 SP:F6 CYC: 66 SL:36
15:25:16: E13B  8D 06 20  STA $2006 = 00                 A:00 X:8F Y:00 P:27 SP:F6 CYC: 78 SL:36
15:25:16: E13E  68        PLA                            A:00 X:8F Y:00 P:27 SP:F6 CYC: 90 SL:36
15:25:16: E13F  60        RTS                            A:7B X:8F Y:00 P:25 SP:F7 CYC:102 SL:36
15:25:16: E121  CA        DEX                            A:7B X:8F Y:00 P:25 SP:F9 CYC:120 SL:36
15:25:16: E122  D0 FA     BNE $E11E                      A:7B X:8E Y:00 P:A5 SP:F9 CYC:126 SL:36
15:25:16: E11E  20 25 E1  JSR $E125                      A:7B X:8E Y:00 P:A5 SP:F9 CYC:135 SL:36
15:25:16: E125  48        PHA                            A:7B X:8E Y:00 P:A5 SP:F7 CYC:153 SL:36
15:25:16: E126  A9 00     LDA #$00                       A:7B X:8E Y:00 P:A5 SP:F6 CYC:162 SL:36
15:25:16: E128  8D 06 20  STA $2006 = 00                 A:00 X:8E Y:00 P:27 SP:F6 CYC:168 SL:36
15:25:16: E12B  8D 06 20  STA $2006 = 00                 A:00 X:8E Y:00 P:27 SP:F6 CYC:180 SL:36
15:25:16: E12E  A9 10     LDA #$10                       A:00 X:8E Y:00 P:27 SP:F6 CYC:192 SL:36
15:25:16: E130  8D 06 20  STA $2006 = 00                 A:10 X:8E Y:00 P:25 SP:F6 CYC:198 SL:36
15:25:16: E133  8D 06 20  STA $2006 = 00                 A:10 X:8E Y:00 P:25 SP:F6 CYC:210 SL:36
15:25:16: E136  A9 00     LDA #$00                       A:10 X:8E Y:00 P:25 SP:F6 CYC:222 SL:36
15:25:16: E138  8D 06 20  STA $2006 = 00                 A:00 X:8E Y:00 P:27 SP:F6 CYC:228 SL:36
15:25:16: E13B  8D 06 20  STA $2006 = 00                 A:00 X:8E Y:00 P:27 SP:F6 CYC:240 SL:36
15:25:16: E13E  68        PLA                            A:00 X:8E Y:00 P:27 SP:F6 CYC:252 SL:36
15:25:16: E13F  60        RTS                            A:7B X:8E Y:00 P:25 SP:F7 CYC:264 SL:36
15:25:16: E121  CA        DEX                            A:7B X:8E Y:00 P:25 SP:F9 CYC:282 SL:36
15:25:16: E122  D0 FA     BNE $E11E                      A:7B X:8D Y:00 P:A5 SP:F9 CYC:288 SL:36
15:25:16: E11E  20 25 E1  JSR $E125                      A:7B X:8D Y:00 P:A5 SP:F9 CYC:297 SL:36
15:25:16: E125  48        PHA                            A:7B X:8D Y:00 P:A5 SP:F7 CYC:315 SL:36
15:25:16: E126  A9 00     LDA #$00                       A:7B X:8D Y:00 P:A5 SP:F6 CYC:324 SL:36
15:25:16: E128  8D 06 20  STA $2006 = 00                 A:00 X:8D Y:00 P:27 SP:F6 CYC:330 SL:36
15:25:16: E12B  8D 06 20  STA $2006 = 00                 A:00 X:8D Y:00 P:27 SP:F6 CYC:  1 SL:37
15:25:16: E12E  A9 10     LDA #$10                       A:00 X:8D Y:00 P:27 SP:F6 CYC: 13 SL:37
15:25:16: E130  8D 06 20  STA $2006 = 00                 A:10 X:8D Y:00 P:25 SP:F6 CYC: 19 SL:37
15:25:16: E133  8D 06 20  STA $2006 = 00                 A:10 X:8D Y:00 P:25 SP:F6 CYC: 31 SL:37
15:25:16: E136  A9 00     LDA #$00                       A:10 X:8D Y:00 P:25 SP:F6 CYC: 43 SL:37
15:25:16: E138  8D 06 20  STA $2006 = 00                 A:00 X:8D Y:00 P:27 SP:F6 CYC: 49 SL:37
15:25:16: E13B  8D 06 20  STA $2006 = 00                 A:00 X:8D Y:00 P:27 SP:F6 CYC: 61 SL:37
15:25:16: E13E  68        PLA                            A:00 X:8D Y:00 P:27 SP:F6 CYC: 73 SL:37
15:25:16: E13F  60        RTS                            A:7B X:8D Y:00 P:25 SP:F7 CYC: 85 SL:37
15:25:16: E121  CA        DEX                            A:7B X:8D Y:00 P:25 SP:F9 CYC:103 SL:37
15:25:16: E122  D0 FA     BNE $E11E                      A:7B X:8C Y:00 P:A5 SP:F9 CYC:109 SL:37
15:25:16: E11E  20 25 E1  JSR $E125                      A:7B X:8C Y:00 P:A5 SP:F9 CYC:118 SL:37
15:25:16: E125  48        PHA                            A:7B X:8C Y:00 P:A5 SP:F7 CYC:136 SL:37
15:25:16: E126  A9 00     LDA #$00                       A:7B X:8C Y:00 P:A5 SP:F6 CYC:145 SL:37
15:25:16: E128  8D 06 20  STA $2006 = 00                 A:00 X:8C Y:00 P:27 SP:F6 CYC:151 SL:37
15:25:16: E12B  8D 06 20  STA $2006 = 00                 A:00 X:8C Y:00 P:27 SP:F6 CYC:163 SL:37
15:25:16: E12E  A9 10     LDA #$10                       A:00 X:8C Y:00 P:27 SP:F6 CYC:175 SL:37
15:25:16: E130  8D 06 20  STA $2006 = 00                 A:10 X:8C Y:00 P:25 SP:F6 CYC:181 SL:37
15:25:16: E133  8D 06 20  STA $2006 = 00                 A:10 X:8C Y:00 P:25 SP:F6 CYC:193 SL:37
15:25:16: E136  A9 00     LDA #$00                       A:10 X:8C Y:00 P:25 SP:F6 CYC:205 SL:37
15:25:16: E138  8D 06 20  STA $2006 = 00                 A:00 X:8C Y:00 P:27 SP:F6 CYC:211 SL:37
15:25:16: E13B  8D 06 20  STA $2006 = 00                 A:00 X:8C Y:00 P:27 SP:F6 CYC:223 SL:37
15:25:16: E13E  68        PLA                            A:00 X:8C Y:00 P:27 SP:F6 CYC:235 SL:37
15:25:16: E13F  60        RTS                            A:7B X:8C Y:00 P:25 SP:F7 CYC:247 SL:37
15:25:16: E121  CA        DEX                            A:7B X:8C Y:00 P:25 SP:F9 CYC:265 SL:37
15:25:16: E122  D0 FA     BNE $E11E                      A:7B X:8B Y:00 P:A5 SP:F9 CYC:271 SL:37
15:25:16: E11E  20 25 E1  JSR $E125                      A:7B X:8B Y:00 P:A5 SP:F9 CYC:280 SL:37
15:25:16: E125  48        PHA                            A:7B X:8B Y:00 P:A5 SP:F7 CYC:298 SL:37
15:25:16: E126  A9 00     LDA #$00                       A:7B X:8B Y:00 P:A5 SP:F6 CYC:307 SL:37
15:25:16: E128  8D 06 20  STA $2006 = 00                 A:00 X:8B Y:00 P:27 SP:F6 CYC:313 SL:37
15:25:16: E12B  8D 06 20  STA $2006 = 00                 A:00 X:8B Y:00 P:27 SP:F6 CYC:325 SL:37
15:25:16: E12E  A9 10     LDA #$10                       A:00 X:8B Y:00 P:27 SP:F6 CYC:337 SL:37
15:25:16: E130  8D 06 20  STA $2006 = 00                 A:10 X:8B Y:00 P:25 SP:F6 CYC:  2 SL:38
15:25:16: E133  8D 06 20  STA $2006 = 00                 A:10 X:8B Y:00 P:25 SP:F6 CYC: 14 SL:38
15:25:16: E136  A9 00     LDA #$00                       A:10 X:8B Y:00 P:25 SP:F6 CYC: 26 SL:38
15:25:16: E138  8D 06 20  STA $2006 = 00                 A:00 X:8B Y:00 P:27 SP:F6 CYC: 32 SL:38
15:25:16: E13B  8D 06 20  STA $2006 = 00                 A:00 X:8B Y:00 P:27 SP:F6 CYC: 44 SL:38
15:25:16: E13E  68        PLA                            A:00 X:8B Y:00 P:27 SP:F6 CYC: 56 SL:38
15:25:16: E13F  60        RTS                            A:7B X:8B Y:00 P:25 SP:F7 CYC: 68 SL:38
15:25:16: E121  CA        DEX                            A:7B X:8B Y:00 P:25 SP:F9 CYC: 86 SL:38
15:25:16: E122  D0 FA     BNE $E11E                      A:7B X:8A Y:00 P:A5 SP:F9 CYC: 92 SL:38
15:25:16: E11E  20 25 E1  JSR $E125                      A:7B X:8A Y:00 P:A5 SP:F9 CYC:101 SL:38
15:25:16: E125  48        PHA                            A:7B X:8A Y:00 P:A5 SP:F7 CYC:119 SL:38
15:25:16: E126  A9 00     LDA #$00                       A:7B X:8A Y:00 P:A5 SP:F6 CYC:128 SL:38
15:25:16: E128  8D 06 20  STA $2006 = 00                 A:00 X:8A Y:00 P:27 SP:F6 CYC:134 SL:38
15:25:16: E12B  8D 06 20  STA $2006 = 00                 A:00 X:8A Y:00 P:27 SP:F6 CYC:146 SL:38
15:25:16: E12E  A9 10     LDA #$10                       A:00 X:8A Y:00 P:27 SP:F6 CYC:158 SL:38
15:25:16: E130  8D 06 20  STA $2006 = 00                 A:10 X:8A Y:00 P:25 SP:F6 CYC:164 SL:38
15:25:16: E133  8D 06 20  STA $2006 = 00                 A:10 X:8A Y:00 P:25 SP:F6 CYC:176 SL:38
15:25:16: E136  A9 00     LDA #$00                       A:10 X:8A Y:00 P:25 SP:F6 CYC:188 SL:38
15:25:16: E138  8D 06 20  STA $2006 = 00                 A:00 X:8A Y:00 P:27 SP:F6 CYC:194 SL:38
15:25:16: E13B  8D 06 20  STA $2006 = 00                 A:00 X:8A Y:00 P:27 SP:F6 CYC:206 SL:38
15:25:16: E13E  68        PLA                            A:00 X:8A Y:00 P:27 SP:F6 CYC:218 SL:38
15:25:16: E13F  60        RTS                            A:7B X:8A Y:00 P:25 SP:F7 CYC:230 SL:38
15:25:16: E121  CA        DEX                            A:7B X:8A Y:00 P:25 SP:F9 CYC:248 SL:38
15:25:16: E122  D0 FA     BNE $E11E                      A:7B X:89 Y:00 P:A5 SP:F9 CYC:254 SL:38
15:25:16: E11E  20 25 E1  JSR $E125                      A:7B X:89 Y:00 P:A5 SP:F9 CYC:263 SL:38
15:25:16: E125  48        PHA                            A:7B X:89 Y:00 P:A5 SP:F7 CYC:281 SL:38
15:25:16: E126  A9 00     LDA #$00                       A:7B X:89 Y:00 P:A5 SP:F6 CYC:290 SL:38
15:25:16: E128  8D 06 20  STA $2006 = 00                 A:00 X:89 Y:00 P:27 SP:F6 CYC:296 SL:38
15:25:16: E12B  8D 06 20  STA $2006 = 00                 A:00 X:89 Y:00 P:27 SP:F6 CYC:308 SL:38
15:25:16: E12E  A9 10     LDA #$10                       A:00 X:89 Y:00 P:27 SP:F6 CYC:320 SL:38
15:25:16: E130  8D 06 20  STA $2006 = 00                 A:10 X:89 Y:00 P:25 SP:F6 CYC:326 SL:38
15:25:16: E133  8D 06 20  STA $2006 = 00                 A:10 X:89 Y:00 P:25 SP:F6 CYC:338 SL:38
15:25:16: E136  A9 00     LDA #$00                       A:10 X:89 Y:00 P:25 SP:F6 CYC:  9 SL:39
15:25:16: E138  8D 06 20  STA $2006 = 00                 A:00 X:89 Y:00 P:27 SP:F6 CYC: 15 SL:39
15:25:16: E13B  8D 06 20  STA $2006 = 00                 A:00 X:89 Y:00 P:27 SP:F6 CYC: 27 SL:39
15:25:16: E13E  68        PLA                            A:00 X:89 Y:00 P:27 SP:F6 CYC: 39 SL:39
15:25:16: E13F  60        RTS                            A:7B X:89 Y:00 P:25 SP:F7 CYC: 51 SL:39
15:25:16: E121  CA        DEX                            A:7B X:89 Y:00 P:25 SP:F9 CYC: 69 SL:39
15:25:16: E122  D0 FA     BNE $E11E                      A:7B X:88 Y:00 P:A5 SP:F9 CYC: 75 SL:39
15:25:16: E11E  20 25 E1  JSR $E125                      A:7B X:88 Y:00 P:A5 SP:F9 CYC: 84 SL:39
15:25:16: E125  48        PHA                            A:7B X:88 Y:00 P:A5 SP:F7 CYC:102 SL:39
15:25:16: E126  A9 00     LDA #$00                       A:7B X:88 Y:00 P:A5 SP:F6 CYC:111 SL:39
15:25:16: E128  8D 06 20  STA $2006 = 00                 A:00 X:88 Y:00 P:27 SP:F6 CYC:117 SL:39
15:25:16: E12B  8D 06 20  STA $2006 = 00                 A:00 X:88 Y:00 P:27 SP:F6 CYC:129 SL:39
15:25:16: E12E  A9 10     LDA #$10                       A:00 X:88 Y:00 P:27 SP:F6 CYC:141 SL:39
15:25:16: E130  8D 06 20  STA $2006 = 00                 A:10 X:88 Y:00 P:25 SP:F6 CYC:147 SL:39
15:25:16: E133  8D 06 20  STA $2006 = 00                 A:10 X:88 Y:00 P:25 SP:F6 CYC:159 SL:39
15:25:16: E136  A9 00     LDA #$00                       A:10 X:88 Y:00 P:25 SP:F6 CYC:171 SL:39
15:25:16: E138  8D 06 20  STA $2006 = 00                 A:00 X:88 Y:00 P:27 SP:F6 CYC:177 SL:39
15:25:16: E13B  8D 06 20  STA $2006 = 00                 A:00 X:88 Y:00 P:27 SP:F6 CYC:189 SL:39
15:25:16: E13E  68        PLA                            A:00 X:88 Y:00 P:27 SP:F6 CYC:201 SL:39
15:25:16: E13F  60        RTS                            A:7B X:88 Y:00 P:25 SP:F7 CYC:213 SL:39
15:25:16: E121  CA        DEX                            A:7B X:88 Y:00 P:25 SP:F9 CYC:231 SL:39
15:25:16: E122  D0 FA     BNE $E11E                      A:7B X:87 Y:00 P:A5 SP:F9 CYC:237 SL:39
15:25:16: E11E  20 25 E1  JSR $E125                      A:7B X:87 Y:00 P:A5 SP:F9 CYC:246 SL:39
15:25:16: E125  48        PHA                            A:7B X:87 Y:00 P:A5 SP:F7 CYC:264 SL:39
15:25:16: E126  A9 00     LDA #$00                       A:7B X:87 Y:00 P:A5 SP:F6 CYC:273 SL:39
15:25:16: E128  8D 06 20  STA $2006 = 00                 A:00 X:87 Y:00 P:27 SP:F6 CYC:279 SL:39
15:25:16: E12B  8D 06 20  STA $2006 = 00                 A:00 X:87 Y:00 P:27 SP:F6 CYC:291 SL:39
15:25:16: E12E  A9 10     LDA #$10                       A:00 X:87 Y:00 P:27 SP:F6 CYC:303 SL:39
15:25:16: E130  8D 06 20  STA $2006 = 00                 A:10 X:87 Y:00 P:25 SP:F6 CYC:309 SL:39
15:25:16: E133  8D 06 20  STA $2006 = 00                 A:10 X:87 Y:00 P:25 SP:F6 CYC:321 SL:39
15:25:16: E136  A9 00     LDA #$00                       A:10 X:87 Y:00 P:25 SP:F6 CYC:333 SL:39
15:25:16: E138  8D 06 20  STA $2006 = 00                 A:00 X:87 Y:00 P:27 SP:F6 CYC:339 SL:39
15:25:16: E13B  8D 06 20  STA $2006 = 00                 A:00 X:87 Y:00 P:27 SP:F6 CYC: 10 SL:40
15:25:16: E13E  68        PLA                            A:00 X:87 Y:00 P:27 SP:F6 CYC: 22 SL:40
15:25:16: E13F  60        RTS                            A:7B X:87 Y:00 P:25 SP:F7 CYC: 34 SL:40
15:25:16: E121  CA        DEX                            A:7B X:87 Y:00 P:25 SP:F9 CYC: 52 SL:40
15:25:16: E122  D0 FA     BNE $E11E                      A:7B X:86 Y:00 P:A5 SP:F9 CYC: 58 SL:40
15:25:16: E11E  20 25 E1  JSR $E125                      A:7B X:86 Y:00 P:A5 SP:F9 CYC: 67 SL:40
15:25:16: E125  48        PHA                            A:7B X:86 Y:00 P:A5 SP:F7 CYC: 85 SL:40
15:25:16: E126  A9 00     LDA #$00                       A:7B X:86 Y:00 P:A5 SP:F6 CYC: 94 SL:40
15:25:16: E128  8D 06 20  STA $2006 = 00                 A:00 X:86 Y:00 P:27 SP:F6 CYC:100 SL:40
15:25:16: E12B  8D 06 20  STA $2006 = 00                 A:00 X:86 Y:00 P:27 SP:F6 CYC:112 SL:40
15:25:16: E12E  A9 10     LDA #$10                       A:00 X:86 Y:00 P:27 SP:F6 CYC:124 SL:40
15:25:16: E130  8D 06 20  STA $2006 = 00                 A:10 X:86 Y:00 P:25 SP:F6 CYC:130 SL:40
15:25:16: E133  8D 06 20  STA $2006 = 00                 A:10 X:86 Y:00 P:25 SP:F6 CYC:142 SL:40
15:25:16: E136  A9 00     LDA #$00                       A:10 X:86 Y:00 P:25 SP:F6 CYC:154 SL:40
15:25:16: E138  8D 06 20  STA $2006 = 00                 A:00 X:86 Y:00 P:27 SP:F6 CYC:160 SL:40
15:25:16: E13B  8D 06 20  STA $2006 = 00                 A:00 X:86 Y:00 P:27 SP:F6 CYC:172 SL:40
15:25:16: E13E  68        PLA                            A:00 X:86 Y:00 P:27 SP:F6 CYC:184 SL:40
15:25:16: E13F  60        RTS                            A:7B X:86 Y:00 P:25 SP:F7 CYC:196 SL:40
15:25:16: E121  CA        DEX                            A:7B X:86 Y:00 P:25 SP:F9 CYC:214 SL:40
15:25:16: E122  D0 FA     BNE $E11E                      A:7B X:85 Y:00 P:A5 SP:F9 CYC:220 SL:40
15:25:16: E11E  20 25 E1  JSR $E125                      A:7B X:85 Y:00 P:A5 SP:F9 CYC:229 SL:40
15:25:16: E125  48        PHA                            A:7B X:85 Y:00 P:A5 SP:F7 CYC:247 SL:40
15:25:16: E126  A9 00     LDA #$00                       A:7B X:85 Y:00 P:A5 SP:F6 CYC:256 SL:40
15:25:16: E128  8D 06 20  STA $2006 = 00                 A:00 X:85 Y:00 P:27 SP:F6 CYC:262 SL:40
15:25:16: E12B  8D 06 20  STA $2006 = 00                 A:00 X:85 Y:00 P:27 SP:F6 CYC:274 SL:40
15:25:16: E12E  A9 10     LDA #$10                       A:00 X:85 Y:00 P:27 SP:F6 CYC:286 SL:40
15:25:16: E130  8D 06 20  STA $2006 = 00                 A:10 X:85 Y:00 P:25 SP:F6 CYC:292 SL:40
15:25:16: E133  8D 06 20  STA $2006 = 00                 A:10 X:85 Y:00 P:25 SP:F6 CYC:304 SL:40
15:25:16: E136  A9 00     LDA #$00                       A:10 X:85 Y:00 P:25 SP:F6 CYC:316 SL:40
15:25:16: E138  8D 06 20  STA $2006 = 00                 A:00 X:85 Y:00 P:27 SP:F6 CYC:322 SL:40
15:25:16: E13B  8D 06 20  STA $2006 = 00                 A:00 X:85 Y:00 P:27 SP:F6 CYC:334 SL:40
15:25:16: E13E  68        PLA                            A:00 X:85 Y:00 P:27 SP:F6 CYC:  5 SL:41
15:25:16: E13F  60        RTS                            A:7B X:85 Y:00 P:25 SP:F7 CYC: 17 SL:41
15:25:16: E121  CA        DEX                            A:7B X:85 Y:00 P:25 SP:F9 CYC: 35 SL:41
15:25:16: E122  D0 FA     BNE $E11E                      A:7B X:84 Y:00 P:A5 SP:F9 CYC: 41 SL:41
15:25:16: E11E  20 25 E1  JSR $E125                      A:7B X:84 Y:00 P:A5 SP:F9 CYC: 50 SL:41
15:25:16: E125  48        PHA                            A:7B X:84 Y:00 P:A5 SP:F7 CYC: 68 SL:41
15:25:16: E126  A9 00     LDA #$00                       A:7B X:84 Y:00 P:A5 SP:F6 CYC: 77 SL:41
15:25:16: E128  8D 06 20  STA $2006 = 00                 A:00 X:84 Y:00 P:27 SP:F6 CYC: 83 SL:41
15:25:16: E12B  8D 06 20  STA $2006 = 00                 A:00 X:84 Y:00 P:27 SP:F6 CYC: 95 SL:41
15:25:16: E12E  A9 10     LDA #$10                       A:00 X:84 Y:00 P:27 SP:F6 CYC:107 SL:41
15:25:16: E130  8D 06 20  STA $2006 = 00                 A:10 X:84 Y:00 P:25 SP:F6 CYC:113 SL:41
15:25:16: E133  8D 06 20  STA $2006 = 00                 A:10 X:84 Y:00 P:25 SP:F6 CYC:125 SL:41
15:25:16: E136  A9 00     LDA #$00                       A:10 X:84 Y:00 P:25 SP:F6 CYC:137 SL:41
15:25:16: E138  8D 06 20  STA $2006 = 00                 A:00 X:84 Y:00 P:27 SP:F6 CYC:143 SL:41
15:25:16: E13B  8D 06 20  STA $2006 = 00                 A:00 X:84 Y:00 P:27 SP:F6 CYC:155 SL:41
15:25:16: E13E  68        PLA                            A:00 X:84 Y:00 P:27 SP:F6 CYC:167 SL:41
15:25:16: E13F  60        RTS                            A:7B X:84 Y:00 P:25 SP:F7 CYC:179 SL:41
15:25:16: E121  CA        DEX                            A:7B X:84 Y:00 P:25 SP:F9 CYC:197 SL:41
15:25:16: E122  D0 FA     BNE $E11E                      A:7B X:83 Y:00 P:A5 SP:F9 CYC:203 SL:41
15:25:16: E11E  20 25 E1  JSR $E125                      A:7B X:83 Y:00 P:A5 SP:F9 CYC:212 SL:41
15:25:16: E125  48        PHA                            A:7B X:83 Y:00 P:A5 SP:F7 CYC:230 SL:41
15:25:16: E126  A9 00     LDA #$00                       A:7B X:83 Y:00 P:A5 SP:F6 CYC:239 SL:41
15:25:16: E128  8D 06 20  STA $2006 = 00                 A:00 X:83 Y:00 P:27 SP:F6 CYC:245 SL:41
15:25:16: E12B  8D 06 20  STA $2006 = 00                 A:00 X:83 Y:00 P:27 SP:F6 CYC:257 SL:41
15:25:16: E12E  A9 10     LDA #$10                       A:00 X:83 Y:00 P:27 SP:F6 CYC:269 SL:41
15:25:16: E130  8D 06 20  STA $2006 = 00                 A:10 X:83 Y:00 P:25 SP:F6 CYC:275 SL:41
15:25:16: E133  8D 06 20  STA $2006 = 00                 A:10 X:83 Y:00 P:25 SP:F6 CYC:287 SL:41
15:25:16: E136  A9 00     LDA #$00                       A:10 X:83 Y:00 P:25 SP:F6 CYC:299 SL:41
15:25:16: E138  8D 06 20  STA $2006 = 00                 A:00 X:83 Y:00 P:27 SP:F6 CYC:305 SL:41
15:25:16: E13B  8D 06 20  STA $2006 = 00                 A:00 X:83 Y:00 P:27 SP:F6 CYC:317 SL:41
15:25:16: E13E  68        PLA                            A:00 X:83 Y:00 P:27 SP:F6 CYC:329 SL:41
15:25:16: E13F  60        RTS                            A:7B X:83 Y:00 P:25 SP:F7 CYC:  0 SL:42
15:25:16: E121  CA        DEX                            A:7B X:83 Y:00 P:25 SP:F9 CYC: 18 SL:42
15:25:16: E122  D0 FA     BNE $E11E                      A:7B X:82 Y:00 P:A5 SP:F9 CYC: 24 SL:42
15:25:16: E11E  20 25 E1  JSR $E125                      A:7B X:82 Y:00 P:A5 SP:F9 CYC: 33 SL:42
15:25:16: E125  48        PHA                            A:7B X:82 Y:00 P:A5 SP:F7 CYC: 51 SL:42
15:25:16: E126  A9 00     LDA #$00                       A:7B X:82 Y:00 P:A5 SP:F6 CYC: 60 SL:42
15:25:16: E128  8D 06 20  STA $2006 = 00                 A:00 X:82 Y:00 P:27 SP:F6 CYC: 66 SL:42
15:25:16: E12B  8D 06 20  STA $2006 = 00                 A:00 X:82 Y:00 P:27 SP:F6 CYC: 78 SL:42
15:25:16: E12E  A9 10     LDA #$10                       A:00 X:82 Y:00 P:27 SP:F6 CYC: 90 SL:42
15:25:16: E130  8D 06 20  STA $2006 = 00                 A:10 X:82 Y:00 P:25 SP:F6 CYC: 96 SL:42
15:25:16: E133  8D 06 20  STA $2006 = 00                 A:10 X:82 Y:00 P:25 SP:F6 CYC:108 SL:42
15:25:16: E136  A9 00     LDA #$00                       A:10 X:82 Y:00 P:25 SP:F6 CYC:120 SL:42
15:25:16: E138  8D 06 20  STA $2006 = 00                 A:00 X:82 Y:00 P:27 SP:F6 CYC:126 SL:42
15:25:16: E13B  8D 06 20  STA $2006 = 00                 A:00 X:82 Y:00 P:27 SP:F6 CYC:138 SL:42
15:25:16: E13E  68        PLA                            A:00 X:82 Y:00 P:27 SP:F6 CYC:150 SL:42
15:25:16: E13F  60        RTS                            A:7B X:82 Y:00 P:25 SP:F7 CYC:162 SL:42
15:25:16: E121  CA        DEX                            A:7B X:82 Y:00 P:25 SP:F9 CYC:180 SL:42
15:25:16: E122  D0 FA     BNE $E11E                      A:7B X:81 Y:00 P:A5 SP:F9 CYC:186 SL:42
15:25:16: E11E  20 25 E1  JSR $E125                      A:7B X:81 Y:00 P:A5 SP:F9 CYC:195 SL:42
15:25:16: E125  48        PHA                            A:7B X:81 Y:00 P:A5 SP:F7 CYC:213 SL:42
15:25:16: E126  A9 00     LDA #$00                       A:7B X:81 Y:00 P:A5 SP:F6 CYC:222 SL:42
15:25:16: E128  8D 06 20  STA $2006 = 00                 A:00 X:81 Y:00 P:27 SP:F6 CYC:228 SL:42
15:25:16: E12B  8D 06 20  STA $2006 = 00                 A:00 X:81 Y:00 P:27 SP:F6 CYC:240 SL:42
15:25:16: E12E  A9 10     LDA #$10                       A:00 X:81 Y:00 P:27 SP:F6 CYC:252 SL:42
15:25:16: E130  8D 06 20  STA $2006 = 00                 A:10 X:81 Y:00 P:25 SP:F6 CYC:258 SL:42
15:25:16: E133  8D 06 20  STA $2006 = 00                 A:10 X:81 Y:00 P:25 SP:F6 CYC:270 SL:42
15:25:16: E136  A9 00     LDA #$00                       A:10 X:81 Y:00 P:25 SP:F6 CYC:282 SL:42
15:25:16: E138  8D 06 20  STA $2006 = 00                 A:00 X:81 Y:00 P:27 SP:F6 CYC:288 SL:42
15:25:16: E13B  8D 06 20  STA $2006 = 00                 A:00 X:81 Y:00 P:27 SP:F6 CYC:300 SL:42
15:25:16: E13E  68        PLA                            A:00 X:81 Y:00 P:27 SP:F6 CYC:312 SL:42
15:25:16: E13F  60        RTS                            A:7B X:81 Y:00 P:25 SP:F7 CYC:324 SL:42
15:25:16: E121  CA        DEX                            A:7B X:81 Y:00 P:25 SP:F9 CYC:  1 SL:43
15:25:16: E122  D0 FA     BNE $E11E                      A:7B X:80 Y:00 P:A5 SP:F9 CYC:  7 SL:43
15:25:16: E11E  20 25 E1  JSR $E125                      A:7B X:80 Y:00 P:A5 SP:F9 CYC: 16 SL:43
15:25:16: E125  48        PHA                            A:7B X:80 Y:00 P:A5 SP:F7 CYC: 34 SL:43
15:25:16: E126  A9 00     LDA #$00                       A:7B X:80 Y:00 P:A5 SP:F6 CYC: 43 SL:43
15:25:16: E128  8D 06 20  STA $2006 = 00                 A:00 X:80 Y:00 P:27 SP:F6 CYC: 49 SL:43
15:25:16: E12B  8D 06 20  STA $2006 = 00                 A:00 X:80 Y:00 P:27 SP:F6 CYC: 61 SL:43
15:25:16: E12E  A9 10     LDA #$10                       A:00 X:80 Y:00 P:27 SP:F6 CYC: 73 SL:43
15:25:16: E130  8D 06 20  STA $2006 = 00                 A:10 X:80 Y:00 P:25 SP:F6 CYC: 79 SL:43
15:25:16: E133  8D 06 20  STA $2006 = 00                 A:10 X:80 Y:00 P:25 SP:F6 CYC: 91 SL:43
15:25:16: E136  A9 00     LDA #$00                       A:10 X:80 Y:00 P:25 SP:F6 CYC:103 SL:43
15:25:16: E138  8D 06 20  STA $2006 = 00                 A:00 X:80 Y:00 P:27 SP:F6 CYC:109 SL:43
15:25:16: E13B  8D 06 20  STA $2006 = 00                 A:00 X:80 Y:00 P:27 SP:F6 CYC:121 SL:43
15:25:16: E13E  68        PLA                            A:00 X:80 Y:00 P:27 SP:F6 CYC:133 SL:43
15:25:16: E13F  60        RTS                            A:7B X:80 Y:00 P:25 SP:F7 CYC:145 SL:43
15:25:16: E121  CA        DEX                            A:7B X:80 Y:00 P:25 SP:F9 CYC:163 SL:43
15:25:16: E122  D0 FA     BNE $E11E                      A:7B X:7F Y:00 P:25 SP:F9 CYC:169 SL:43
15:25:16: E11E  20 25 E1  JSR $E125                      A:7B X:7F Y:00 P:25 SP:F9 CYC:178 SL:43
15:25:16: E125  48        PHA                            A:7B X:7F Y:00 P:25 SP:F7 CYC:196 SL:43
15:25:16: E126  A9 00     LDA #$00                       A:7B X:7F Y:00 P:25 SP:F6 CYC:205 SL:43
15:25:16: E128  8D 06 20  STA $2006 = 00                 A:00 X:7F Y:00 P:27 SP:F6 CYC:211 SL:43
15:25:16: E12B  8D 06 20  STA $2006 = 00                 A:00 X:7F Y:00 P:27 SP:F6 CYC:223 SL:43
15:25:16: E12E  A9 10     LDA #$10                       A:00 X:7F Y:00 P:27 SP:F6 CYC:235 SL:43
15:25:16: E130  8D 06 20  STA $2006 = 00                 A:10 X:7F Y:00 P:25 SP:F6 CYC:241 SL:43
15:25:16: E133  8D 06 20  STA $2006 = 00                 A:10 X:7F Y:00 P:25 SP:F6 CYC:253 SL:43
15:25:16: E136  A9 00     LDA #$00                       A:10 X:7F Y:00 P:25 SP:F6 CYC:265 SL:43
15:25:16: E138  8D 06 20  STA $2006 = 00                 A:00 X:7F Y:00 P:27 SP:F6 CYC:271 SL:43
15:25:16: E13B  8D 06 20  STA $2006 = 00                 A:00 X:7F Y:00 P:27 SP:F6 CYC:283 SL:43
15:25:16: E13E  68        PLA                            A:00 X:7F Y:00 P:27 SP:F6 CYC:295 SL:43
15:25:16: E13F  60        RTS                            A:7B X:7F Y:00 P:25 SP:F7 CYC:307 SL:43
15:25:16: E121  CA        DEX                            A:7B X:7F Y:00 P:25 SP:F9 CYC:325 SL:43
15:25:16: E122  D0 FA     BNE $E11E                      A:7B X:7E Y:00 P:25 SP:F9 CYC:331 SL:43
15:25:16: E11E  20 25 E1  JSR $E125                      A:7B X:7E Y:00 P:25 SP:F9 CYC:340 SL:43
15:25:16: E125  48        PHA                            A:7B X:7E Y:00 P:25 SP:F7 CYC: 17 SL:44
15:25:16: E126  A9 00     LDA #$00                       A:7B X:7E Y:00 P:25 SP:F6 CYC: 26 SL:44
15:25:16: E128  8D 06 20  STA $2006 = 00                 A:00 X:7E Y:00 P:27 SP:F6 CYC: 32 SL:44
15:25:17: E12B  8D 06 20  STA $2006 = 00                 A:00 X:7E Y:00 P:27 SP:F6 CYC: 44 SL:44
15:25:17: E12E  A9 10     LDA #$10                       A:00 X:7E Y:00 P:27 SP:F6 CYC: 56 SL:44
15:25:17: E130  8D 06 20  STA $2006 = 00                 A:10 X:7E Y:00 P:25 SP:F6 CYC: 62 SL:44
15:25:17: E133  8D 06 20  STA $2006 = 00                 A:10 X:7E Y:00 P:25 SP:F6 CYC: 74 SL:44
15:25:17: E136  A9 00     LDA #$00                       A:10 X:7E Y:00 P:25 SP:F6 CYC: 86 SL:44
15:25:17: E138  8D 06 20  STA $2006 = 00                 A:00 X:7E Y:00 P:27 SP:F6 CYC: 92 SL:44
15:25:17: E13B  8D 06 20  STA $2006 = 00                 A:00 X:7E Y:00 P:27 SP:F6 CYC:104 SL:44
15:25:17: E13E  68        PLA                            A:00 X:7E Y:00 P:27 SP:F6 CYC:116 SL:44
15:25:17: E13F  60        RTS                            A:7B X:7E Y:00 P:25 SP:F7 CYC:128 SL:44
15:25:17: E121  CA        DEX                            A:7B X:7E Y:00 P:25 SP:F9 CYC:146 SL:44
15:25:17: E122  D0 FA     BNE $E11E                      A:7B X:7D Y:00 P:25 SP:F9 CYC:152 SL:44
15:25:17: E11E  20 25 E1  JSR $E125                      A:7B X:7D Y:00 P:25 SP:F9 CYC:161 SL:44
15:25:17: E125  48        PHA                            A:7B X:7D Y:00 P:25 SP:F7 CYC:179 SL:44
15:25:17: E126  A9 00     LDA #$00                       A:7B X:7D Y:00 P:25 SP:F6 CYC:188 SL:44
15:25:17: E128  8D 06 20  STA $2006 = 00                 A:00 X:7D Y:00 P:27 SP:F6 CYC:194 SL:44
15:25:17: E12B  8D 06 20  STA $2006 = 00                 A:00 X:7D Y:00 P:27 SP:F6 CYC:206 SL:44
15:25:17: E12E  A9 10     LDA #$10                       A:00 X:7D Y:00 P:27 SP:F6 CYC:218 SL:44
15:25:17: E130  8D 06 20  STA $2006 = 00                 A:10 X:7D Y:00 P:25 SP:F6 CYC:224 SL:44
15:25:17: E133  8D 06 20  STA $2006 = 00                 A:10 X:7D Y:00 P:25 SP:F6 CYC:236 SL:44
15:25:17: E136  A9 00     LDA #$00                       A:10 X:7D Y:00 P:25 SP:F6 CYC:248 SL:44
15:25:17: E138  8D 06 20  STA $2006 = 00                 A:00 X:7D Y:00 P:27 SP:F6 CYC:254 SL:44
15:25:17: E13B  8D 06 20  STA $2006 = 00                 A:00 X:7D Y:00 P:27 SP:F6 CYC:266 SL:44
15:25:17: E13E  68        PLA                            A:00 X:7D Y:00 P:27 SP:F6 CYC:278 SL:44
15:25:17: E13F  60        RTS                            A:7B X:7D Y:00 P:25 SP:F7 CYC:290 SL:44
15:25:17: E121  CA        DEX                            A:7B X:7D Y:00 P:25 SP:F9 CYC:308 SL:44
15:25:17: E122  D0 FA     BNE $E11E                      A:7B X:7C Y:00 P:25 SP:F9 CYC:314 SL:44
15:25:17: E11E  20 25 E1  JSR $E125                      A:7B X:7C Y:00 P:25 SP:F9 CYC:323 SL:44
15:25:17: E125  48        PHA                            A:7B X:7C Y:00 P:25 SP:F7 CYC:  0 SL:45
15:25:17: E126  A9 00     LDA #$00                       A:7B X:7C Y:00 P:25 SP:F6 CYC:  9 SL:45
15:25:17: E128  8D 06 20  STA $2006 = 00                 A:00 X:7C Y:00 P:27 SP:F6 CYC: 15 SL:45
15:25:17: E12B  8D 06 20  STA $2006 = 00                 A:00 X:7C Y:00 P:27 SP:F6 CYC: 27 SL:45
15:25:17: E12E  A9 10     LDA #$10                       A:00 X:7C Y:00 P:27 SP:F6 CYC: 39 SL:45
15:25:17: E130  8D 06 20  STA $2006 = 00                 A:10 X:7C Y:00 P:25 SP:F6 CYC: 45 SL:45
15:25:17: E133  8D 06 20  STA $2006 = 00                 A:10 X:7C Y:00 P:25 SP:F6 CYC: 57 SL:45
15:25:17: E136  A9 00     LDA #$00                       A:10 X:7C Y:00 P:25 SP:F6 CYC: 69 SL:45
15:25:17: E138  8D 06 20  STA $2006 = 00                 A:00 X:7C Y:00 P:27 SP:F6 CYC: 75 SL:45
15:25:17: E13B  8D 06 20  STA $2006 = 00                 A:00 X:7C Y:00 P:27 SP:F6 CYC: 87 SL:45
15:25:17: E13E  68        PLA                            A:00 X:7C Y:00 P:27 SP:F6 CYC: 99 SL:45
15:25:17: E13F  60        RTS                            A:7B X:7C Y:00 P:25 SP:F7 CYC:111 SL:45
15:25:17: E121  CA        DEX                            A:7B X:7C Y:00 P:25 SP:F9 CYC:129 SL:45
15:25:17: E122  D0 FA     BNE $E11E                      A:7B X:7B Y:00 P:25 SP:F9 CYC:135 SL:45
15:25:17: E11E  20 25 E1  JSR $E125                      A:7B X:7B Y:00 P:25 SP:F9 CYC:144 SL:45
15:25:17: E125  48        PHA                            A:7B X:7B Y:00 P:25 SP:F7 CYC:162 SL:45
15:25:17: E126  A9 00     LDA #$00                       A:7B X:7B Y:00 P:25 SP:F6 CYC:171 SL:45
15:25:17: E128  8D 06 20  STA $2006 = 00                 A:00 X:7B Y:00 P:27 SP:F6 CYC:177 SL:45
15:25:17: E12B  8D 06 20  STA $2006 = 00                 A:00 X:7B Y:00 P:27 SP:F6 CYC:189 SL:45
15:25:17: E12E  A9 10     LDA #$10                       A:00 X:7B Y:00 P:27 SP:F6 CYC:201 SL:45
15:25:17: E130  8D 06 20  STA $2006 = 00                 A:10 X:7B Y:00 P:25 SP:F6 CYC:207 SL:45
15:25:17: E133  8D 06 20  STA $2006 = 00                 A:10 X:7B Y:00 P:25 SP:F6 CYC:219 SL:45
15:25:17: E136  A9 00     LDA #$00                       A:10 X:7B Y:00 P:25 SP:F6 CYC:231 SL:45
15:25:17: E138  8D 06 20  STA $2006 = 00                 A:00 X:7B Y:00 P:27 SP:F6 CYC:237 SL:45
15:25:17: E13B  8D 06 20  STA $2006 = 00                 A:00 X:7B Y:00 P:27 SP:F6 CYC:249 SL:45
15:25:17: E13E  68        PLA                            A:00 X:7B Y:00 P:27 SP:F6 CYC:261 SL:45
15:25:17: E13F  60        RTS                            A:7B X:7B Y:00 P:25 SP:F7 CYC:273 SL:45
15:25:17: E121  CA        DEX                            A:7B X:7B Y:00 P:25 SP:F9 CYC:291 SL:45
15:25:17: E122  D0 FA     BNE $E11E                      A:7B X:7A Y:00 P:25 SP:F9 CYC:297 SL:45
15:25:17: E11E  20 25 E1  JSR $E125                      A:7B X:7A Y:00 P:25 SP:F9 CYC:306 SL:45
15:25:17: E125  48        PHA                            A:7B X:7A Y:00 P:25 SP:F7 CYC:324 SL:45
15:25:17: E126  A9 00     LDA #$00                       A:7B X:7A Y:00 P:25 SP:F6 CYC:333 SL:45
15:25:17: E128  8D 06 20  STA $2006 = 00                 A:00 X:7A Y:00 P:27 SP:F6 CYC:339 SL:45
15:25:17: E12B  8D 06 20  STA $2006 = 00                 A:00 X:7A Y:00 P:27 SP:F6 CYC: 10 SL:46
15:25:17: E12E  A9 10     LDA #$10                       A:00 X:7A Y:00 P:27 SP:F6 CYC: 22 SL:46
15:25:17: E130  8D 06 20  STA $2006 = 00                 A:10 X:7A Y:00 P:25 SP:F6 CYC: 28 SL:46
15:25:17: E133  8D 06 20  STA $2006 = 00                 A:10 X:7A Y:00 P:25 SP:F6 CYC: 40 SL:46
15:25:17: E136  A9 00     LDA #$00                       A:10 X:7A Y:00 P:25 SP:F6 CYC: 52 SL:46
15:25:17: E138  8D 06 20  STA $2006 = 00                 A:00 X:7A Y:00 P:27 SP:F6 CYC: 58 SL:46
15:25:17: E13B  8D 06 20  STA $2006 = 00                 A:00 X:7A Y:00 P:27 SP:F6 CYC: 70 SL:46
15:25:17: E13E  68        PLA                            A:00 X:7A Y:00 P:27 SP:F6 CYC: 82 SL:46
15:25:17: E13F  60        RTS                            A:7B X:7A Y:00 P:25 SP:F7 CYC: 94 SL:46
15:25:17: E121  CA        DEX                            A:7B X:7A Y:00 P:25 SP:F9 CYC:112 SL:46
15:25:17: E122  D0 FA     BNE $E11E                      A:7B X:79 Y:00 P:25 SP:F9 CYC:118 SL:46
15:25:17: E11E  20 25 E1  JSR $E125                      A:7B X:79 Y:00 P:25 SP:F9 CYC:127 SL:46
15:25:17: E125  48        PHA                            A:7B X:79 Y:00 P:25 SP:F7 CYC:145 SL:46
15:25:17: E126  A9 00     LDA #$00                       A:7B X:79 Y:00 P:25 SP:F6 CYC:154 SL:46
15:25:17: E128  8D 06 20  STA $2006 = 00                 A:00 X:79 Y:00 P:27 SP:F6 CYC:160 SL:46
15:25:17: E12B  8D 06 20  STA $2006 = 00                 A:00 X:79 Y:00 P:27 SP:F6 CYC:172 SL:46
15:25:17: E12E  A9 10     LDA #$10                       A:00 X:79 Y:00 P:27 SP:F6 CYC:184 SL:46
15:25:17: E130  8D 06 20  STA $2006 = 00                 A:10 X:79 Y:00 P:25 SP:F6 CYC:190 SL:46
15:25:17: E133  8D 06 20  STA $2006 = 00                 A:10 X:79 Y:00 P:25 SP:F6 CYC:202 SL:46
15:25:17: E136  A9 00     LDA #$00                       A:10 X:79 Y:00 P:25 SP:F6 CYC:214 SL:46
15:25:17: E138  8D 06 20  STA $2006 = 00                 A:00 X:79 Y:00 P:27 SP:F6 CYC:220 SL:46
15:25:17: E13B  8D 06 20  STA $2006 = 00                 A:00 X:79 Y:00 P:27 SP:F6 CYC:232 SL:46
15:25:17: E13E  68        PLA                            A:00 X:79 Y:00 P:27 SP:F6 CYC:244 SL:46
15:25:17: E13F  60        RTS                            A:7B X:79 Y:00 P:25 SP:F7 CYC:256 SL:46
15:25:17: E121  CA        DEX                            A:7B X:79 Y:00 P:25 SP:F9 CYC:274 SL:46
15:25:17: E122  D0 FA     BNE $E11E                      A:7B X:78 Y:00 P:25 SP:F9 CYC:280 SL:46
15:25:17: E11E  20 25 E1  JSR $E125                      A:7B X:78 Y:00 P:25 SP:F9 CYC:289 SL:46
15:25:17: E125  48        PHA                            A:7B X:78 Y:00 P:25 SP:F7 CYC:307 SL:46
15:25:17: E126  A9 00     LDA #$00                       A:7B X:78 Y:00 P:25 SP:F6 CYC:316 SL:46
15:25:17: E128  8D 06 20  STA $2006 = 00                 A:00 X:78 Y:00 P:27 SP:F6 CYC:322 SL:46
15:25:17: E12B  8D 06 20  STA $2006 = 00                 A:00 X:78 Y:00 P:27 SP:F6 CYC:334 SL:46
15:25:17: E12E  A9 10     LDA #$10                       A:00 X:78 Y:00 P:27 SP:F6 CYC:  5 SL:47
15:25:17: E130  8D 06 20  STA $2006 = 00                 A:10 X:78 Y:00 P:25 SP:F6 CYC: 11 SL:47
15:25:17: E133  8D 06 20  STA $2006 = 00                 A:10 X:78 Y:00 P:25 SP:F6 CYC: 23 SL:47
15:25:17: E136  A9 00     LDA #$00                       A:10 X:78 Y:00 P:25 SP:F6 CYC: 35 SL:47
15:25:17: E138  8D 06 20  STA $2006 = 00                 A:00 X:78 Y:00 P:27 SP:F6 CYC: 41 SL:47
15:25:17: E13B  8D 06 20  STA $2006 = 00                 A:00 X:78 Y:00 P:27 SP:F6 CYC: 53 SL:47
15:25:17: E13E  68        PLA                            A:00 X:78 Y:00 P:27 SP:F6 CYC: 65 SL:47
15:25:17: E13F  60        RTS                            A:7B X:78 Y:00 P:25 SP:F7 CYC: 77 SL:47
15:25:17: E121  CA        DEX                            A:7B X:78 Y:00 P:25 SP:F9 CYC: 95 SL:47
15:25:17: E122  D0 FA     BNE $E11E                      A:7B X:77 Y:00 P:25 SP:F9 CYC:101 SL:47
15:25:17: E11E  20 25 E1  JSR $E125                      A:7B X:77 Y:00 P:25 SP:F9 CYC:110 SL:47
15:25:17: E125  48        PHA                            A:7B X:77 Y:00 P:25 SP:F7 CYC:128 SL:47
15:25:17: E126  A9 00     LDA #$00                       A:7B X:77 Y:00 P:25 SP:F6 CYC:137 SL:47
15:25:17: E128  8D 06 20  STA $2006 = 00                 A:00 X:77 Y:00 P:27 SP:F6 CYC:143 SL:47
15:25:17: E12B  8D 06 20  STA $2006 = 00                 A:00 X:77 Y:00 P:27 SP:F6 CYC:155 SL:47
15:25:17: E12E  A9 10     LDA #$10                       A:00 X:77 Y:00 P:27 SP:F6 CYC:167 SL:47
15:25:17: E130  8D 06 20  STA $2006 = 00                 A:10 X:77 Y:00 P:25 SP:F6 CYC:173 SL:47
15:25:17: E133  8D 06 20  STA $2006 = 00                 A:10 X:77 Y:00 P:25 SP:F6 CYC:185 SL:47
15:25:17: E136  A9 00     LDA #$00                       A:10 X:77 Y:00 P:25 SP:F6 CYC:197 SL:47
15:25:17: E138  8D 06 20  STA $2006 = 00                 A:00 X:77 Y:00 P:27 SP:F6 CYC:203 SL:47
15:25:17: E13B  8D 06 20  STA $2006 = 00                 A:00 X:77 Y:00 P:27 SP:F6 CYC:215 SL:47
15:25:17: E13E  68        PLA                            A:00 X:77 Y:00 P:27 SP:F6 CYC:227 SL:47
15:25:17: E13F  60        RTS                            A:7B X:77 Y:00 P:25 SP:F7 CYC:239 SL:47
15:25:17: E121  CA        DEX                            A:7B X:77 Y:00 P:25 SP:F9 CYC:257 SL:47
15:25:17: E122  D0 FA     BNE $E11E                      A:7B X:76 Y:00 P:25 SP:F9 CYC:263 SL:47
15:25:17: E11E  20 25 E1  JSR $E125                      A:7B X:76 Y:00 P:25 SP:F9 CYC:272 SL:47
15:25:17: E125  48        PHA                            A:7B X:76 Y:00 P:25 SP:F7 CYC:290 SL:47
15:25:17: E126  A9 00     LDA #$00                       A:7B X:76 Y:00 P:25 SP:F6 CYC:299 SL:47
15:25:17: E128  8D 06 20  STA $2006 = 00                 A:00 X:76 Y:00 P:27 SP:F6 CYC:305 SL:47
15:25:17: E12B  8D 06 20  STA $2006 = 00                 A:00 X:76 Y:00 P:27 SP:F6 CYC:317 SL:47
15:25:17: E12E  A9 10     LDA #$10                       A:00 X:76 Y:00 P:27 SP:F6 CYC:329 SL:47
15:25:17: E130  8D 06 20  STA $2006 = 00                 A:10 X:76 Y:00 P:25 SP:F6 CYC:335 SL:47
15:25:17: E133  8D 06 20  STA $2006 = 00                 A:10 X:76 Y:00 P:25 SP:F6 CYC:  6 SL:48
15:25:17: E136  A9 00     LDA #$00                       A:10 X:76 Y:00 P:25 SP:F6 CYC: 18 SL:48
15:25:17: E138  8D 06 20  STA $2006 = 00                 A:00 X:76 Y:00 P:27 SP:F6 CYC: 24 SL:48
15:25:17: E13B  8D 06 20  STA $2006 = 00                 A:00 X:76 Y:00 P:27 SP:F6 CYC: 36 SL:48
15:25:17: E13E  68        PLA                            A:00 X:76 Y:00 P:27 SP:F6 CYC: 48 SL:48
15:25:17: E13F  60        RTS                            A:7B X:76 Y:00 P:25 SP:F7 CYC: 60 SL:48
15:25:17: E121  CA        DEX                            A:7B X:76 Y:00 P:25 SP:F9 CYC: 78 SL:48
15:25:17: E122  D0 FA     BNE $E11E                      A:7B X:75 Y:00 P:25 SP:F9 CYC: 84 SL:48
15:25:17: E11E  20 25 E1  JSR $E125                      A:7B X:75 Y:00 P:25 SP:F9 CYC: 93 SL:48
15:25:17: E125  48        PHA                            A:7B X:75 Y:00 P:25 SP:F7 CYC:111 SL:48
15:25:17: E126  A9 00     LDA #$00                       A:7B X:75 Y:00 P:25 SP:F6 CYC:120 SL:48
15:25:17: E128  8D 06 20  STA $2006 = 00                 A:00 X:75 Y:00 P:27 SP:F6 CYC:126 SL:48
15:25:17: E12B  8D 06 20  STA $2006 = 00                 A:00 X:75 Y:00 P:27 SP:F6 CYC:138 SL:48
15:25:17: E12E  A9 10     LDA #$10                       A:00 X:75 Y:00 P:27 SP:F6 CYC:150 SL:48
15:25:17: E130  8D 06 20  STA $2006 = 00                 A:10 X:75 Y:00 P:25 SP:F6 CYC:156 SL:48
15:25:17: E133  8D 06 20  STA $2006 = 00                 A:10 X:75 Y:00 P:25 SP:F6 CYC:168 SL:48
15:25:17: E136  A9 00     LDA #$00                       A:10 X:75 Y:00 P:25 SP:F6 CYC:180 SL:48
15:25:17: E138  8D 06 20  STA $2006 = 00                 A:00 X:75 Y:00 P:27 SP:F6 CYC:186 SL:48
15:25:17: E13B  8D 06 20  STA $2006 = 00                 A:00 X:75 Y:00 P:27 SP:F6 CYC:198 SL:48
15:25:17: E13E  68        PLA                            A:00 X:75 Y:00 P:27 SP:F6 CYC:210 SL:48
15:25:17: E13F  60        RTS                            A:7B X:75 Y:00 P:25 SP:F7 CYC:222 SL:48
15:25:17: E121  CA        DEX                            A:7B X:75 Y:00 P:25 SP:F9 CYC:240 SL:48
15:25:17: E122  D0 FA     BNE $E11E                      A:7B X:74 Y:00 P:25 SP:F9 CYC:246 SL:48
15:25:17: E11E  20 25 E1  JSR $E125                      A:7B X:74 Y:00 P:25 SP:F9 CYC:255 SL:48
15:25:17: E125  48        PHA                            A:7B X:74 Y:00 P:25 SP:F7 CYC:273 SL:48
15:25:17: E126  A9 00     LDA #$00                       A:7B X:74 Y:00 P:25 SP:F6 CYC:282 SL:48
15:25:17: E128  8D 06 20  STA $2006 = 00                 A:00 X:74 Y:00 P:27 SP:F6 CYC:288 SL:48
15:25:17: E12B  8D 06 20  STA $2006 = 00                 A:00 X:74 Y:00 P:27 SP:F6 CYC:300 SL:48
15:25:17: E12E  A9 10     LDA #$10                       A:00 X:74 Y:00 P:27 SP:F6 CYC:312 SL:48
15:25:17: E130  8D 06 20  STA $2006 = 00                 A:10 X:74 Y:00 P:25 SP:F6 CYC:318 SL:48
15:25:17: E133  8D 06 20  STA $2006 = 00                 A:10 X:74 Y:00 P:25 SP:F6 CYC:330 SL:48
15:25:17: E136  A9 00     LDA #$00                       A:10 X:74 Y:00 P:25 SP:F6 CYC:  1 SL:49
15:25:17: E138  8D 06 20  STA $2006 = 00                 A:00 X:74 Y:00 P:27 SP:F6 CYC:  7 SL:49
15:25:17: E13B  8D 06 20  STA $2006 = 00                 A:00 X:74 Y:00 P:27 SP:F6 CYC: 19 SL:49
15:25:17: E13E  68        PLA                            A:00 X:74 Y:00 P:27 SP:F6 CYC: 31 SL:49
15:25:17: E13F  60        RTS                            A:7B X:74 Y:00 P:25 SP:F7 CYC: 43 SL:49
15:25:17: E121  CA        DEX                            A:7B X:74 Y:00 P:25 SP:F9 CYC: 61 SL:49
15:25:17: E122  D0 FA     BNE $E11E                      A:7B X:73 Y:00 P:25 SP:F9 CYC: 67 SL:49
15:25:17: E11E  20 25 E1  JSR $E125                      A:7B X:73 Y:00 P:25 SP:F9 CYC: 76 SL:49
15:25:17: E125  48        PHA                            A:7B X:73 Y:00 P:25 SP:F7 CYC: 94 SL:49
15:25:17: E126  A9 00     LDA #$00                       A:7B X:73 Y:00 P:25 SP:F6 CYC:103 SL:49
15:25:17: E128  8D 06 20  STA $2006 = 00                 A:00 X:73 Y:00 P:27 SP:F6 CYC:109 SL:49
15:25:17: E12B  8D 06 20  STA $2006 = 00                 A:00 X:73 Y:00 P:27 SP:F6 CYC:121 SL:49
15:25:17: E12E  A9 10     LDA #$10                       A:00 X:73 Y:00 P:27 SP:F6 CYC:133 SL:49
15:25:17: E130  8D 06 20  STA $2006 = 00                 A:10 X:73 Y:00 P:25 SP:F6 CYC:139 SL:49
15:25:17: E133  8D 06 20  STA $2006 = 00                 A:10 X:73 Y:00 P:25 SP:F6 CYC:151 SL:49
15:25:17: E136  A9 00     LDA #$00                       A:10 X:73 Y:00 P:25 SP:F6 CYC:163 SL:49
15:25:17: E138  8D 06 20  STA $2006 = 00                 A:00 X:73 Y:00 P:27 SP:F6 CYC:169 SL:49
15:25:17: E13B  8D 06 20  STA $2006 = 00                 A:00 X:73 Y:00 P:27 SP:F6 CYC:181 SL:49
15:25:17: E13E  68        PLA                            A:00 X:73 Y:00 P:27 SP:F6 CYC:193 SL:49
15:25:17: E13F  60        RTS                            A:7B X:73 Y:00 P:25 SP:F7 CYC:205 SL:49
15:25:17: E121  CA        DEX                            A:7B X:73 Y:00 P:25 SP:F9 CYC:223 SL:49
15:25:17: E122  D0 FA     BNE $E11E                      A:7B X:72 Y:00 P:25 SP:F9 CYC:229 SL:49
15:25:17: E11E  20 25 E1  JSR $E125                      A:7B X:72 Y:00 P:25 SP:F9 CYC:238 SL:49
15:25:17: E125  48        PHA                            A:7B X:72 Y:00 P:25 SP:F7 CYC:256 SL:49
15:25:17: E126  A9 00     LDA #$00                       A:7B X:72 Y:00 P:25 SP:F6 CYC:265 SL:49
15:25:17: E128  8D 06 20  STA $2006 = 00                 A:00 X:72 Y:00 P:27 SP:F6 CYC:271 SL:49
15:25:17: E12B  8D 06 20  STA $2006 = 00                 A:00 X:72 Y:00 P:27 SP:F6 CYC:283 SL:49
15:25:17: E12E  A9 10     LDA #$10                       A:00 X:72 Y:00 P:27 SP:F6 CYC:295 SL:49
15:25:17: E130  8D 06 20  STA $2006 = 00                 A:10 X:72 Y:00 P:25 SP:F6 CYC:301 SL:49
15:25:17: E133  8D 06 20  STA $2006 = 00                 A:10 X:72 Y:00 P:25 SP:F6 CYC:313 SL:49
15:25:17: E136  A9 00     LDA #$00                       A:10 X:72 Y:00 P:25 SP:F6 CYC:325 SL:49
15:25:17: E138  8D 06 20  STA $2006 = 00                 A:00 X:72 Y:00 P:27 SP:F6 CYC:331 SL:49
15:25:17: E13B  8D 06 20  STA $2006 = 00                 A:00 X:72 Y:00 P:27 SP:F6 CYC:  2 SL:50
15:25:17: E13E  68        PLA                            A:00 X:72 Y:00 P:27 SP:F6 CYC: 14 SL:50
15:25:17: E13F  60        RTS                            A:7B X:72 Y:00 P:25 SP:F7 CYC: 26 SL:50
15:25:17: E121  CA        DEX                            A:7B X:72 Y:00 P:25 SP:F9 CYC: 44 SL:50
15:25:17: E122  D0 FA     BNE $E11E                      A:7B X:71 Y:00 P:25 SP:F9 CYC: 50 SL:50
15:25:17: E11E  20 25 E1  JSR $E125                      A:7B X:71 Y:00 P:25 SP:F9 CYC: 59 SL:50
15:25:17: E125  48        PHA                            A:7B X:71 Y:00 P:25 SP:F7 CYC: 77 SL:50
15:25:17: E126  A9 00     LDA #$00                       A:7B X:71 Y:00 P:25 SP:F6 CYC: 86 SL:50
15:25:17: E128  8D 06 20  STA $2006 = 00                 A:00 X:71 Y:00 P:27 SP:F6 CYC: 92 SL:50
15:25:17: E12B  8D 06 20  STA $2006 = 00                 A:00 X:71 Y:00 P:27 SP:F6 CYC:104 SL:50
15:25:17: E12E  A9 10     LDA #$10                       A:00 X:71 Y:00 P:27 SP:F6 CYC:116 SL:50
15:25:17: E130  8D 06 20  STA $2006 = 00                 A:10 X:71 Y:00 P:25 SP:F6 CYC:122 SL:50
15:25:17: E133  8D 06 20  STA $2006 = 00                 A:10 X:71 Y:00 P:25 SP:F6 CYC:134 SL:50
15:25:17: E136  A9 00     LDA #$00                       A:10 X:71 Y:00 P:25 SP:F6 CYC:146 SL:50
15:25:17: E138  8D 06 20  STA $2006 = 00                 A:00 X:71 Y:00 P:27 SP:F6 CYC:152 SL:50
15:25:17: E13B  8D 06 20  STA $2006 = 00                 A:00 X:71 Y:00 P:27 SP:F6 CYC:164 SL:50
15:25:17: E13E  68        PLA                            A:00 X:71 Y:00 P:27 SP:F6 CYC:176 SL:50
15:25:17: E13F  60        RTS                            A:7B X:71 Y:00 P:25 SP:F7 CYC:188 SL:50
15:25:17: E121  CA        DEX                            A:7B X:71 Y:00 P:25 SP:F9 CYC:206 SL:50
15:25:17: E122  D0 FA     BNE $E11E                      A:7B X:70 Y:00 P:25 SP:F9 CYC:212 SL:50
15:25:17: E11E  20 25 E1  JSR $E125                      A:7B X:70 Y:00 P:25 SP:F9 CYC:221 SL:50
15:25:17: E125  48        PHA                            A:7B X:70 Y:00 P:25 SP:F7 CYC:239 SL:50
15:25:17: E126  A9 00     LDA #$00                       A:7B X:70 Y:00 P:25 SP:F6 CYC:248 SL:50
15:25:17: E128  8D 06 20  STA $2006 = 00                 A:00 X:70 Y:00 P:27 SP:F6 CYC:254 SL:50
15:25:17: E12B  8D 06 20  STA $2006 = 00                 A:00 X:70 Y:00 P:27 SP:F6 CYC:266 SL:50
15:25:17: E12E  A9 10     LDA #$10                       A:00 X:70 Y:00 P:27 SP:F6 CYC:278 SL:50
15:25:17: E130  8D 06 20  STA $2006 = 00                 A:10 X:70 Y:00 P:25 SP:F6 CYC:284 SL:50
15:25:17: E133  8D 06 20  STA $2006 = 00                 A:10 X:70 Y:00 P:25 SP:F6 CYC:296 SL:50
15:25:17: E136  A9 00     LDA #$00                       A:10 X:70 Y:00 P:25 SP:F6 CYC:308 SL:50
15:25:17: E138  8D 06 20  STA $2006 = 00                 A:00 X:70 Y:00 P:27 SP:F6 CYC:314 SL:50
15:25:17: E13B  8D 06 20  STA $2006 = 00                 A:00 X:70 Y:00 P:27 SP:F6 CYC:326 SL:50
15:25:17: E13E  68        PLA                            A:00 X:70 Y:00 P:27 SP:F6 CYC:338 SL:50
15:25:17: E13F  60        RTS                            A:7B X:70 Y:00 P:25 SP:F7 CYC:  9 SL:51
15:25:17: E121  CA        DEX                            A:7B X:70 Y:00 P:25 SP:F9 CYC: 27 SL:51
15:25:17: E122  D0 FA     BNE $E11E                      A:7B X:6F Y:00 P:25 SP:F9 CYC: 33 SL:51
15:25:17: E11E  20 25 E1  JSR $E125                      A:7B X:6F Y:00 P:25 SP:F9 CYC: 42 SL:51
15:25:17: E125  48        PHA                            A:7B X:6F Y:00 P:25 SP:F7 CYC: 60 SL:51
15:25:17: E126  A9 00     LDA #$00                       A:7B X:6F Y:00 P:25 SP:F6 CYC: 69 SL:51
15:25:17: E128  8D 06 20  STA $2006 = 00                 A:00 X:6F Y:00 P:27 SP:F6 CYC: 75 SL:51
15:25:17: E12B  8D 06 20  STA $2006 = 00                 A:00 X:6F Y:00 P:27 SP:F6 CYC: 87 SL:51
15:25:17: E12E  A9 10     LDA #$10                       A:00 X:6F Y:00 P:27 SP:F6 CYC: 99 SL:51
15:25:17: E130  8D 06 20  STA $2006 = 00                 A:10 X:6F Y:00 P:25 SP:F6 CYC:105 SL:51
15:25:17: E133  8D 06 20  STA $2006 = 00                 A:10 X:6F Y:00 P:25 SP:F6 CYC:117 SL:51
15:25:17: E136  A9 00     LDA #$00                       A:10 X:6F Y:00 P:25 SP:F6 CYC:129 SL:51
15:25:17: E138  8D 06 20  STA $2006 = 00                 A:00 X:6F Y:00 P:27 SP:F6 CYC:135 SL:51
15:25:17: E13B  8D 06 20  STA $2006 = 00                 A:00 X:6F Y:00 P:27 SP:F6 CYC:147 SL:51
15:25:17: E13E  68        PLA                            A:00 X:6F Y:00 P:27 SP:F6 CYC:159 SL:51
15:25:17: E13F  60        RTS                            A:7B X:6F Y:00 P:25 SP:F7 CYC:171 SL:51
15:25:17: E121  CA        DEX                            A:7B X:6F Y:00 P:25 SP:F9 CYC:189 SL:51
15:25:17: E122  D0 FA     BNE $E11E                      A:7B X:6E Y:00 P:25 SP:F9 CYC:195 SL:51
15:25:17: E11E  20 25 E1  JSR $E125                      A:7B X:6E Y:00 P:25 SP:F9 CYC:204 SL:51
15:25:17: E125  48        PHA                            A:7B X:6E Y:00 P:25 SP:F7 CYC:222 SL:51
15:25:17: E126  A9 00     LDA #$00                       A:7B X:6E Y:00 P:25 SP:F6 CYC:231 SL:51
15:25:17: E128  8D 06 20  STA $2006 = 00                 A:00 X:6E Y:00 P:27 SP:F6 CYC:237 SL:51
15:25:17: E12B  8D 06 20  STA $2006 = 00                 A:00 X:6E Y:00 P:27 SP:F6 CYC:249 SL:51
15:25:17: E12E  A9 10     LDA #$10                       A:00 X:6E Y:00 P:27 SP:F6 CYC:261 SL:51
15:25:17: E130  8D 06 20  STA $2006 = 00                 A:10 X:6E Y:00 P:25 SP:F6 CYC:267 SL:51
15:25:17: E133  8D 06 20  STA $2006 = 00                 A:10 X:6E Y:00 P:25 SP:F6 CYC:279 SL:51
15:25:17: E136  A9 00     LDA #$00                       A:10 X:6E Y:00 P:25 SP:F6 CYC:291 SL:51
15:25:17: E138  8D 06 20  STA $2006 = 00                 A:00 X:6E Y:00 P:27 SP:F6 CYC:297 SL:51
15:25:17: E13B  8D 06 20  STA $2006 = 00                 A:00 X:6E Y:00 P:27 SP:F6 CYC:309 SL:51
15:25:17: E13E  68        PLA                            A:00 X:6E Y:00 P:27 SP:F6 CYC:321 SL:51
15:25:17: E13F  60        RTS                            A:7B X:6E Y:00 P:25 SP:F7 CYC:333 SL:51
15:25:17: E121  CA        DEX                            A:7B X:6E Y:00 P:25 SP:F9 CYC: 10 SL:52
15:25:17: E122  D0 FA     BNE $E11E                      A:7B X:6D Y:00 P:25 SP:F9 CYC: 16 SL:52
15:25:17: E11E  20 25 E1  JSR $E125                      A:7B X:6D Y:00 P:25 SP:F9 CYC: 25 SL:52
15:25:17: E125  48        PHA                            A:7B X:6D Y:00 P:25 SP:F7 CYC: 43 SL:52
15:25:17: E126  A9 00     LDA #$00                       A:7B X:6D Y:00 P:25 SP:F6 CYC: 52 SL:52
15:25:17: E128  8D 06 20  STA $2006 = 00                 A:00 X:6D Y:00 P:27 SP:F6 CYC: 58 SL:52
15:25:17: E12B  8D 06 20  STA $2006 = 00                 A:00 X:6D Y:00 P:27 SP:F6 CYC: 70 SL:52
15:25:17: E12E  A9 10     LDA #$10                       A:00 X:6D Y:00 P:27 SP:F6 CYC: 82 SL:52
15:25:17: E130  8D 06 20  STA $2006 = 00                 A:10 X:6D Y:00 P:25 SP:F6 CYC: 88 SL:52
15:25:17: E133  8D 06 20  STA $2006 = 00                 A:10 X:6D Y:00 P:25 SP:F6 CYC:100 SL:52
15:25:17: E136  A9 00     LDA #$00                       A:10 X:6D Y:00 P:25 SP:F6 CYC:112 SL:52
15:25:17: E138  8D 06 20  STA $2006 = 00                 A:00 X:6D Y:00 P:27 SP:F6 CYC:118 SL:52
15:25:17: E13B  8D 06 20  STA $2006 = 00                 A:00 X:6D Y:00 P:27 SP:F6 CYC:130 SL:52
15:25:17: E13E  68        PLA                            A:00 X:6D Y:00 P:27 SP:F6 CYC:142 SL:52
15:25:17: E13F  60        RTS                            A:7B X:6D Y:00 P:25 SP:F7 CYC:154 SL:52
15:25:17: E121  CA        DEX                            A:7B X:6D Y:00 P:25 SP:F9 CYC:172 SL:52
15:25:17: E122  D0 FA     BNE $E11E                      A:7B X:6C Y:00 P:25 SP:F9 CYC:178 SL:52
15:25:17: E11E  20 25 E1  JSR $E125                      A:7B X:6C Y:00 P:25 SP:F9 CYC:187 SL:52
15:25:17: E125  48        PHA                            A:7B X:6C Y:00 P:25 SP:F7 CYC:205 SL:52
15:25:17: E126  A9 00     LDA #$00                       A:7B X:6C Y:00 P:25 SP:F6 CYC:214 SL:52
15:25:17: E128  8D 06 20  STA $2006 = 00                 A:00 X:6C Y:00 P:27 SP:F6 CYC:220 SL:52
15:25:17: E12B  8D 06 20  STA $2006 = 00                 A:00 X:6C Y:00 P:27 SP:F6 CYC:232 SL:52
15:25:17: E12E  A9 10     LDA #$10                       A:00 X:6C Y:00 P:27 SP:F6 CYC:244 SL:52
15:25:17: E130  8D 06 20  STA $2006 = 00                 A:10 X:6C Y:00 P:25 SP:F6 CYC:250 SL:52
15:25:17: E133  8D 06 20  STA $2006 = 00                 A:10 X:6C Y:00 P:25 SP:F6 CYC:262 SL:52
15:25:17: E136  A9 00     LDA #$00                       A:10 X:6C Y:00 P:25 SP:F6 CYC:274 SL:52
15:25:17: E138  8D 06 20  STA $2006 = 00                 A:00 X:6C Y:00 P:27 SP:F6 CYC:280 SL:52
15:25:17: E13B  8D 06 20  STA $2006 = 00                 A:00 X:6C Y:00 P:27 SP:F6 CYC:292 SL:52
15:25:17: E13E  68        PLA                            A:00 X:6C Y:00 P:27 SP:F6 CYC:304 SL:52
15:25:17: E13F  60        RTS                            A:7B X:6C Y:00 P:25 SP:F7 CYC:316 SL:52
15:25:17: E121  CA        DEX                            A:7B X:6C Y:00 P:25 SP:F9 CYC:334 SL:52
15:25:17: E122  D0 FA     BNE $E11E                      A:7B X:6B Y:00 P:25 SP:F9 CYC:340 SL:52
15:25:17: E11E  20 25 E1  JSR $E125                      A:7B X:6B Y:00 P:25 SP:F9 CYC:  8 SL:53
15:25:17: E125  48        PHA                            A:7B X:6B Y:00 P:25 SP:F7 CYC: 26 SL:53
15:25:17: E126  A9 00     LDA #$00                       A:7B X:6B Y:00 P:25 SP:F6 CYC: 35 SL:53
15:25:17: E128  8D 06 20  STA $2006 = 00                 A:00 X:6B Y:00 P:27 SP:F6 CYC: 41 SL:53
15:25:17: E12B  8D 06 20  STA $2006 = 00                 A:00 X:6B Y:00 P:27 SP:F6 CYC: 53 SL:53
15:25:17: E12E  A9 10     LDA #$10                       A:00 X:6B Y:00 P:27 SP:F6 CYC: 65 SL:53
15:25:17: E130  8D 06 20  STA $2006 = 00                 A:10 X:6B Y:00 P:25 SP:F6 CYC: 71 SL:53
15:25:17: E133  8D 06 20  STA $2006 = 00                 A:10 X:6B Y:00 P:25 SP:F6 CYC: 83 SL:53
15:25:17: E136  A9 00     LDA #$00                       A:10 X:6B Y:00 P:25 SP:F6 CYC: 95 SL:53
15:25:17: E138  8D 06 20  STA $2006 = 00                 A:00 X:6B Y:00 P:27 SP:F6 CYC:101 SL:53
15:25:17: E13B  8D 06 20  STA $2006 = 00                 A:00 X:6B Y:00 P:27 SP:F6 CYC:113 SL:53
15:25:17: E13E  68        PLA                            A:00 X:6B Y:00 P:27 SP:F6 CYC:125 SL:53
15:25:17: E13F  60        RTS                            A:7B X:6B Y:00 P:25 SP:F7 CYC:137 SL:53
15:25:17: E121  CA        DEX                            A:7B X:6B Y:00 P:25 SP:F9 CYC:155 SL:53
15:25:17: E122  D0 FA     BNE $E11E                      A:7B X:6A Y:00 P:25 SP:F9 CYC:161 SL:53
15:25:17: E11E  20 25 E1  JSR $E125                      A:7B X:6A Y:00 P:25 SP:F9 CYC:170 SL:53
15:25:17: E125  48        PHA                            A:7B X:6A Y:00 P:25 SP:F7 CYC:188 SL:53
15:25:17: E126  A9 00     LDA #$00                       A:7B X:6A Y:00 P:25 SP:F6 CYC:197 SL:53
15:25:17: E128  8D 06 20  STA $2006 = 00                 A:00 X:6A Y:00 P:27 SP:F6 CYC:203 SL:53
15:25:17: E12B  8D 06 20  STA $2006 = 00                 A:00 X:6A Y:00 P:27 SP:F6 CYC:215 SL:53
15:25:17: E12E  A9 10     LDA #$10                       A:00 X:6A Y:00 P:27 SP:F6 CYC:227 SL:53
15:25:17: E130  8D 06 20  STA $2006 = 00                 A:10 X:6A Y:00 P:25 SP:F6 CYC:233 SL:53
15:25:17: E133  8D 06 20  STA $2006 = 00                 A:10 X:6A Y:00 P:25 SP:F6 CYC:245 SL:53
15:25:17: E136  A9 00     LDA #$00                       A:10 X:6A Y:00 P:25 SP:F6 CYC:257 SL:53
15:25:17: E138  8D 06 20  STA $2006 = 00                 A:00 X:6A Y:00 P:27 SP:F6 CYC:263 SL:53
15:25:17: E13B  8D 06 20  STA $2006 = 00                 A:00 X:6A Y:00 P:27 SP:F6 CYC:275 SL:53
15:25:17: E13E  68        PLA                            A:00 X:6A Y:00 P:27 SP:F6 CYC:287 SL:53
15:25:17: E13F  60        RTS                            A:7B X:6A Y:00 P:25 SP:F7 CYC:299 SL:53
15:25:17: E121  CA        DEX                            A:7B X:6A Y:00 P:25 SP:F9 CYC:317 SL:53
15:25:17: E122  D0 FA     BNE $E11E                      A:7B X:69 Y:00 P:25 SP:F9 CYC:323 SL:53
15:25:17: E11E  20 25 E1  JSR $E125                      A:7B X:69 Y:00 P:25 SP:F9 CYC:332 SL:53
15:25:17: E125  48        PHA                            A:7B X:69 Y:00 P:25 SP:F7 CYC:  9 SL:54
15:25:17: E126  A9 00     LDA #$00                       A:7B X:69 Y:00 P:25 SP:F6 CYC: 18 SL:54
15:25:17: E128  8D 06 20  STA $2006 = 00                 A:00 X:69 Y:00 P:27 SP:F6 CYC: 24 SL:54
15:25:17: E12B  8D 06 20  STA $2006 = 00                 A:00 X:69 Y:00 P:27 SP:F6 CYC: 36 SL:54
15:25:17: E12E  A9 10     LDA #$10                       A:00 X:69 Y:00 P:27 SP:F6 CYC: 48 SL:54
15:25:17: E130  8D 06 20  STA $2006 = 00                 A:10 X:69 Y:00 P:25 SP:F6 CYC: 54 SL:54
15:25:17: E133  8D 06 20  STA $2006 = 00                 A:10 X:69 Y:00 P:25 SP:F6 CYC: 66 SL:54
15:25:17: E136  A9 00     LDA #$00                       A:10 X:69 Y:00 P:25 SP:F6 CYC: 78 SL:54
15:25:17: E138  8D 06 20  STA $2006 = 00                 A:00 X:69 Y:00 P:27 SP:F6 CYC: 84 SL:54
15:25:17: E13B  8D 06 20  STA $2006 = 00                 A:00 X:69 Y:00 P:27 SP:F6 CYC: 96 SL:54
15:25:17: E13E  68        PLA                            A:00 X:69 Y:00 P:27 SP:F6 CYC:108 SL:54
15:25:17: E13F  60        RTS                            A:7B X:69 Y:00 P:25 SP:F7 CYC:120 SL:54
15:25:17: E121  CA        DEX                            A:7B X:69 Y:00 P:25 SP:F9 CYC:138 SL:54
15:25:17: E122  D0 FA     BNE $E11E                      A:7B X:68 Y:00 P:25 SP:F9 CYC:144 SL:54
15:25:17: E11E  20 25 E1  JSR $E125                      A:7B X:68 Y:00 P:25 SP:F9 CYC:153 SL:54
15:25:17: E125  48        PHA                            A:7B X:68 Y:00 P:25 SP:F7 CYC:171 SL:54
15:25:17: E126  A9 00     LDA #$00                       A:7B X:68 Y:00 P:25 SP:F6 CYC:180 SL:54
15:25:17: E128  8D 06 20  STA $2006 = 00                 A:00 X:68 Y:00 P:27 SP:F6 CYC:186 SL:54
15:25:17: E12B  8D 06 20  STA $2006 = 00                 A:00 X:68 Y:00 P:27 SP:F6 CYC:198 SL:54
15:25:17: E12E  A9 10     LDA #$10                       A:00 X:68 Y:00 P:27 SP:F6 CYC:210 SL:54
15:25:17: E130  8D 06 20  STA $2006 = 00                 A:10 X:68 Y:00 P:25 SP:F6 CYC:216 SL:54
15:25:17: E133  8D 06 20  STA $2006 = 00                 A:10 X:68 Y:00 P:25 SP:F6 CYC:228 SL:54
15:25:17: E136  A9 00     LDA #$00                       A:10 X:68 Y:00 P:25 SP:F6 CYC:240 SL:54
15:25:17: E138  8D 06 20  STA $2006 = 00                 A:00 X:68 Y:00 P:27 SP:F6 CYC:246 SL:54
15:25:17: E13B  8D 06 20  STA $2006 = 00                 A:00 X:68 Y:00 P:27 SP:F6 CYC:258 SL:54
15:25:17: E13E  68        PLA                            A:00 X:68 Y:00 P:27 SP:F6 CYC:270 SL:54
15:25:17: E13F  60        RTS                            A:7B X:68 Y:00 P:25 SP:F7 CYC:282 SL:54
15:25:17: E121  CA        DEX                            A:7B X:68 Y:00 P:25 SP:F9 CYC:300 SL:54
15:25:17: E122  D0 FA     BNE $E11E                      A:7B X:67 Y:00 P:25 SP:F9 CYC:306 SL:54
15:25:17: E11E  20 25 E1  JSR $E125                      A:7B X:67 Y:00 P:25 SP:F9 CYC:315 SL:54
15:25:17: E125  48        PHA                            A:7B X:67 Y:00 P:25 SP:F7 CYC:333 SL:54
15:25:17: E126  A9 00     LDA #$00                       A:7B X:67 Y:00 P:25 SP:F6 CYC:  1 SL:55
15:25:17: E128  8D 06 20  STA $2006 = 00                 A:00 X:67 Y:00 P:27 SP:F6 CYC:  7 SL:55
15:25:17: E12B  8D 06 20  STA $2006 = 00                 A:00 X:67 Y:00 P:27 SP:F6 CYC: 19 SL:55
15:25:17: E12E  A9 10     LDA #$10                       A:00 X:67 Y:00 P:27 SP:F6 CYC: 31 SL:55
15:25:17: E130  8D 06 20  STA $2006 = 00                 A:10 X:67 Y:00 P:25 SP:F6 CYC: 37 SL:55
15:25:17: E133  8D 06 20  STA $2006 = 00                 A:10 X:67 Y:00 P:25 SP:F6 CYC: 49 SL:55
15:25:17: E136  A9 00     LDA #$00                       A:10 X:67 Y:00 P:25 SP:F6 CYC: 61 SL:55
15:25:17: E138  8D 06 20  STA $2006 = 00                 A:00 X:67 Y:00 P:27 SP:F6 CYC: 67 SL:55
15:25:17: E13B  8D 06 20  STA $2006 = 00                 A:00 X:67 Y:00 P:27 SP:F6 CYC: 79 SL:55
15:25:17: E13E  68        PLA                            A:00 X:67 Y:00 P:27 SP:F6 CYC: 91 SL:55
15:25:17: E13F  60        RTS                            A:7B X:67 Y:00 P:25 SP:F7 CYC:103 SL:55
15:25:17: E121  CA        DEX                            A:7B X:67 Y:00 P:25 SP:F9 CYC:121 SL:55
15:25:17: E122  D0 FA     BNE $E11E                      A:7B X:66 Y:00 P:25 SP:F9 CYC:127 SL:55
15:25:17: E11E  20 25 E1  JSR $E125                      A:7B X:66 Y:00 P:25 SP:F9 CYC:136 SL:55
15:25:17: E125  48        PHA                            A:7B X:66 Y:00 P:25 SP:F7 CYC:154 SL:55
15:25:17: E126  A9 00     LDA #$00                       A:7B X:66 Y:00 P:25 SP:F6 CYC:163 SL:55
15:25:17: E128  8D 06 20  STA $2006 = 00                 A:00 X:66 Y:00 P:27 SP:F6 CYC:169 SL:55
15:25:17: E12B  8D 06 20  STA $2006 = 00                 A:00 X:66 Y:00 P:27 SP:F6 CYC:181 SL:55
15:25:17: E12E  A9 10     LDA #$10                       A:00 X:66 Y:00 P:27 SP:F6 CYC:193 SL:55
15:25:17: E130  8D 06 20  STA $2006 = 00                 A:10 X:66 Y:00 P:25 SP:F6 CYC:199 SL:55
15:25:17: E133  8D 06 20  STA $2006 = 00                 A:10 X:66 Y:00 P:25 SP:F6 CYC:211 SL:55
15:25:17: E136  A9 00     LDA #$00                       A:10 X:66 Y:00 P:25 SP:F6 CYC:223 SL:55
15:25:17: E138  8D 06 20  STA $2006 = 00                 A:00 X:66 Y:00 P:27 SP:F6 CYC:229 SL:55
15:25:17: E13B  8D 06 20  STA $2006 = 00                 A:00 X:66 Y:00 P:27 SP:F6 CYC:241 SL:55
15:25:17: E13E  68        PLA                            A:00 X:66 Y:00 P:27 SP:F6 CYC:253 SL:55
15:25:17: E13F  60        RTS                            A:7B X:66 Y:00 P:25 SP:F7 CYC:265 SL:55
15:25:17: E121  CA        DEX                            A:7B X:66 Y:00 P:25 SP:F9 CYC:283 SL:55
15:25:17: E122  D0 FA     BNE $E11E                      A:7B X:65 Y:00 P:25 SP:F9 CYC:289 SL:55
15:25:17: E11E  20 25 E1  JSR $E125                      A:7B X:65 Y:00 P:25 SP:F9 CYC:298 SL:55
15:25:17: E125  48        PHA                            A:7B X:65 Y:00 P:25 SP:F7 CYC:316 SL:55
15:25:17: E126  A9 00     LDA #$00                       A:7B X:65 Y:00 P:25 SP:F6 CYC:325 SL:55
15:25:17: E128  8D 06 20  STA $2006 = 00                 A:00 X:65 Y:00 P:27 SP:F6 CYC:331 SL:55
15:25:17: E12B  8D 06 20  STA $2006 = 00                 A:00 X:65 Y:00 P:27 SP:F6 CYC:  2 SL:56
15:25:17: E12E  A9 10     LDA #$10                       A:00 X:65 Y:00 P:27 SP:F6 CYC: 14 SL:56
15:25:17: E130  8D 06 20  STA $2006 = 00                 A:10 X:65 Y:00 P:25 SP:F6 CYC: 20 SL:56
15:25:17: E133  8D 06 20  STA $2006 = 00                 A:10 X:65 Y:00 P:25 SP:F6 CYC: 32 SL:56
15:25:17: E136  A9 00     LDA #$00                       A:10 X:65 Y:00 P:25 SP:F6 CYC: 44 SL:56
15:25:17: E138  8D 06 20  STA $2006 = 00                 A:00 X:65 Y:00 P:27 SP:F6 CYC: 50 SL:56
15:25:17: E13B  8D 06 20  STA $2006 = 00                 A:00 X:65 Y:00 P:27 SP:F6 CYC: 62 SL:56
15:25:17: E13E  68        PLA                            A:00 X:65 Y:00 P:27 SP:F6 CYC: 74 SL:56
15:25:17: E13F  60        RTS                            A:7B X:65 Y:00 P:25 SP:F7 CYC: 86 SL:56
15:25:17: E121  CA        DEX                            A:7B X:65 Y:00 P:25 SP:F9 CYC:104 SL:56
15:25:17: E122  D0 FA     BNE $E11E                      A:7B X:64 Y:00 P:25 SP:F9 CYC:110 SL:56
15:25:17: E11E  20 25 E1  JSR $E125                      A:7B X:64 Y:00 P:25 SP:F9 CYC:119 SL:56
15:25:17: E125  48        PHA                            A:7B X:64 Y:00 P:25 SP:F7 CYC:137 SL:56
15:25:17: E126  A9 00     LDA #$00                       A:7B X:64 Y:00 P:25 SP:F6 CYC:146 SL:56
15:25:17: E128  8D 06 20  STA $2006 = 00                 A:00 X:64 Y:00 P:27 SP:F6 CYC:152 SL:56
15:25:17: E12B  8D 06 20  STA $2006 = 00                 A:00 X:64 Y:00 P:27 SP:F6 CYC:164 SL:56
15:25:17: E12E  A9 10     LDA #$10                       A:00 X:64 Y:00 P:27 SP:F6 CYC:176 SL:56
15:25:17: E130  8D 06 20  STA $2006 = 00                 A:10 X:64 Y:00 P:25 SP:F6 CYC:182 SL:56
15:25:17: E133  8D 06 20  STA $2006 = 00                 A:10 X:64 Y:00 P:25 SP:F6 CYC:194 SL:56
15:25:17: E136  A9 00     LDA #$00                       A:10 X:64 Y:00 P:25 SP:F6 CYC:206 SL:56
15:25:17: E138  8D 06 20  STA $2006 = 00                 A:00 X:64 Y:00 P:27 SP:F6 CYC:212 SL:56
15:25:17: E13B  8D 06 20  STA $2006 = 00                 A:00 X:64 Y:00 P:27 SP:F6 CYC:224 SL:56
15:25:17: E13E  68        PLA                            A:00 X:64 Y:00 P:27 SP:F6 CYC:236 SL:56
15:25:17: E13F  60        RTS                            A:7B X:64 Y:00 P:25 SP:F7 CYC:248 SL:56
15:25:17: E121  CA        DEX                            A:7B X:64 Y:00 P:25 SP:F9 CYC:266 SL:56
15:25:17: E122  D0 FA     BNE $E11E                      A:7B X:63 Y:00 P:25 SP:F9 CYC:272 SL:56
15:25:17: E11E  20 25 E1  JSR $E125                      A:7B X:63 Y:00 P:25 SP:F9 CYC:281 SL:56
15:25:17: E125  48        PHA                            A:7B X:63 Y:00 P:25 SP:F7 CYC:299 SL:56
15:25:17: E126  A9 00     LDA #$00                       A:7B X:63 Y:00 P:25 SP:F6 CYC:308 SL:56
15:25:17: E128  8D 06 20  STA $2006 = 00                 A:00 X:63 Y:00 P:27 SP:F6 CYC:314 SL:56
15:25:17: E12B  8D 06 20  STA $2006 = 00                 A:00 X:63 Y:00 P:27 SP:F6 CYC:326 SL:56
15:25:17: E12E  A9 10     LDA #$10                       A:00 X:63 Y:00 P:27 SP:F6 CYC:338 SL:56
15:25:17: E130  8D 06 20  STA $2006 = 00                 A:10 X:63 Y:00 P:25 SP:F6 CYC:  3 SL:57
15:25:17: E133  8D 06 20  STA $2006 = 00                 A:10 X:63 Y:00 P:25 SP:F6 CYC: 15 SL:57
15:25:17: E136  A9 00     LDA #$00                       A:10 X:63 Y:00 P:25 SP:F6 CYC: 27 SL:57
15:25:17: E138  8D 06 20  STA $2006 = 00                 A:00 X:63 Y:00 P:27 SP:F6 CYC: 33 SL:57
15:25:17: E13B  8D 06 20  STA $2006 = 00                 A:00 X:63 Y:00 P:27 SP:F6 CYC: 45 SL:57
15:25:17: E13E  68        PLA                            A:00 X:63 Y:00 P:27 SP:F6 CYC: 57 SL:57
15:25:17: E13F  60        RTS                            A:7B X:63 Y:00 P:25 SP:F7 CYC: 69 SL:57
15:25:17: E121  CA        DEX                            A:7B X:63 Y:00 P:25 SP:F9 CYC: 87 SL:57
15:25:17: E122  D0 FA     BNE $E11E                      A:7B X:62 Y:00 P:25 SP:F9 CYC: 93 SL:57
15:25:17: E11E  20 25 E1  JSR $E125                      A:7B X:62 Y:00 P:25 SP:F9 CYC:102 SL:57
15:25:17: E125  48        PHA                            A:7B X:62 Y:00 P:25 SP:F7 CYC:120 SL:57
15:25:17: E126  A9 00     LDA #$00                       A:7B X:62 Y:00 P:25 SP:F6 CYC:129 SL:57
15:25:17: E128  8D 06 20  STA $2006 = 00                 A:00 X:62 Y:00 P:27 SP:F6 CYC:135 SL:57
15:25:17: E12B  8D 06 20  STA $2006 = 00                 A:00 X:62 Y:00 P:27 SP:F6 CYC:147 SL:57
15:25:17: E12E  A9 10     LDA #$10                       A:00 X:62 Y:00 P:27 SP:F6 CYC:159 SL:57
15:25:17: E130  8D 06 20  STA $2006 = 00                 A:10 X:62 Y:00 P:25 SP:F6 CYC:165 SL:57
15:25:17: E133  8D 06 20  STA $2006 = 00                 A:10 X:62 Y:00 P:25 SP:F6 CYC:177 SL:57
15:25:17: E136  A9 00     LDA #$00                       A:10 X:62 Y:00 P:25 SP:F6 CYC:189 SL:57
15:25:17: E138  8D 06 20  STA $2006 = 00                 A:00 X:62 Y:00 P:27 SP:F6 CYC:195 SL:57
15:25:17: E13B  8D 06 20  STA $2006 = 00                 A:00 X:62 Y:00 P:27 SP:F6 CYC:207 SL:57
15:25:17: E13E  68        PLA                            A:00 X:62 Y:00 P:27 SP:F6 CYC:219 SL:57
15:25:17: E13F  60        RTS                            A:7B X:62 Y:00 P:25 SP:F7 CYC:231 SL:57
15:25:17: E121  CA        DEX                            A:7B X:62 Y:00 P:25 SP:F9 CYC:249 SL:57
15:25:17: E122  D0 FA     BNE $E11E                      A:7B X:61 Y:00 P:25 SP:F9 CYC:255 SL:57
15:25:17: E11E  20 25 E1  JSR $E125                      A:7B X:61 Y:00 P:25 SP:F9 CYC:264 SL:57
15:25:17: E125  48        PHA                            A:7B X:61 Y:00 P:25 SP:F7 CYC:282 SL:57
15:25:17: E126  A9 00     LDA #$00                       A:7B X:61 Y:00 P:25 SP:F6 CYC:291 SL:57
15:25:17: E128  8D 06 20  STA $2006 = 00                 A:00 X:61 Y:00 P:27 SP:F6 CYC:297 SL:57
15:25:17: E12B  8D 06 20  STA $2006 = 00                 A:00 X:61 Y:00 P:27 SP:F6 CYC:309 SL:57
15:25:17: E12E  A9 10     LDA #$10                       A:00 X:61 Y:00 P:27 SP:F6 CYC:321 SL:57
15:25:17: E130  8D 06 20  STA $2006 = 00                 A:10 X:61 Y:00 P:25 SP:F6 CYC:327 SL:57
15:25:17: E133  8D 06 20  STA $2006 = 00                 A:10 X:61 Y:00 P:25 SP:F6 CYC:339 SL:57
15:25:17: E136  A9 00     LDA #$00                       A:10 X:61 Y:00 P:25 SP:F6 CYC: 10 SL:58
15:25:17: E138  8D 06 20  STA $2006 = 00                 A:00 X:61 Y:00 P:27 SP:F6 CYC: 16 SL:58
15:25:17: E13B  8D 06 20  STA $2006 = 00                 A:00 X:61 Y:00 P:27 SP:F6 CYC: 28 SL:58
15:25:17: E13E  68        PLA                            A:00 X:61 Y:00 P:27 SP:F6 CYC: 40 SL:58
15:25:17: E13F  60        RTS                            A:7B X:61 Y:00 P:25 SP:F7 CYC: 52 SL:58
15:25:17: E121  CA        DEX                            A:7B X:61 Y:00 P:25 SP:F9 CYC: 70 SL:58
15:25:17: E122  D0 FA     BNE $E11E                      A:7B X:60 Y:00 P:25 SP:F9 CYC: 76 SL:58
15:25:17: E11E  20 25 E1  JSR $E125                      A:7B X:60 Y:00 P:25 SP:F9 CYC: 85 SL:58
15:25:17: E125  48        PHA                            A:7B X:60 Y:00 P:25 SP:F7 CYC:103 SL:58
15:25:17: E126  A9 00     LDA #$00                       A:7B X:60 Y:00 P:25 SP:F6 CYC:112 SL:58
15:25:17: E128  8D 06 20  STA $2006 = 00                 A:00 X:60 Y:00 P:27 SP:F6 CYC:118 SL:58
15:25:17: E12B  8D 06 20  STA $2006 = 00                 A:00 X:60 Y:00 P:27 SP:F6 CYC:130 SL:58
15:25:17: E12E  A9 10     LDA #$10                       A:00 X:60 Y:00 P:27 SP:F6 CYC:142 SL:58
15:25:17: E130  8D 06 20  STA $2006 = 00                 A:10 X:60 Y:00 P:25 SP:F6 CYC:148 SL:58
15:25:17: E133  8D 06 20  STA $2006 = 00                 A:10 X:60 Y:00 P:25 SP:F6 CYC:160 SL:58
15:25:17: E136  A9 00     LDA #$00                       A:10 X:60 Y:00 P:25 SP:F6 CYC:172 SL:58
15:25:17: E138  8D 06 20  STA $2006 = 00                 A:00 X:60 Y:00 P:27 SP:F6 CYC:178 SL:58
15:25:17: E13B  8D 06 20  STA $2006 = 00                 A:00 X:60 Y:00 P:27 SP:F6 CYC:190 SL:58
15:25:17: E13E  68        PLA                            A:00 X:60 Y:00 P:27 SP:F6 CYC:202 SL:58
15:25:17: E13F  60        RTS                            A:7B X:60 Y:00 P:25 SP:F7 CYC:214 SL:58
15:25:17: E121  CA        DEX                            A:7B X:60 Y:00 P:25 SP:F9 CYC:232 SL:58
15:25:17: E122  D0 FA     BNE $E11E                      A:7B X:5F Y:00 P:25 SP:F9 CYC:238 SL:58
15:25:17: E11E  20 25 E1  JSR $E125                      A:7B X:5F Y:00 P:25 SP:F9 CYC:247 SL:58
15:25:17: E125  48        PHA                            A:7B X:5F Y:00 P:25 SP:F7 CYC:265 SL:58
15:25:17: E126  A9 00     LDA #$00                       A:7B X:5F Y:00 P:25 SP:F6 CYC:274 SL:58
15:25:17: E128  8D 06 20  STA $2006 = 00                 A:00 X:5F Y:00 P:27 SP:F6 CYC:280 SL:58
15:25:17: E12B  8D 06 20  STA $2006 = 00                 A:00 X:5F Y:00 P:27 SP:F6 CYC:292 SL:58
15:25:17: E12E  A9 10     LDA #$10                       A:00 X:5F Y:00 P:27 SP:F6 CYC:304 SL:58
15:25:17: E130  8D 06 20  STA $2006 = 00                 A:10 X:5F Y:00 P:25 SP:F6 CYC:310 SL:58
15:25:17: E133  8D 06 20  STA $2006 = 00                 A:10 X:5F Y:00 P:25 SP:F6 CYC:322 SL:58
15:25:17: E136  A9 00     LDA #$00                       A:10 X:5F Y:00 P:25 SP:F6 CYC:334 SL:58
15:25:17: E138  8D 06 20  STA $2006 = 00                 A:00 X:5F Y:00 P:27 SP:F6 CYC:340 SL:58
15:25:17: E13B  8D 06 20  STA $2006 = 00                 A:00 X:5F Y:00 P:27 SP:F6 CYC: 11 SL:59
15:25:17: E13E  68        PLA                            A:00 X:5F Y:00 P:27 SP:F6 CYC: 23 SL:59
15:25:17: E13F  60        RTS                            A:7B X:5F Y:00 P:25 SP:F7 CYC: 35 SL:59
15:25:17: E121  CA        DEX                            A:7B X:5F Y:00 P:25 SP:F9 CYC: 53 SL:59
15:25:17: E122  D0 FA     BNE $E11E                      A:7B X:5E Y:00 P:25 SP:F9 CYC: 59 SL:59
15:25:17: E11E  20 25 E1  JSR $E125                      A:7B X:5E Y:00 P:25 SP:F9 CYC: 68 SL:59
15:25:17: E125  48        PHA                            A:7B X:5E Y:00 P:25 SP:F7 CYC: 86 SL:59
15:25:17: E126  A9 00     LDA #$00                       A:7B X:5E Y:00 P:25 SP:F6 CYC: 95 SL:59
15:25:17: E128  8D 06 20  STA $2006 = 00                 A:00 X:5E Y:00 P:27 SP:F6 CYC:101 SL:59
15:25:17: E12B  8D 06 20  STA $2006 = 00                 A:00 X:5E Y:00 P:27 SP:F6 CYC:113 SL:59
15:25:17: E12E  A9 10     LDA #$10                       A:00 X:5E Y:00 P:27 SP:F6 CYC:125 SL:59
15:25:17: E130  8D 06 20  STA $2006 = 00                 A:10 X:5E Y:00 P:25 SP:F6 CYC:131 SL:59
15:25:17: E133  8D 06 20  STA $2006 = 00                 A:10 X:5E Y:00 P:25 SP:F6 CYC:143 SL:59
15:25:17: E136  A9 00     LDA #$00                       A:10 X:5E Y:00 P:25 SP:F6 CYC:155 SL:59
15:25:17: E138  8D 06 20  STA $2006 = 00                 A:00 X:5E Y:00 P:27 SP:F6 CYC:161 SL:59
15:25:17: E13B  8D 06 20  STA $2006 = 00                 A:00 X:5E Y:00 P:27 SP:F6 CYC:173 SL:59
15:25:17: E13E  68        PLA                            A:00 X:5E Y:00 P:27 SP:F6 CYC:185 SL:59
15:25:17: E13F  60        RTS                            A:7B X:5E Y:00 P:25 SP:F7 CYC:197 SL:59
15:25:17: E121  CA        DEX                            A:7B X:5E Y:00 P:25 SP:F9 CYC:215 SL:59
15:25:17: E122  D0 FA     BNE $E11E                      A:7B X:5D Y:00 P:25 SP:F9 CYC:221 SL:59
15:25:17: E11E  20 25 E1  JSR $E125                      A:7B X:5D Y:00 P:25 SP:F9 CYC:230 SL:59
15:25:17: E125  48        PHA                            A:7B X:5D Y:00 P:25 SP:F7 CYC:248 SL:59
15:25:17: E126  A9 00     LDA #$00                       A:7B X:5D Y:00 P:25 SP:F6 CYC:257 SL:59
15:25:17: E128  8D 06 20  STA $2006 = 00                 A:00 X:5D Y:00 P:27 SP:F6 CYC:263 SL:59
15:25:17: E12B  8D 06 20  STA $2006 = 00                 A:00 X:5D Y:00 P:27 SP:F6 CYC:275 SL:59
15:25:17: E12E  A9 10     LDA #$10                       A:00 X:5D Y:00 P:27 SP:F6 CYC:287 SL:59
15:25:17: E130  8D 06 20  STA $2006 = 00                 A:10 X:5D Y:00 P:25 SP:F6 CYC:293 SL:59
15:25:17: E133  8D 06 20  STA $2006 = 00                 A:10 X:5D Y:00 P:25 SP:F6 CYC:305 SL:59
15:25:17: E136  A9 00     LDA #$00                       A:10 X:5D Y:00 P:25 SP:F6 CYC:317 SL:59
15:25:17: E138  8D 06 20  STA $2006 = 00                 A:00 X:5D Y:00 P:27 SP:F6 CYC:323 SL:59
15:25:17: E13B  8D 06 20  STA $2006 = 00                 A:00 X:5D Y:00 P:27 SP:F6 CYC:335 SL:59
15:25:17: E13E  68        PLA                            A:00 X:5D Y:00 P:27 SP:F6 CYC:  6 SL:60
15:25:17: E13F  60        RTS                            A:7B X:5D Y:00 P:25 SP:F7 CYC: 18 SL:60
15:25:17: E121  CA        DEX                            A:7B X:5D Y:00 P:25 SP:F9 CYC: 36 SL:60
15:25:17: E122  D0 FA     BNE $E11E                      A:7B X:5C Y:00 P:25 SP:F9 CYC: 42 SL:60
15:25:17: E11E  20 25 E1  JSR $E125                      A:7B X:5C Y:00 P:25 SP:F9 CYC: 51 SL:60
15:25:17: E125  48        PHA                            A:7B X:5C Y:00 P:25 SP:F7 CYC: 69 SL:60
15:25:17: E126  A9 00     LDA #$00                       A:7B X:5C Y:00 P:25 SP:F6 CYC: 78 SL:60
15:25:17: E128  8D 06 20  STA $2006 = 00                 A:00 X:5C Y:00 P:27 SP:F6 CYC: 84 SL:60
15:25:17: E12B  8D 06 20  STA $2006 = 00                 A:00 X:5C Y:00 P:27 SP:F6 CYC: 96 SL:60
15:25:17: E12E  A9 10     LDA #$10                       A:00 X:5C Y:00 P:27 SP:F6 CYC:108 SL:60
15:25:17: E130  8D 06 20  STA $2006 = 00                 A:10 X:5C Y:00 P:25 SP:F6 CYC:114 SL:60
15:25:17: E133  8D 06 20  STA $2006 = 00                 A:10 X:5C Y:00 P:25 SP:F6 CYC:126 SL:60
15:25:17: E136  A9 00     LDA #$00                       A:10 X:5C Y:00 P:25 SP:F6 CYC:138 SL:60
15:25:17: E138  8D 06 20  STA $2006 = 00                 A:00 X:5C Y:00 P:27 SP:F6 CYC:144 SL:60
15:25:17: E13B  8D 06 20  STA $2006 = 00                 A:00 X:5C Y:00 P:27 SP:F6 CYC:156 SL:60
15:25:17: E13E  68        PLA                            A:00 X:5C Y:00 P:27 SP:F6 CYC:168 SL:60
15:25:17: E13F  60        RTS                            A:7B X:5C Y:00 P:25 SP:F7 CYC:180 SL:60
15:25:17: E121  CA        DEX                            A:7B X:5C Y:00 P:25 SP:F9 CYC:198 SL:60
15:25:17: E122  D0 FA     BNE $E11E                      A:7B X:5B Y:00 P:25 SP:F9 CYC:204 SL:60
15:25:17: E11E  20 25 E1  JSR $E125                      A:7B X:5B Y:00 P:25 SP:F9 CYC:213 SL:60
15:25:17: E125  48        PHA                            A:7B X:5B Y:00 P:25 SP:F7 CYC:231 SL:60
15:25:17: E126  A9 00     LDA #$00                       A:7B X:5B Y:00 P:25 SP:F6 CYC:240 SL:60
15:25:17: E128  8D 06 20  STA $2006 = 00                 A:00 X:5B Y:00 P:27 SP:F6 CYC:246 SL:60
15:25:17: E12B  8D 06 20  STA $2006 = 00                 A:00 X:5B Y:00 P:27 SP:F6 CYC:258 SL:60
15:25:17: E12E  A9 10     LDA #$10                       A:00 X:5B Y:00 P:27 SP:F6 CYC:270 SL:60
15:25:17: E130  8D 06 20  STA $2006 = 00                 A:10 X:5B Y:00 P:25 SP:F6 CYC:276 SL:60
15:25:17: E133  8D 06 20  STA $2006 = 00                 A:10 X:5B Y:00 P:25 SP:F6 CYC:288 SL:60
15:25:17: E136  A9 00     LDA #$00                       A:10 X:5B Y:00 P:25 SP:F6 CYC:300 SL:60
15:25:17: E138  8D 06 20  STA $2006 = 00                 A:00 X:5B Y:00 P:27 SP:F6 CYC:306 SL:60
15:25:17: E13B  8D 06 20  STA $2006 = 00                 A:00 X:5B Y:00 P:27 SP:F6 CYC:318 SL:60
15:25:17: E13E  68        PLA                            A:00 X:5B Y:00 P:27 SP:F6 CYC:330 SL:60
15:25:17: E13F  60        RTS                            A:7B X:5B Y:00 P:25 SP:F7 CYC:  1 SL:61
15:25:17: E121  CA        DEX                            A:7B X:5B Y:00 P:25 SP:F9 CYC: 19 SL:61
15:25:17: E122  D0 FA     BNE $E11E                      A:7B X:5A Y:00 P:25 SP:F9 CYC: 25 SL:61
15:25:17: E11E  20 25 E1  JSR $E125                      A:7B X:5A Y:00 P:25 SP:F9 CYC: 34 SL:61
15:25:17: E125  48        PHA                            A:7B X:5A Y:00 P:25 SP:F7 CYC: 52 SL:61
15:25:17: E126  A9 00     LDA #$00                       A:7B X:5A Y:00 P:25 SP:F6 CYC: 61 SL:61
15:25:17: E128  8D 06 20  STA $2006 = 00                 A:00 X:5A Y:00 P:27 SP:F6 CYC: 67 SL:61
15:25:17: E12B  8D 06 20  STA $2006 = 00                 A:00 X:5A Y:00 P:27 SP:F6 CYC: 79 SL:61
15:25:17: E12E  A9 10     LDA #$10                       A:00 X:5A Y:00 P:27 SP:F6 CYC: 91 SL:61
15:25:17: E130  8D 06 20  STA $2006 = 00                 A:10 X:5A Y:00 P:25 SP:F6 CYC: 97 SL:61
15:25:17: E133  8D 06 20  STA $2006 = 00                 A:10 X:5A Y:00 P:25 SP:F6 CYC:109 SL:61
15:25:17: E136  A9 00     LDA #$00                       A:10 X:5A Y:00 P:25 SP:F6 CYC:121 SL:61
15:25:17: E138  8D 06 20  STA $2006 = 00                 A:00 X:5A Y:00 P:27 SP:F6 CYC:127 SL:61
15:25:17: E13B  8D 06 20  STA $2006 = 00                 A:00 X:5A Y:00 P:27 SP:F6 CYC:139 SL:61
15:25:17: E13E  68        PLA                            A:00 X:5A Y:00 P:27 SP:F6 CYC:151 SL:61
15:25:17: E13F  60        RTS                            A:7B X:5A Y:00 P:25 SP:F7 CYC:163 SL:61
15:25:17: E121  CA        DEX                            A:7B X:5A Y:00 P:25 SP:F9 CYC:181 SL:61
15:25:17: E122  D0 FA     BNE $E11E                      A:7B X:59 Y:00 P:25 SP:F9 CYC:187 SL:61
15:25:17: E11E  20 25 E1  JSR $E125                      A:7B X:59 Y:00 P:25 SP:F9 CYC:196 SL:61
15:25:17: E125  48        PHA                            A:7B X:59 Y:00 P:25 SP:F7 CYC:214 SL:61
15:25:17: E126  A9 00     LDA #$00                       A:7B X:59 Y:00 P:25 SP:F6 CYC:223 SL:61
15:25:17: E128  8D 06 20  STA $2006 = 00                 A:00 X:59 Y:00 P:27 SP:F6 CYC:229 SL:61
15:25:17: E12B  8D 06 20  STA $2006 = 00                 A:00 X:59 Y:00 P:27 SP:F6 CYC:241 SL:61
15:25:17: E12E  A9 10     LDA #$10                       A:00 X:59 Y:00 P:27 SP:F6 CYC:253 SL:61
15:25:17: E130  8D 06 20  STA $2006 = 00                 A:10 X:59 Y:00 P:25 SP:F6 CYC:259 SL:61
15:25:17: E133  8D 06 20  STA $2006 = 00                 A:10 X:59 Y:00 P:25 SP:F6 CYC:271 SL:61
15:25:17: E136  A9 00     LDA #$00                       A:10 X:59 Y:00 P:25 SP:F6 CYC:283 SL:61
15:25:17: E138  8D 06 20  STA $2006 = 00                 A:00 X:59 Y:00 P:27 SP:F6 CYC:289 SL:61
15:25:17: E13B  8D 06 20  STA $2006 = 00                 A:00 X:59 Y:00 P:27 SP:F6 CYC:301 SL:61
15:25:17: E13E  68        PLA                            A:00 X:59 Y:00 P:27 SP:F6 CYC:313 SL:61
15:25:17: E13F  60        RTS                            A:7B X:59 Y:00 P:25 SP:F7 CYC:325 SL:61
15:25:17: E121  CA        DEX                            A:7B X:59 Y:00 P:25 SP:F9 CYC:  2 SL:62
15:25:17: E122  D0 FA     BNE $E11E                      A:7B X:58 Y:00 P:25 SP:F9 CYC:  8 SL:62
15:25:17: E11E  20 25 E1  JSR $E125                      A:7B X:58 Y:00 P:25 SP:F9 CYC: 17 SL:62
15:25:17: E125  48        PHA                            A:7B X:58 Y:00 P:25 SP:F7 CYC: 35 SL:62
15:25:17: E126  A9 00     LDA #$00                       A:7B X:58 Y:00 P:25 SP:F6 CYC: 44 SL:62
15:25:17: E128  8D 06 20  STA $2006 = 00                 A:00 X:58 Y:00 P:27 SP:F6 CYC: 50 SL:62
15:25:17: E12B  8D 06 20  STA $2006 = 00                 A:00 X:58 Y:00 P:27 SP:F6 CYC: 62 SL:62
15:25:17: E12E  A9 10     LDA #$10                       A:00 X:58 Y:00 P:27 SP:F6 CYC: 74 SL:62
15:25:17: E130  8D 06 20  STA $2006 = 00                 A:10 X:58 Y:00 P:25 SP:F6 CYC: 80 SL:62
15:25:17: E133  8D 06 20  STA $2006 = 00                 A:10 X:58 Y:00 P:25 SP:F6 CYC: 92 SL:62
15:25:17: E136  A9 00     LDA #$00                       A:10 X:58 Y:00 P:25 SP:F6 CYC:104 SL:62
15:25:17: E138  8D 06 20  STA $2006 = 00                 A:00 X:58 Y:00 P:27 SP:F6 CYC:110 SL:62
15:25:17: E13B  8D 06 20  STA $2006 = 00                 A:00 X:58 Y:00 P:27 SP:F6 CYC:122 SL:62
15:25:17: E13E  68        PLA                            A:00 X:58 Y:00 P:27 SP:F6 CYC:134 SL:62
15:25:17: E13F  60        RTS                            A:7B X:58 Y:00 P:25 SP:F7 CYC:146 SL:62
15:25:17: E121  CA        DEX                            A:7B X:58 Y:00 P:25 SP:F9 CYC:164 SL:62
15:25:17: E122  D0 FA     BNE $E11E                      A:7B X:57 Y:00 P:25 SP:F9 CYC:170 SL:62
15:25:17: E11E  20 25 E1  JSR $E125                      A:7B X:57 Y:00 P:25 SP:F9 CYC:179 SL:62
15:25:17: E125  48        PHA                            A:7B X:57 Y:00 P:25 SP:F7 CYC:197 SL:62
15:25:17: E126  A9 00     LDA #$00                       A:7B X:57 Y:00 P:25 SP:F6 CYC:206 SL:62
15:25:17: E128  8D 06 20  STA $2006 = 00                 A:00 X:57 Y:00 P:27 SP:F6 CYC:212 SL:62
15:25:17: E12B  8D 06 20  STA $2006 = 00                 A:00 X:57 Y:00 P:27 SP:F6 CYC:224 SL:62
15:25:17: E12E  A9 10     LDA #$10                       A:00 X:57 Y:00 P:27 SP:F6 CYC:236 SL:62
15:25:17: E130  8D 06 20  STA $2006 = 00                 A:10 X:57 Y:00 P:25 SP:F6 CYC:242 SL:62
15:25:17: E133  8D 06 20  STA $2006 = 00                 A:10 X:57 Y:00 P:25 SP:F6 CYC:254 SL:62
15:25:17: E136  A9 00     LDA #$00                       A:10 X:57 Y:00 P:25 SP:F6 CYC:266 SL:62
15:25:17: E138  8D 06 20  STA $2006 = 00                 A:00 X:57 Y:00 P:27 SP:F6 CYC:272 SL:62
15:25:17: E13B  8D 06 20  STA $2006 = 00                 A:00 X:57 Y:00 P:27 SP:F6 CYC:284 SL:62
15:25:17: E13E  68        PLA                            A:00 X:57 Y:00 P:27 SP:F6 CYC:296 SL:62
15:25:17: E13F  60        RTS                            A:7B X:57 Y:00 P:25 SP:F7 CYC:308 SL:62
15:25:17: E121  CA        DEX                            A:7B X:57 Y:00 P:25 SP:F9 CYC:326 SL:62
15:25:17: E122  D0 FA     BNE $E11E                      A:7B X:56 Y:00 P:25 SP:F9 CYC:332 SL:62
15:25:17: E11E  20 25 E1  JSR $E125                      A:7B X:56 Y:00 P:25 SP:F9 CYC:  0 SL:63
15:25:17: E125  48        PHA                            A:7B X:56 Y:00 P:25 SP:F7 CYC: 18 SL:63
15:25:17: E126  A9 00     LDA #$00                       A:7B X:56 Y:00 P:25 SP:F6 CYC: 27 SL:63
15:25:17: E128  8D 06 20  STA $2006 = 00                 A:00 X:56 Y:00 P:27 SP:F6 CYC: 33 SL:63
15:25:17: E12B  8D 06 20  STA $2006 = 00                 A:00 X:56 Y:00 P:27 SP:F6 CYC: 45 SL:63
15:25:17: E12E  A9 10     LDA #$10                       A:00 X:56 Y:00 P:27 SP:F6 CYC: 57 SL:63
15:25:17: E130  8D 06 20  STA $2006 = 00                 A:10 X:56 Y:00 P:25 SP:F6 CYC: 63 SL:63
15:25:17: E133  8D 06 20  STA $2006 = 00                 A:10 X:56 Y:00 P:25 SP:F6 CYC: 75 SL:63
15:25:17: E136  A9 00     LDA #$00                       A:10 X:56 Y:00 P:25 SP:F6 CYC: 87 SL:63
15:25:17: E138  8D 06 20  STA $2006 = 00                 A:00 X:56 Y:00 P:27 SP:F6 CYC: 93 SL:63
15:25:17: E13B  8D 06 20  STA $2006 = 00                 A:00 X:56 Y:00 P:27 SP:F6 CYC:105 SL:63
15:25:17: E13E  68        PLA                            A:00 X:56 Y:00 P:27 SP:F6 CYC:117 SL:63
15:25:17: E13F  60        RTS                            A:7B X:56 Y:00 P:25 SP:F7 CYC:129 SL:63
15:25:17: E121  CA        DEX                            A:7B X:56 Y:00 P:25 SP:F9 CYC:147 SL:63
15:25:17: E122  D0 FA     BNE $E11E                      A:7B X:55 Y:00 P:25 SP:F9 CYC:153 SL:63
15:25:17: E11E  20 25 E1  JSR $E125                      A:7B X:55 Y:00 P:25 SP:F9 CYC:162 SL:63
15:25:17: E125  48        PHA                            A:7B X:55 Y:00 P:25 SP:F7 CYC:180 SL:63
15:25:17: E126  A9 00     LDA #$00                       A:7B X:55 Y:00 P:25 SP:F6 CYC:189 SL:63
15:25:17: E128  8D 06 20  STA $2006 = 00                 A:00 X:55 Y:00 P:27 SP:F6 CYC:195 SL:63
15:25:17: E12B  8D 06 20  STA $2006 = 00                 A:00 X:55 Y:00 P:27 SP:F6 CYC:207 SL:63
15:25:17: E12E  A9 10     LDA #$10                       A:00 X:55 Y:00 P:27 SP:F6 CYC:219 SL:63
15:25:17: E130  8D 06 20  STA $2006 = 00                 A:10 X:55 Y:00 P:25 SP:F6 CYC:225 SL:63
15:25:17: E133  8D 06 20  STA $2006 = 00                 A:10 X:55 Y:00 P:25 SP:F6 CYC:237 SL:63
15:25:17: E136  A9 00     LDA #$00                       A:10 X:55 Y:00 P:25 SP:F6 CYC:249 SL:63
15:25:17: E138  8D 06 20  STA $2006 = 00                 A:00 X:55 Y:00 P:27 SP:F6 CYC:255 SL:63
15:25:17: E13B  8D 06 20  STA $2006 = 00                 A:00 X:55 Y:00 P:27 SP:F6 CYC:267 SL:63
15:25:17: E13E  68        PLA                            A:00 X:55 Y:00 P:27 SP:F6 CYC:279 SL:63
15:25:17: E13F  60        RTS                            A:7B X:55 Y:00 P:25 SP:F7 CYC:291 SL:63
15:25:17: E121  CA        DEX                            A:7B X:55 Y:00 P:25 SP:F9 CYC:309 SL:63
15:25:17: E122  D0 FA     BNE $E11E                      A:7B X:54 Y:00 P:25 SP:F9 CYC:315 SL:63
15:25:17: E11E  20 25 E1  JSR $E125                      A:7B X:54 Y:00 P:25 SP:F9 CYC:324 SL:63
15:25:17: E125  48        PHA                            A:7B X:54 Y:00 P:25 SP:F7 CYC:  1 SL:64
15:25:17: E126  A9 00     LDA #$00                       A:7B X:54 Y:00 P:25 SP:F6 CYC: 10 SL:64
15:25:17: E128  8D 06 20  STA $2006 = 00                 A:00 X:54 Y:00 P:27 SP:F6 CYC: 16 SL:64
15:25:17: E12B  8D 06 20  STA $2006 = 00                 A:00 X:54 Y:00 P:27 SP:F6 CYC: 28 SL:64
15:25:17: E12E  A9 10     LDA #$10                       A:00 X:54 Y:00 P:27 SP:F6 CYC: 40 SL:64
15:25:17: E130  8D 06 20  STA $2006 = 00                 A:10 X:54 Y:00 P:25 SP:F6 CYC: 46 SL:64
15:25:17: E133  8D 06 20  STA $2006 = 00                 A:10 X:54 Y:00 P:25 SP:F6 CYC: 58 SL:64
15:25:18: E136  A9 00     LDA #$00                       A:10 X:54 Y:00 P:25 SP:F6 CYC: 70 SL:64
15:25:18: E138  8D 06 20  STA $2006 = 00                 A:00 X:54 Y:00 P:27 SP:F6 CYC: 76 SL:64
15:25:18: E13B  8D 06 20  STA $2006 = 00                 A:00 X:54 Y:00 P:27 SP:F6 CYC: 88 SL:64
15:25:18: E13E  68        PLA                            A:00 X:54 Y:00 P:27 SP:F6 CYC:100 SL:64
15:25:18: E13F  60        RTS                            A:7B X:54 Y:00 P:25 SP:F7 CYC:112 SL:64
15:25:18: E121  CA        DEX                            A:7B X:54 Y:00 P:25 SP:F9 CYC:130 SL:64
15:25:18: E122  D0 FA     BNE $E11E                      A:7B X:53 Y:00 P:25 SP:F9 CYC:136 SL:64
15:25:18: E11E  20 25 E1  JSR $E125                      A:7B X:53 Y:00 P:25 SP:F9 CYC:145 SL:64
15:25:18: E125  48        PHA                            A:7B X:53 Y:00 P:25 SP:F7 CYC:163 SL:64
15:25:18: E126  A9 00     LDA #$00                       A:7B X:53 Y:00 P:25 SP:F6 CYC:172 SL:64
15:25:18: E128  8D 06 20  STA $2006 = 00                 A:00 X:53 Y:00 P:27 SP:F6 CYC:178 SL:64
15:25:18: E12B  8D 06 20  STA $2006 = 00                 A:00 X:53 Y:00 P:27 SP:F6 CYC:190 SL:64
15:25:18: E12E  A9 10     LDA #$10                       A:00 X:53 Y:00 P:27 SP:F6 CYC:202 SL:64
15:25:18: E130  8D 06 20  STA $2006 = 00                 A:10 X:53 Y:00 P:25 SP:F6 CYC:208 SL:64
15:25:18: E133  8D 06 20  STA $2006 = 00                 A:10 X:53 Y:00 P:25 SP:F6 CYC:220 SL:64
15:25:18: E136  A9 00     LDA #$00                       A:10 X:53 Y:00 P:25 SP:F6 CYC:232 SL:64
15:25:18: E138  8D 06 20  STA $2006 = 00                 A:00 X:53 Y:00 P:27 SP:F6 CYC:238 SL:64
15:25:18: E13B  8D 06 20  STA $2006 = 00                 A:00 X:53 Y:00 P:27 SP:F6 CYC:250 SL:64
15:25:18: E13E  68        PLA                            A:00 X:53 Y:00 P:27 SP:F6 CYC:262 SL:64
15:25:18: E13F  60        RTS                            A:7B X:53 Y:00 P:25 SP:F7 CYC:274 SL:64
15:25:18: E121  CA        DEX                            A:7B X:53 Y:00 P:25 SP:F9 CYC:292 SL:64
15:25:18: E122  D0 FA     BNE $E11E                      A:7B X:52 Y:00 P:25 SP:F9 CYC:298 SL:64
15:25:18: E11E  20 25 E1  JSR $E125                      A:7B X:52 Y:00 P:25 SP:F9 CYC:307 SL:64
15:25:18: E125  48        PHA                            A:7B X:52 Y:00 P:25 SP:F7 CYC:325 SL:64
15:25:18: E126  A9 00     LDA #$00                       A:7B X:52 Y:00 P:25 SP:F6 CYC:334 SL:64
15:25:18: E128  8D 06 20  STA $2006 = 00                 A:00 X:52 Y:00 P:27 SP:F6 CYC:340 SL:64
15:25:18: E12B  8D 06 20  STA $2006 = 00                 A:00 X:52 Y:00 P:27 SP:F6 CYC: 11 SL:65
15:25:18: E12E  A9 10     LDA #$10                       A:00 X:52 Y:00 P:27 SP:F6 CYC: 23 SL:65
15:25:18: E130  8D 06 20  STA $2006 = 00                 A:10 X:52 Y:00 P:25 SP:F6 CYC: 29 SL:65
15:25:18: E133  8D 06 20  STA $2006 = 00                 A:10 X:52 Y:00 P:25 SP:F6 CYC: 41 SL:65
15:25:18: E136  A9 00     LDA #$00                       A:10 X:52 Y:00 P:25 SP:F6 CYC: 53 SL:65
15:25:18: E138  8D 06 20  STA $2006 = 00                 A:00 X:52 Y:00 P:27 SP:F6 CYC: 59 SL:65
15:25:18: E13B  8D 06 20  STA $2006 = 00                 A:00 X:52 Y:00 P:27 SP:F6 CYC: 71 SL:65
15:25:18: E13E  68        PLA                            A:00 X:52 Y:00 P:27 SP:F6 CYC: 83 SL:65
15:25:18: E13F  60        RTS                            A:7B X:52 Y:00 P:25 SP:F7 CYC: 95 SL:65
15:25:18: E121  CA        DEX                            A:7B X:52 Y:00 P:25 SP:F9 CYC:113 SL:65
15:25:18: E122  D0 FA     BNE $E11E                      A:7B X:51 Y:00 P:25 SP:F9 CYC:119 SL:65
15:25:18: E11E  20 25 E1  JSR $E125                      A:7B X:51 Y:00 P:25 SP:F9 CYC:128 SL:65
15:25:18: E125  48        PHA                            A:7B X:51 Y:00 P:25 SP:F7 CYC:146 SL:65
15:25:18: E126  A9 00     LDA #$00                       A:7B X:51 Y:00 P:25 SP:F6 CYC:155 SL:65
15:25:18: E128  8D 06 20  STA $2006 = 00                 A:00 X:51 Y:00 P:27 SP:F6 CYC:161 SL:65
15:25:18: E12B  8D 06 20  STA $2006 = 00                 A:00 X:51 Y:00 P:27 SP:F6 CYC:173 SL:65
15:25:18: E12E  A9 10     LDA #$10                       A:00 X:51 Y:00 P:27 SP:F6 CYC:185 SL:65
15:25:18: E130  8D 06 20  STA $2006 = 00                 A:10 X:51 Y:00 P:25 SP:F6 CYC:191 SL:65
15:25:18: E133  8D 06 20  STA $2006 = 00                 A:10 X:51 Y:00 P:25 SP:F6 CYC:203 SL:65
15:25:18: E136  A9 00     LDA #$00                       A:10 X:51 Y:00 P:25 SP:F6 CYC:215 SL:65
15:25:18: E138  8D 06 20  STA $2006 = 00                 A:00 X:51 Y:00 P:27 SP:F6 CYC:221 SL:65
15:25:18: E13B  8D 06 20  STA $2006 = 00                 A:00 X:51 Y:00 P:27 SP:F6 CYC:233 SL:65
15:25:18: E13E  68        PLA                            A:00 X:51 Y:00 P:27 SP:F6 CYC:245 SL:65
15:25:18: E13F  60        RTS                            A:7B X:51 Y:00 P:25 SP:F7 CYC:257 SL:65
15:25:18: E121  CA        DEX                            A:7B X:51 Y:00 P:25 SP:F9 CYC:275 SL:65
15:25:18: E122  D0 FA     BNE $E11E                      A:7B X:50 Y:00 P:25 SP:F9 CYC:281 SL:65
15:25:18: E11E  20 25 E1  JSR $E125                      A:7B X:50 Y:00 P:25 SP:F9 CYC:290 SL:65
15:25:18: E125  48        PHA                            A:7B X:50 Y:00 P:25 SP:F7 CYC:308 SL:65
15:25:18: E126  A9 00     LDA #$00                       A:7B X:50 Y:00 P:25 SP:F6 CYC:317 SL:65
15:25:18: E128  8D 06 20  STA $2006 = 00                 A:00 X:50 Y:00 P:27 SP:F6 CYC:323 SL:65
15:25:18: E12B  8D 06 20  STA $2006 = 00                 A:00 X:50 Y:00 P:27 SP:F6 CYC:335 SL:65
15:25:18: E12E  A9 10     LDA #$10                       A:00 X:50 Y:00 P:27 SP:F6 CYC:  6 SL:66
15:25:18: E130  8D 06 20  STA $2006 = 00                 A:10 X:50 Y:00 P:25 SP:F6 CYC: 12 SL:66
15:25:18: E133  8D 06 20  STA $2006 = 00                 A:10 X:50 Y:00 P:25 SP:F6 CYC: 24 SL:66
15:25:18: E136  A9 00     LDA #$00                       A:10 X:50 Y:00 P:25 SP:F6 CYC: 36 SL:66
15:25:18: E138  8D 06 20  STA $2006 = 00                 A:00 X:50 Y:00 P:27 SP:F6 CYC: 42 SL:66
15:25:18: E13B  8D 06 20  STA $2006 = 00                 A:00 X:50 Y:00 P:27 SP:F6 CYC: 54 SL:66
15:25:18: E13E  68        PLA                            A:00 X:50 Y:00 P:27 SP:F6 CYC: 66 SL:66
15:25:18: E13F  60        RTS                            A:7B X:50 Y:00 P:25 SP:F7 CYC: 78 SL:66
15:25:18: E121  CA        DEX                            A:7B X:50 Y:00 P:25 SP:F9 CYC: 96 SL:66
15:25:18: E122  D0 FA     BNE $E11E                      A:7B X:4F Y:00 P:25 SP:F9 CYC:102 SL:66
15:25:18: E11E  20 25 E1  JSR $E125                      A:7B X:4F Y:00 P:25 SP:F9 CYC:111 SL:66
15:25:18: E125  48        PHA                            A:7B X:4F Y:00 P:25 SP:F7 CYC:129 SL:66
15:25:18: E126  A9 00     LDA #$00                       A:7B X:4F Y:00 P:25 SP:F6 CYC:138 SL:66
15:25:18: E128  8D 06 20  STA $2006 = 00                 A:00 X:4F Y:00 P:27 SP:F6 CYC:144 SL:66
15:25:18: E12B  8D 06 20  STA $2006 = 00                 A:00 X:4F Y:00 P:27 SP:F6 CYC:156 SL:66
15:25:18: E12E  A9 10     LDA #$10                       A:00 X:4F Y:00 P:27 SP:F6 CYC:168 SL:66
15:25:18: E130  8D 06 20  STA $2006 = 00                 A:10 X:4F Y:00 P:25 SP:F6 CYC:174 SL:66
15:25:18: E133  8D 06 20  STA $2006 = 00                 A:10 X:4F Y:00 P:25 SP:F6 CYC:186 SL:66
15:25:18: E136  A9 00     LDA #$00                       A:10 X:4F Y:00 P:25 SP:F6 CYC:198 SL:66
15:25:18: E138  8D 06 20  STA $2006 = 00                 A:00 X:4F Y:00 P:27 SP:F6 CYC:204 SL:66
15:25:18: E13B  8D 06 20  STA $2006 = 00                 A:00 X:4F Y:00 P:27 SP:F6 CYC:216 SL:66
15:25:18: E13E  68        PLA                            A:00 X:4F Y:00 P:27 SP:F6 CYC:228 SL:66
15:25:18: E13F  60        RTS                            A:7B X:4F Y:00 P:25 SP:F7 CYC:240 SL:66
15:25:18: E121  CA        DEX                            A:7B X:4F Y:00 P:25 SP:F9 CYC:258 SL:66
15:25:18: E122  D0 FA     BNE $E11E                      A:7B X:4E Y:00 P:25 SP:F9 CYC:264 SL:66
15:25:18: E11E  20 25 E1  JSR $E125                      A:7B X:4E Y:00 P:25 SP:F9 CYC:273 SL:66
15:25:18: E125  48        PHA                            A:7B X:4E Y:00 P:25 SP:F7 CYC:291 SL:66
15:25:18: E126  A9 00     LDA #$00                       A:7B X:4E Y:00 P:25 SP:F6 CYC:300 SL:66
15:25:18: E128  8D 06 20  STA $2006 = 00                 A:00 X:4E Y:00 P:27 SP:F6 CYC:306 SL:66
15:25:18: E12B  8D 06 20  STA $2006 = 00                 A:00 X:4E Y:00 P:27 SP:F6 CYC:318 SL:66
15:25:18: E12E  A9 10     LDA #$10                       A:00 X:4E Y:00 P:27 SP:F6 CYC:330 SL:66
15:25:18: E130  8D 06 20  STA $2006 = 00                 A:10 X:4E Y:00 P:25 SP:F6 CYC:336 SL:66
15:25:18: E133  8D 06 20  STA $2006 = 00                 A:10 X:4E Y:00 P:25 SP:F6 CYC:  7 SL:67
15:25:18: E136  A9 00     LDA #$00                       A:10 X:4E Y:00 P:25 SP:F6 CYC: 19 SL:67
15:25:18: E138  8D 06 20  STA $2006 = 00                 A:00 X:4E Y:00 P:27 SP:F6 CYC: 25 SL:67
15:25:18: E13B  8D 06 20  STA $2006 = 00                 A:00 X:4E Y:00 P:27 SP:F6 CYC: 37 SL:67
15:25:18: E13E  68        PLA                            A:00 X:4E Y:00 P:27 SP:F6 CYC: 49 SL:67
15:25:18: E13F  60        RTS                            A:7B X:4E Y:00 P:25 SP:F7 CYC: 61 SL:67
15:25:18: E121  CA        DEX                            A:7B X:4E Y:00 P:25 SP:F9 CYC: 79 SL:67
15:25:18: E122  D0 FA     BNE $E11E                      A:7B X:4D Y:00 P:25 SP:F9 CYC: 85 SL:67
15:25:18: E11E  20 25 E1  JSR $E125                      A:7B X:4D Y:00 P:25 SP:F9 CYC: 94 SL:67
15:25:18: E125  48        PHA                            A:7B X:4D Y:00 P:25 SP:F7 CYC:112 SL:67
15:25:18: E126  A9 00     LDA #$00                       A:7B X:4D Y:00 P:25 SP:F6 CYC:121 SL:67
15:25:18: E128  8D 06 20  STA $2006 = 00                 A:00 X:4D Y:00 P:27 SP:F6 CYC:127 SL:67
15:25:18: E12B  8D 06 20  STA $2006 = 00                 A:00 X:4D Y:00 P:27 SP:F6 CYC:139 SL:67
15:25:18: E12E  A9 10     LDA #$10                       A:00 X:4D Y:00 P:27 SP:F6 CYC:151 SL:67
15:25:18: E130  8D 06 20  STA $2006 = 00                 A:10 X:4D Y:00 P:25 SP:F6 CYC:157 SL:67
15:25:18: E133  8D 06 20  STA $2006 = 00                 A:10 X:4D Y:00 P:25 SP:F6 CYC:169 SL:67
15:25:18: E136  A9 00     LDA #$00                       A:10 X:4D Y:00 P:25 SP:F6 CYC:181 SL:67
15:25:18: E138  8D 06 20  STA $2006 = 00                 A:00 X:4D Y:00 P:27 SP:F6 CYC:187 SL:67
15:25:18: E13B  8D 06 20  STA $2006 = 00                 A:00 X:4D Y:00 P:27 SP:F6 CYC:199 SL:67
15:25:18: E13E  68        PLA                            A:00 X:4D Y:00 P:27 SP:F6 CYC:211 SL:67
15:25:18: E13F  60        RTS                            A:7B X:4D Y:00 P:25 SP:F7 CYC:223 SL:67
15:25:18: E121  CA        DEX                            A:7B X:4D Y:00 P:25 SP:F9 CYC:241 SL:67
15:25:18: E122  D0 FA     BNE $E11E                      A:7B X:4C Y:00 P:25 SP:F9 CYC:247 SL:67
15:25:18: E11E  20 25 E1  JSR $E125                      A:7B X:4C Y:00 P:25 SP:F9 CYC:256 SL:67
15:25:18: E125  48        PHA                            A:7B X:4C Y:00 P:25 SP:F7 CYC:274 SL:67
15:25:18: E126  A9 00     LDA #$00                       A:7B X:4C Y:00 P:25 SP:F6 CYC:283 SL:67
15:25:18: E128  8D 06 20  STA $2006 = 00                 A:00 X:4C Y:00 P:27 SP:F6 CYC:289 SL:67
15:25:18: E12B  8D 06 20  STA $2006 = 00                 A:00 X:4C Y:00 P:27 SP:F6 CYC:301 SL:67
15:25:18: E12E  A9 10     LDA #$10                       A:00 X:4C Y:00 P:27 SP:F6 CYC:313 SL:67
15:25:18: E130  8D 06 20  STA $2006 = 00                 A:10 X:4C Y:00 P:25 SP:F6 CYC:319 SL:67
15:25:18: E133  8D 06 20  STA $2006 = 00                 A:10 X:4C Y:00 P:25 SP:F6 CYC:331 SL:67
15:25:18: E136  A9 00     LDA #$00                       A:10 X:4C Y:00 P:25 SP:F6 CYC:  2 SL:68
15:25:18: E138  8D 06 20  STA $2006 = 00                 A:00 X:4C Y:00 P:27 SP:F6 CYC:  8 SL:68
15:25:18: E13B  8D 06 20  STA $2006 = 00                 A:00 X:4C Y:00 P:27 SP:F6 CYC: 20 SL:68
15:25:18: E13E  68        PLA                            A:00 X:4C Y:00 P:27 SP:F6 CYC: 32 SL:68
15:25:18: E13F  60        RTS                            A:7B X:4C Y:00 P:25 SP:F7 CYC: 44 SL:68
15:25:18: E121  CA        DEX                            A:7B X:4C Y:00 P:25 SP:F9 CYC: 62 SL:68
15:25:18: E122  D0 FA     BNE $E11E                      A:7B X:4B Y:00 P:25 SP:F9 CYC: 68 SL:68
15:25:18: E11E  20 25 E1  JSR $E125                      A:7B X:4B Y:00 P:25 SP:F9 CYC: 77 SL:68
15:25:18: E125  48        PHA                            A:7B X:4B Y:00 P:25 SP:F7 CYC: 95 SL:68
15:25:18: E126  A9 00     LDA #$00                       A:7B X:4B Y:00 P:25 SP:F6 CYC:104 SL:68
15:25:18: E128  8D 06 20  STA $2006 = 00                 A:00 X:4B Y:00 P:27 SP:F6 CYC:110 SL:68
15:25:18: E12B  8D 06 20  STA $2006 = 00                 A:00 X:4B Y:00 P:27 SP:F6 CYC:122 SL:68
15:25:18: E12E  A9 10     LDA #$10                       A:00 X:4B Y:00 P:27 SP:F6 CYC:134 SL:68
15:25:18: E130  8D 06 20  STA $2006 = 00                 A:10 X:4B Y:00 P:25 SP:F6 CYC:140 SL:68
15:25:18: E133  8D 06 20  STA $2006 = 00                 A:10 X:4B Y:00 P:25 SP:F6 CYC:152 SL:68
15:25:18: E136  A9 00     LDA #$00                       A:10 X:4B Y:00 P:25 SP:F6 CYC:164 SL:68
15:25:18: E138  8D 06 20  STA $2006 = 00                 A:00 X:4B Y:00 P:27 SP:F6 CYC:170 SL:68
15:25:18: E13B  8D 06 20  STA $2006 = 00                 A:00 X:4B Y:00 P:27 SP:F6 CYC:182 SL:68
15:25:18: E13E  68        PLA                            A:00 X:4B Y:00 P:27 SP:F6 CYC:194 SL:68
15:25:18: E13F  60        RTS                            A:7B X:4B Y:00 P:25 SP:F7 CYC:206 SL:68
15:25:18: E121  CA        DEX                            A:7B X:4B Y:00 P:25 SP:F9 CYC:224 SL:68
15:25:18: E122  D0 FA     BNE $E11E                      A:7B X:4A Y:00 P:25 SP:F9 CYC:230 SL:68
15:25:18: E11E  20 25 E1  JSR $E125                      A:7B X:4A Y:00 P:25 SP:F9 CYC:239 SL:68
15:25:18: E125  48        PHA                            A:7B X:4A Y:00 P:25 SP:F7 CYC:257 SL:68
15:25:18: E126  A9 00     LDA #$00                       A:7B X:4A Y:00 P:25 SP:F6 CYC:266 SL:68
15:25:18: E128  8D 06 20  STA $2006 = 00                 A:00 X:4A Y:00 P:27 SP:F6 CYC:272 SL:68
15:25:18: E12B  8D 06 20  STA $2006 = 00                 A:00 X:4A Y:00 P:27 SP:F6 CYC:284 SL:68
15:25:18: E12E  A9 10     LDA #$10                       A:00 X:4A Y:00 P:27 SP:F6 CYC:296 SL:68
15:25:18: E130  8D 06 20  STA $2006 = 00                 A:10 X:4A Y:00 P:25 SP:F6 CYC:302 SL:68
15:25:18: E133  8D 06 20  STA $2006 = 00                 A:10 X:4A Y:00 P:25 SP:F6 CYC:314 SL:68
15:25:18: E136  A9 00     LDA #$00                       A:10 X:4A Y:00 P:25 SP:F6 CYC:326 SL:68
15:25:18: E138  8D 06 20  STA $2006 = 00                 A:00 X:4A Y:00 P:27 SP:F6 CYC:332 SL:68
15:25:18: E13B  8D 06 20  STA $2006 = 00                 A:00 X:4A Y:00 P:27 SP:F6 CYC:  3 SL:69
15:25:18: E13E  68        PLA                            A:00 X:4A Y:00 P:27 SP:F6 CYC: 15 SL:69
15:25:18: E13F  60        RTS                            A:7B X:4A Y:00 P:25 SP:F7 CYC: 27 SL:69
15:25:18: E121  CA        DEX                            A:7B X:4A Y:00 P:25 SP:F9 CYC: 45 SL:69
15:25:18: E122  D0 FA     BNE $E11E                      A:7B X:49 Y:00 P:25 SP:F9 CYC: 51 SL:69
15:25:18: E11E  20 25 E1  JSR $E125                      A:7B X:49 Y:00 P:25 SP:F9 CYC: 60 SL:69
15:25:18: E125  48        PHA                            A:7B X:49 Y:00 P:25 SP:F7 CYC: 78 SL:69
15:25:18: E126  A9 00     LDA #$00                       A:7B X:49 Y:00 P:25 SP:F6 CYC: 87 SL:69
15:25:18: E128  8D 06 20  STA $2006 = 00                 A:00 X:49 Y:00 P:27 SP:F6 CYC: 93 SL:69
15:25:18: E12B  8D 06 20  STA $2006 = 00                 A:00 X:49 Y:00 P:27 SP:F6 CYC:105 SL:69
15:25:18: E12E  A9 10     LDA #$10                       A:00 X:49 Y:00 P:27 SP:F6 CYC:117 SL:69
15:25:18: E130  8D 06 20  STA $2006 = 00                 A:10 X:49 Y:00 P:25 SP:F6 CYC:123 SL:69
15:25:18: E133  8D 06 20  STA $2006 = 00                 A:10 X:49 Y:00 P:25 SP:F6 CYC:135 SL:69
15:25:18: E136  A9 00     LDA #$00                       A:10 X:49 Y:00 P:25 SP:F6 CYC:147 SL:69
15:25:18: E138  8D 06 20  STA $2006 = 00                 A:00 X:49 Y:00 P:27 SP:F6 CYC:153 SL:69
15:25:18: E13B  8D 06 20  STA $2006 = 00                 A:00 X:49 Y:00 P:27 SP:F6 CYC:165 SL:69
15:25:18: E13E  68        PLA                            A:00 X:49 Y:00 P:27 SP:F6 CYC:177 SL:69
15:25:18: E13F  60        RTS                            A:7B X:49 Y:00 P:25 SP:F7 CYC:189 SL:69
15:25:18: E121  CA        DEX                            A:7B X:49 Y:00 P:25 SP:F9 CYC:207 SL:69
15:25:18: E122  D0 FA     BNE $E11E                      A:7B X:48 Y:00 P:25 SP:F9 CYC:213 SL:69
15:25:18: E11E  20 25 E1  JSR $E125                      A:7B X:48 Y:00 P:25 SP:F9 CYC:222 SL:69
15:25:18: E125  48        PHA                            A:7B X:48 Y:00 P:25 SP:F7 CYC:240 SL:69
15:25:18: E126  A9 00     LDA #$00                       A:7B X:48 Y:00 P:25 SP:F6 CYC:249 SL:69
15:25:18: E128  8D 06 20  STA $2006 = 00                 A:00 X:48 Y:00 P:27 SP:F6 CYC:255 SL:69
15:25:18: E12B  8D 06 20  STA $2006 = 00                 A:00 X:48 Y:00 P:27 SP:F6 CYC:267 SL:69
15:25:18: E12E  A9 10     LDA #$10                       A:00 X:48 Y:00 P:27 SP:F6 CYC:279 SL:69
15:25:18: E130  8D 06 20  STA $2006 = 00                 A:10 X:48 Y:00 P:25 SP:F6 CYC:285 SL:69
15:25:18: E133  8D 06 20  STA $2006 = 00                 A:10 X:48 Y:00 P:25 SP:F6 CYC:297 SL:69
15:25:18: E136  A9 00     LDA #$00                       A:10 X:48 Y:00 P:25 SP:F6 CYC:309 SL:69
15:25:18: E138  8D 06 20  STA $2006 = 00                 A:00 X:48 Y:00 P:27 SP:F6 CYC:315 SL:69
15:25:18: E13B  8D 06 20  STA $2006 = 00                 A:00 X:48 Y:00 P:27 SP:F6 CYC:327 SL:69
15:25:18: E13E  68        PLA                            A:00 X:48 Y:00 P:27 SP:F6 CYC:339 SL:69
15:25:18: E13F  60        RTS                            A:7B X:48 Y:00 P:25 SP:F7 CYC: 10 SL:70
15:25:18: E121  CA        DEX                            A:7B X:48 Y:00 P:25 SP:F9 CYC: 28 SL:70
15:25:18: E122  D0 FA     BNE $E11E                      A:7B X:47 Y:00 P:25 SP:F9 CYC: 34 SL:70
15:25:18: E11E  20 25 E1  JSR $E125                      A:7B X:47 Y:00 P:25 SP:F9 CYC: 43 SL:70
15:25:18: E125  48        PHA                            A:7B X:47 Y:00 P:25 SP:F7 CYC: 61 SL:70
15:25:18: E126  A9 00     LDA #$00                       A:7B X:47 Y:00 P:25 SP:F6 CYC: 70 SL:70
15:25:18: E128  8D 06 20  STA $2006 = 00                 A:00 X:47 Y:00 P:27 SP:F6 CYC: 76 SL:70
15:25:18: E12B  8D 06 20  STA $2006 = 00                 A:00 X:47 Y:00 P:27 SP:F6 CYC: 88 SL:70
15:25:18: E12E  A9 10     LDA #$10                       A:00 X:47 Y:00 P:27 SP:F6 CYC:100 SL:70
15:25:18: E130  8D 06 20  STA $2006 = 00                 A:10 X:47 Y:00 P:25 SP:F6 CYC:106 SL:70
15:25:18: E133  8D 06 20  STA $2006 = 00                 A:10 X:47 Y:00 P:25 SP:F6 CYC:118 SL:70
15:25:18: E136  A9 00     LDA #$00                       A:10 X:47 Y:00 P:25 SP:F6 CYC:130 SL:70
15:25:18: E138  8D 06 20  STA $2006 = 00                 A:00 X:47 Y:00 P:27 SP:F6 CYC:136 SL:70
15:25:18: E13B  8D 06 20  STA $2006 = 00                 A:00 X:47 Y:00 P:27 SP:F6 CYC:148 SL:70
15:25:18: E13E  68        PLA                            A:00 X:47 Y:00 P:27 SP:F6 CYC:160 SL:70
15:25:18: E13F  60        RTS                            A:7B X:47 Y:00 P:25 SP:F7 CYC:172 SL:70
15:25:18: E121  CA        DEX                            A:7B X:47 Y:00 P:25 SP:F9 CYC:190 SL:70
15:25:18: E122  D0 FA     BNE $E11E                      A:7B X:46 Y:00 P:25 SP:F9 CYC:196 SL:70
15:25:18: E11E  20 25 E1  JSR $E125                      A:7B X:46 Y:00 P:25 SP:F9 CYC:205 SL:70
15:25:18: E125  48        PHA                            A:7B X:46 Y:00 P:25 SP:F7 CYC:223 SL:70
15:25:18: E126  A9 00     LDA #$00                       A:7B X:46 Y:00 P:25 SP:F6 CYC:232 SL:70
15:25:18: E128  8D 06 20  STA $2006 = 00                 A:00 X:46 Y:00 P:27 SP:F6 CYC:238 SL:70
15:25:18: E12B  8D 06 20  STA $2006 = 00                 A:00 X:46 Y:00 P:27 SP:F6 CYC:250 SL:70
15:25:18: E12E  A9 10     LDA #$10                       A:00 X:46 Y:00 P:27 SP:F6 CYC:262 SL:70
15:25:18: E130  8D 06 20  STA $2006 = 00                 A:10 X:46 Y:00 P:25 SP:F6 CYC:268 SL:70
15:25:18: E133  8D 06 20  STA $2006 = 00                 A:10 X:46 Y:00 P:25 SP:F6 CYC:280 SL:70
15:25:18: E136  A9 00     LDA #$00                       A:10 X:46 Y:00 P:25 SP:F6 CYC:292 SL:70
15:25:18: E138  8D 06 20  STA $2006 = 00                 A:00 X:46 Y:00 P:27 SP:F6 CYC:298 SL:70
15:25:18: E13B  8D 06 20  STA $2006 = 00                 A:00 X:46 Y:00 P:27 SP:F6 CYC:310 SL:70
15:25:18: E13E  68        PLA                            A:00 X:46 Y:00 P:27 SP:F6 CYC:322 SL:70
15:25:18: E13F  60        RTS                            A:7B X:46 Y:00 P:25 SP:F7 CYC:334 SL:70
15:25:18: E121  CA        DEX                            A:7B X:46 Y:00 P:25 SP:F9 CYC: 11 SL:71
15:25:18: E122  D0 FA     BNE $E11E                      A:7B X:45 Y:00 P:25 SP:F9 CYC: 17 SL:71
15:25:18: E11E  20 25 E1  JSR $E125                      A:7B X:45 Y:00 P:25 SP:F9 CYC: 26 SL:71
15:25:18: E125  48        PHA                            A:7B X:45 Y:00 P:25 SP:F7 CYC: 44 SL:71
15:25:18: E126  A9 00     LDA #$00                       A:7B X:45 Y:00 P:25 SP:F6 CYC: 53 SL:71
15:25:18: E128  8D 06 20  STA $2006 = 00                 A:00 X:45 Y:00 P:27 SP:F6 CYC: 59 SL:71
15:25:18: E12B  8D 06 20  STA $2006 = 00                 A:00 X:45 Y:00 P:27 SP:F6 CYC: 71 SL:71
15:25:18: E12E  A9 10     LDA #$10                       A:00 X:45 Y:00 P:27 SP:F6 CYC: 83 SL:71
15:25:18: E130  8D 06 20  STA $2006 = 00                 A:10 X:45 Y:00 P:25 SP:F6 CYC: 89 SL:71
15:25:18: E133  8D 06 20  STA $2006 = 00                 A:10 X:45 Y:00 P:25 SP:F6 CYC:101 SL:71
15:25:18: E136  A9 00     LDA #$00                       A:10 X:45 Y:00 P:25 SP:F6 CYC:113 SL:71
15:25:18: E138  8D 06 20  STA $2006 = 00                 A:00 X:45 Y:00 P:27 SP:F6 CYC:119 SL:71
15:25:18: E13B  8D 06 20  STA $2006 = 00                 A:00 X:45 Y:00 P:27 SP:F6 CYC:131 SL:71
15:25:18: E13E  68        PLA                            A:00 X:45 Y:00 P:27 SP:F6 CYC:143 SL:71
15:25:18: E13F  60        RTS                            A:7B X:45 Y:00 P:25 SP:F7 CYC:155 SL:71
15:25:18: E121  CA        DEX                            A:7B X:45 Y:00 P:25 SP:F9 CYC:173 SL:71
15:25:18: E122  D0 FA     BNE $E11E                      A:7B X:44 Y:00 P:25 SP:F9 CYC:179 SL:71
15:25:18: E11E  20 25 E1  JSR $E125                      A:7B X:44 Y:00 P:25 SP:F9 CYC:188 SL:71
15:25:18: E125  48        PHA                            A:7B X:44 Y:00 P:25 SP:F7 CYC:206 SL:71
15:25:18: E126  A9 00     LDA #$00                       A:7B X:44 Y:00 P:25 SP:F6 CYC:215 SL:71
15:25:18: E128  8D 06 20  STA $2006 = 00                 A:00 X:44 Y:00 P:27 SP:F6 CYC:221 SL:71
15:25:18: E12B  8D 06 20  STA $2006 = 00                 A:00 X:44 Y:00 P:27 SP:F6 CYC:233 SL:71
15:25:18: E12E  A9 10     LDA #$10                       A:00 X:44 Y:00 P:27 SP:F6 CYC:245 SL:71
15:25:18: E130  8D 06 20  STA $2006 = 00                 A:10 X:44 Y:00 P:25 SP:F6 CYC:251 SL:71
15:25:18: E133  8D 06 20  STA $2006 = 00                 A:10 X:44 Y:00 P:25 SP:F6 CYC:263 SL:71
15:25:18: E136  A9 00     LDA #$00                       A:10 X:44 Y:00 P:25 SP:F6 CYC:275 SL:71
15:25:18: E138  8D 06 20  STA $2006 = 00                 A:00 X:44 Y:00 P:27 SP:F6 CYC:281 SL:71
15:25:18: E13B  8D 06 20  STA $2006 = 00                 A:00 X:44 Y:00 P:27 SP:F6 CYC:293 SL:71
15:25:18: E13E  68        PLA                            A:00 X:44 Y:00 P:27 SP:F6 CYC:305 SL:71
15:25:18: E13F  60        RTS                            A:7B X:44 Y:00 P:25 SP:F7 CYC:317 SL:71
15:25:18: E121  CA        DEX                            A:7B X:44 Y:00 P:25 SP:F9 CYC:335 SL:71
15:25:18: E122  D0 FA     BNE $E11E                      A:7B X:43 Y:00 P:25 SP:F9 CYC:  0 SL:72
15:25:18: E11E  20 25 E1  JSR $E125                      A:7B X:43 Y:00 P:25 SP:F9 CYC:  9 SL:72
15:25:18: E125  48        PHA                            A:7B X:43 Y:00 P:25 SP:F7 CYC: 27 SL:72
15:25:18: E126  A9 00     LDA #$00                       A:7B X:43 Y:00 P:25 SP:F6 CYC: 36 SL:72
15:25:18: E128  8D 06 20  STA $2006 = 00                 A:00 X:43 Y:00 P:27 SP:F6 CYC: 42 SL:72
15:25:18: E12B  8D 06 20  STA $2006 = 00                 A:00 X:43 Y:00 P:27 SP:F6 CYC: 54 SL:72
15:25:18: E12E  A9 10     LDA #$10                       A:00 X:43 Y:00 P:27 SP:F6 CYC: 66 SL:72
15:25:18: E130  8D 06 20  STA $2006 = 00                 A:10 X:43 Y:00 P:25 SP:F6 CYC: 72 SL:72
15:25:18: E133  8D 06 20  STA $2006 = 00                 A:10 X:43 Y:00 P:25 SP:F6 CYC: 84 SL:72
15:25:18: E136  A9 00     LDA #$00                       A:10 X:43 Y:00 P:25 SP:F6 CYC: 96 SL:72
15:25:18: E138  8D 06 20  STA $2006 = 00                 A:00 X:43 Y:00 P:27 SP:F6 CYC:102 SL:72
15:25:18: E13B  8D 06 20  STA $2006 = 00                 A:00 X:43 Y:00 P:27 SP:F6 CYC:114 SL:72
15:25:18: E13E  68        PLA                            A:00 X:43 Y:00 P:27 SP:F6 CYC:126 SL:72
15:25:18: E13F  60        RTS                            A:7B X:43 Y:00 P:25 SP:F7 CYC:138 SL:72
15:25:18: E121  CA        DEX                            A:7B X:43 Y:00 P:25 SP:F9 CYC:156 SL:72
15:25:18: E122  D0 FA     BNE $E11E                      A:7B X:42 Y:00 P:25 SP:F9 CYC:162 SL:72
15:25:18: E11E  20 25 E1  JSR $E125                      A:7B X:42 Y:00 P:25 SP:F9 CYC:171 SL:72
15:25:18: E125  48        PHA                            A:7B X:42 Y:00 P:25 SP:F7 CYC:189 SL:72
15:25:18: E126  A9 00     LDA #$00                       A:7B X:42 Y:00 P:25 SP:F6 CYC:198 SL:72
15:25:18: E128  8D 06 20  STA $2006 = 00                 A:00 X:42 Y:00 P:27 SP:F6 CYC:204 SL:72
15:25:18: E12B  8D 06 20  STA $2006 = 00                 A:00 X:42 Y:00 P:27 SP:F6 CYC:216 SL:72
15:25:18: E12E  A9 10     LDA #$10                       A:00 X:42 Y:00 P:27 SP:F6 CYC:228 SL:72
15:25:18: E130  8D 06 20  STA $2006 = 00                 A:10 X:42 Y:00 P:25 SP:F6 CYC:234 SL:72
15:25:18: E133  8D 06 20  STA $2006 = 00                 A:10 X:42 Y:00 P:25 SP:F6 CYC:246 SL:72
15:25:18: E136  A9 00     LDA #$00                       A:10 X:42 Y:00 P:25 SP:F6 CYC:258 SL:72
15:25:18: E138  8D 06 20  STA $2006 = 00                 A:00 X:42 Y:00 P:27 SP:F6 CYC:264 SL:72
15:25:18: E13B  8D 06 20  STA $2006 = 00                 A:00 X:42 Y:00 P:27 SP:F6 CYC:276 SL:72
15:25:18: E13E  68        PLA                            A:00 X:42 Y:00 P:27 SP:F6 CYC:288 SL:72
15:25:18: E13F  60        RTS                            A:7B X:42 Y:00 P:25 SP:F7 CYC:300 SL:72
15:25:18: E121  CA        DEX                            A:7B X:42 Y:00 P:25 SP:F9 CYC:318 SL:72
15:25:18: E122  D0 FA     BNE $E11E                      A:7B X:41 Y:00 P:25 SP:F9 CYC:324 SL:72
15:25:18: E11E  20 25 E1  JSR $E125                      A:7B X:41 Y:00 P:25 SP:F9 CYC:333 SL:72
15:25:18: E125  48        PHA                            A:7B X:41 Y:00 P:25 SP:F7 CYC: 10 SL:73
15:25:18: E126  A9 00     LDA #$00                       A:7B X:41 Y:00 P:25 SP:F6 CYC: 19 SL:73
15:25:18: E128  8D 06 20  STA $2006 = 00                 A:00 X:41 Y:00 P:27 SP:F6 CYC: 25 SL:73
15:25:18: E12B  8D 06 20  STA $2006 = 00                 A:00 X:41 Y:00 P:27 SP:F6 CYC: 37 SL:73
15:25:18: E12E  A9 10     LDA #$10                       A:00 X:41 Y:00 P:27 SP:F6 CYC: 49 SL:73
15:25:18: E130  8D 06 20  STA $2006 = 00                 A:10 X:41 Y:00 P:25 SP:F6 CYC: 55 SL:73
15:25:18: E133  8D 06 20  STA $2006 = 00                 A:10 X:41 Y:00 P:25 SP:F6 CYC: 67 SL:73
15:25:18: E136  A9 00     LDA #$00                       A:10 X:41 Y:00 P:25 SP:F6 CYC: 79 SL:73
15:25:18: E138  8D 06 20  STA $2006 = 00                 A:00 X:41 Y:00 P:27 SP:F6 CYC: 85 SL:73
15:25:18: E13B  8D 06 20  STA $2006 = 00                 A:00 X:41 Y:00 P:27 SP:F6 CYC: 97 SL:73
15:25:18: E13E  68        PLA                            A:00 X:41 Y:00 P:27 SP:F6 CYC:109 SL:73
15:25:18: E13F  60        RTS                            A:7B X:41 Y:00 P:25 SP:F7 CYC:121 SL:73
15:25:18: E121  CA        DEX                            A:7B X:41 Y:00 P:25 SP:F9 CYC:139 SL:73
15:25:18: E122  D0 FA     BNE $E11E                      A:7B X:40 Y:00 P:25 SP:F9 CYC:145 SL:73
15:25:18: E11E  20 25 E1  JSR $E125                      A:7B X:40 Y:00 P:25 SP:F9 CYC:154 SL:73
15:25:18: E125  48        PHA                            A:7B X:40 Y:00 P:25 SP:F7 CYC:172 SL:73
15:25:18: E126  A9 00     LDA #$00                       A:7B X:40 Y:00 P:25 SP:F6 CYC:181 SL:73
15:25:18: E128  8D 06 20  STA $2006 = 00                 A:00 X:40 Y:00 P:27 SP:F6 CYC:187 SL:73
15:25:18: E12B  8D 06 20  STA $2006 = 00                 A:00 X:40 Y:00 P:27 SP:F6 CYC:199 SL:73
15:25:18: E12E  A9 10     LDA #$10                       A:00 X:40 Y:00 P:27 SP:F6 CYC:211 SL:73
15:25:18: E130  8D 06 20  STA $2006 = 00                 A:10 X:40 Y:00 P:25 SP:F6 CYC:217 SL:73
15:25:18: E133  8D 06 20  STA $2006 = 00                 A:10 X:40 Y:00 P:25 SP:F6 CYC:229 SL:73
15:25:18: E136  A9 00     LDA #$00                       A:10 X:40 Y:00 P:25 SP:F6 CYC:241 SL:73
15:25:18: E138  8D 06 20  STA $2006 = 00                 A:00 X:40 Y:00 P:27 SP:F6 CYC:247 SL:73
15:25:18: E13B  8D 06 20  STA $2006 = 00                 A:00 X:40 Y:00 P:27 SP:F6 CYC:259 SL:73
15:25:18: E13E  68        PLA                            A:00 X:40 Y:00 P:27 SP:F6 CYC:271 SL:73
15:25:18: E13F  60        RTS                            A:7B X:40 Y:00 P:25 SP:F7 CYC:283 SL:73
15:25:18: E121  CA        DEX                            A:7B X:40 Y:00 P:25 SP:F9 CYC:301 SL:73
15:25:18: E122  D0 FA     BNE $E11E                      A:7B X:3F Y:00 P:25 SP:F9 CYC:307 SL:73
15:25:18: E11E  20 25 E1  JSR $E125                      A:7B X:3F Y:00 P:25 SP:F9 CYC:316 SL:73
15:25:18: E125  48        PHA                            A:7B X:3F Y:00 P:25 SP:F7 CYC:334 SL:73
15:25:18: E126  A9 00     LDA #$00                       A:7B X:3F Y:00 P:25 SP:F6 CYC:  2 SL:74
15:25:18: E128  8D 06 20  STA $2006 = 00                 A:00 X:3F Y:00 P:27 SP:F6 CYC:  8 SL:74
15:25:18: E12B  8D 06 20  STA $2006 = 00                 A:00 X:3F Y:00 P:27 SP:F6 CYC: 20 SL:74
15:25:18: E12E  A9 10     LDA #$10                       A:00 X:3F Y:00 P:27 SP:F6 CYC: 32 SL:74
15:25:18: E130  8D 06 20  STA $2006 = 00                 A:10 X:3F Y:00 P:25 SP:F6 CYC: 38 SL:74
15:25:18: E133  8D 06 20  STA $2006 = 00                 A:10 X:3F Y:00 P:25 SP:F6 CYC: 50 SL:74
15:25:18: E136  A9 00     LDA #$00                       A:10 X:3F Y:00 P:25 SP:F6 CYC: 62 SL:74
15:25:18: E138  8D 06 20  STA $2006 = 00                 A:00 X:3F Y:00 P:27 SP:F6 CYC: 68 SL:74
15:25:18: E13B  8D 06 20  STA $2006 = 00                 A:00 X:3F Y:00 P:27 SP:F6 CYC: 80 SL:74
15:25:18: E13E  68        PLA                            A:00 X:3F Y:00 P:27 SP:F6 CYC: 92 SL:74
15:25:18: E13F  60        RTS                            A:7B X:3F Y:00 P:25 SP:F7 CYC:104 SL:74
15:25:18: E121  CA        DEX                            A:7B X:3F Y:00 P:25 SP:F9 CYC:122 SL:74
15:25:18: E122  D0 FA     BNE $E11E                      A:7B X:3E Y:00 P:25 SP:F9 CYC:128 SL:74
15:25:18: E11E  20 25 E1  JSR $E125                      A:7B X:3E Y:00 P:25 SP:F9 CYC:137 SL:74
15:25:18: E125  48        PHA                            A:7B X:3E Y:00 P:25 SP:F7 CYC:155 SL:74
15:25:18: E126  A9 00     LDA #$00                       A:7B X:3E Y:00 P:25 SP:F6 CYC:164 SL:74
15:25:18: E128  8D 06 20  STA $2006 = 00                 A:00 X:3E Y:00 P:27 SP:F6 CYC:170 SL:74
15:25:18: E12B  8D 06 20  STA $2006 = 00                 A:00 X:3E Y:00 P:27 SP:F6 CYC:182 SL:74
15:25:18: E12E  A9 10     LDA #$10                       A:00 X:3E Y:00 P:27 SP:F6 CYC:194 SL:74
15:25:18: E130  8D 06 20  STA $2006 = 00                 A:10 X:3E Y:00 P:25 SP:F6 CYC:200 SL:74
15:25:18: E133  8D 06 20  STA $2006 = 00                 A:10 X:3E Y:00 P:25 SP:F6 CYC:212 SL:74
15:25:18: E136  A9 00     LDA #$00                       A:10 X:3E Y:00 P:25 SP:F6 CYC:224 SL:74
15:25:18: E138  8D 06 20  STA $2006 = 00                 A:00 X:3E Y:00 P:27 SP:F6 CYC:230 SL:74
15:25:18: E13B  8D 06 20  STA $2006 = 00                 A:00 X:3E Y:00 P:27 SP:F6 CYC:242 SL:74
15:25:18: E13E  68        PLA                            A:00 X:3E Y:00 P:27 SP:F6 CYC:254 SL:74
15:25:18: E13F  60        RTS                            A:7B X:3E Y:00 P:25 SP:F7 CYC:266 SL:74
15:25:18: E121  CA        DEX                            A:7B X:3E Y:00 P:25 SP:F9 CYC:284 SL:74
15:25:18: E122  D0 FA     BNE $E11E                      A:7B X:3D Y:00 P:25 SP:F9 CYC:290 SL:74
15:25:18: E11E  20 25 E1  JSR $E125                      A:7B X:3D Y:00 P:25 SP:F9 CYC:299 SL:74
15:25:18: E125  48        PHA                            A:7B X:3D Y:00 P:25 SP:F7 CYC:317 SL:74
15:25:18: E126  A9 00     LDA #$00                       A:7B X:3D Y:00 P:25 SP:F6 CYC:326 SL:74
15:25:18: E128  8D 06 20  STA $2006 = 00                 A:00 X:3D Y:00 P:27 SP:F6 CYC:332 SL:74
15:25:18: E12B  8D 06 20  STA $2006 = 00                 A:00 X:3D Y:00 P:27 SP:F6 CYC:  3 SL:75
15:25:18: E12E  A9 10     LDA #$10                       A:00 X:3D Y:00 P:27 SP:F6 CYC: 15 SL:75
15:25:18: E130  8D 06 20  STA $2006 = 00                 A:10 X:3D Y:00 P:25 SP:F6 CYC: 21 SL:75
15:25:18: E133  8D 06 20  STA $2006 = 00                 A:10 X:3D Y:00 P:25 SP:F6 CYC: 33 SL:75
15:25:18: E136  A9 00     LDA #$00                       A:10 X:3D Y:00 P:25 SP:F6 CYC: 45 SL:75
15:25:18: E138  8D 06 20  STA $2006 = 00                 A:00 X:3D Y:00 P:27 SP:F6 CYC: 51 SL:75
15:25:18: E13B  8D 06 20  STA $2006 = 00                 A:00 X:3D Y:00 P:27 SP:F6 CYC: 63 SL:75
15:25:18: E13E  68        PLA                            A:00 X:3D Y:00 P:27 SP:F6 CYC: 75 SL:75
15:25:18: E13F  60        RTS                            A:7B X:3D Y:00 P:25 SP:F7 CYC: 87 SL:75
15:25:18: E121  CA        DEX                            A:7B X:3D Y:00 P:25 SP:F9 CYC:105 SL:75
15:25:18: E122  D0 FA     BNE $E11E                      A:7B X:3C Y:00 P:25 SP:F9 CYC:111 SL:75
15:25:18: E11E  20 25 E1  JSR $E125                      A:7B X:3C Y:00 P:25 SP:F9 CYC:120 SL:75
15:25:18: E125  48        PHA                            A:7B X:3C Y:00 P:25 SP:F7 CYC:138 SL:75
15:25:18: E126  A9 00     LDA #$00                       A:7B X:3C Y:00 P:25 SP:F6 CYC:147 SL:75
15:25:18: E128  8D 06 20  STA $2006 = 00                 A:00 X:3C Y:00 P:27 SP:F6 CYC:153 SL:75
15:25:18: E12B  8D 06 20  STA $2006 = 00                 A:00 X:3C Y:00 P:27 SP:F6 CYC:165 SL:75
15:25:18: E12E  A9 10     LDA #$10                       A:00 X:3C Y:00 P:27 SP:F6 CYC:177 SL:75
15:25:18: E130  8D 06 20  STA $2006 = 00                 A:10 X:3C Y:00 P:25 SP:F6 CYC:183 SL:75
15:25:18: E133  8D 06 20  STA $2006 = 00                 A:10 X:3C Y:00 P:25 SP:F6 CYC:195 SL:75
15:25:18: E136  A9 00     LDA #$00                       A:10 X:3C Y:00 P:25 SP:F6 CYC:207 SL:75
15:25:18: E138  8D 06 20  STA $2006 = 00                 A:00 X:3C Y:00 P:27 SP:F6 CYC:213 SL:75
15:25:18: E13B  8D 06 20  STA $2006 = 00                 A:00 X:3C Y:00 P:27 SP:F6 CYC:225 SL:75
15:25:18: E13E  68        PLA                            A:00 X:3C Y:00 P:27 SP:F6 CYC:237 SL:75
15:25:18: E13F  60        RTS                            A:7B X:3C Y:00 P:25 SP:F7 CYC:249 SL:75
15:25:18: E121  CA        DEX                            A:7B X:3C Y:00 P:25 SP:F9 CYC:267 SL:75
15:25:18: E122  D0 FA     BNE $E11E                      A:7B X:3B Y:00 P:25 SP:F9 CYC:273 SL:75
15:25:18: E11E  20 25 E1  JSR $E125                      A:7B X:3B Y:00 P:25 SP:F9 CYC:282 SL:75
15:25:18: E125  48        PHA                            A:7B X:3B Y:00 P:25 SP:F7 CYC:300 SL:75
15:25:18: E126  A9 00     LDA #$00                       A:7B X:3B Y:00 P:25 SP:F6 CYC:309 SL:75
15:25:18: E128  8D 06 20  STA $2006 = 00                 A:00 X:3B Y:00 P:27 SP:F6 CYC:315 SL:75
15:25:18: E12B  8D 06 20  STA $2006 = 00                 A:00 X:3B Y:00 P:27 SP:F6 CYC:327 SL:75
15:25:18: E12E  A9 10     LDA #$10                       A:00 X:3B Y:00 P:27 SP:F6 CYC:339 SL:75
15:25:18: E130  8D 06 20  STA $2006 = 00                 A:10 X:3B Y:00 P:25 SP:F6 CYC:  4 SL:76
15:25:18: E133  8D 06 20  STA $2006 = 00                 A:10 X:3B Y:00 P:25 SP:F6 CYC: 16 SL:76
15:25:18: E136  A9 00     LDA #$00                       A:10 X:3B Y:00 P:25 SP:F6 CYC: 28 SL:76
15:25:18: E138  8D 06 20  STA $2006 = 00                 A:00 X:3B Y:00 P:27 SP:F6 CYC: 34 SL:76
15:25:18: E13B  8D 06 20  STA $2006 = 00                 A:00 X:3B Y:00 P:27 SP:F6 CYC: 46 SL:76
15:25:18: E13E  68        PLA                            A:00 X:3B Y:00 P:27 SP:F6 CYC: 58 SL:76
15:25:18: E13F  60        RTS                            A:7B X:3B Y:00 P:25 SP:F7 CYC: 70 SL:76
15:25:18: E121  CA        DEX                            A:7B X:3B Y:00 P:25 SP:F9 CYC: 88 SL:76
15:25:18: E122  D0 FA     BNE $E11E                      A:7B X:3A Y:00 P:25 SP:F9 CYC: 94 SL:76
15:25:18: E11E  20 25 E1  JSR $E125                      A:7B X:3A Y:00 P:25 SP:F9 CYC:103 SL:76
15:25:18: E125  48        PHA                            A:7B X:3A Y:00 P:25 SP:F7 CYC:121 SL:76
15:25:18: E126  A9 00     LDA #$00                       A:7B X:3A Y:00 P:25 SP:F6 CYC:130 SL:76
15:25:18: E128  8D 06 20  STA $2006 = 00                 A:00 X:3A Y:00 P:27 SP:F6 CYC:136 SL:76
15:25:18: E12B  8D 06 20  STA $2006 = 00                 A:00 X:3A Y:00 P:27 SP:F6 CYC:148 SL:76
15:25:18: E12E  A9 10     LDA #$10                       A:00 X:3A Y:00 P:27 SP:F6 CYC:160 SL:76
15:25:18: E130  8D 06 20  STA $2006 = 00                 A:10 X:3A Y:00 P:25 SP:F6 CYC:166 SL:76
15:25:18: E133  8D 06 20  STA $2006 = 00                 A:10 X:3A Y:00 P:25 SP:F6 CYC:178 SL:76
15:25:18: E136  A9 00     LDA #$00                       A:10 X:3A Y:00 P:25 SP:F6 CYC:190 SL:76
15:25:18: E138  8D 06 20  STA $2006 = 00                 A:00 X:3A Y:00 P:27 SP:F6 CYC:196 SL:76
15:25:18: E13B  8D 06 20  STA $2006 = 00                 A:00 X:3A Y:00 P:27 SP:F6 CYC:208 SL:76
15:25:18: E13E  68        PLA                            A:00 X:3A Y:00 P:27 SP:F6 CYC:220 SL:76
15:25:18: E13F  60        RTS                            A:7B X:3A Y:00 P:25 SP:F7 CYC:232 SL:76
15:25:18: E121  CA        DEX                            A:7B X:3A Y:00 P:25 SP:F9 CYC:250 SL:76
15:25:18: E122  D0 FA     BNE $E11E                      A:7B X:39 Y:00 P:25 SP:F9 CYC:256 SL:76
15:25:18: E11E  20 25 E1  JSR $E125                      A:7B X:39 Y:00 P:25 SP:F9 CYC:265 SL:76
15:25:18: E125  48        PHA                            A:7B X:39 Y:00 P:25 SP:F7 CYC:283 SL:76
15:25:18: E126  A9 00     LDA #$00                       A:7B X:39 Y:00 P:25 SP:F6 CYC:292 SL:76
15:25:18: E128  8D 06 20  STA $2006 = 00                 A:00 X:39 Y:00 P:27 SP:F6 CYC:298 SL:76
15:25:18: E12B  8D 06 20  STA $2006 = 00                 A:00 X:39 Y:00 P:27 SP:F6 CYC:310 SL:76
15:25:18: E12E  A9 10     LDA #$10                       A:00 X:39 Y:00 P:27 SP:F6 CYC:322 SL:76
15:25:18: E130  8D 06 20  STA $2006 = 00                 A:10 X:39 Y:00 P:25 SP:F6 CYC:328 SL:76
15:25:18: E133  8D 06 20  STA $2006 = 00                 A:10 X:39 Y:00 P:25 SP:F6 CYC:340 SL:76
15:25:18: E136  A9 00     LDA #$00                       A:10 X:39 Y:00 P:25 SP:F6 CYC: 11 SL:77
15:25:18: E138  8D 06 20  STA $2006 = 00                 A:00 X:39 Y:00 P:27 SP:F6 CYC: 17 SL:77
15:25:18: E13B  8D 06 20  STA $2006 = 00                 A:00 X:39 Y:00 P:27 SP:F6 CYC: 29 SL:77
15:25:18: E13E  68        PLA                            A:00 X:39 Y:00 P:27 SP:F6 CYC: 41 SL:77
15:25:18: E13F  60        RTS                            A:7B X:39 Y:00 P:25 SP:F7 CYC: 53 SL:77
15:25:18: E121  CA        DEX                            A:7B X:39 Y:00 P:25 SP:F9 CYC: 71 SL:77
15:25:18: E122  D0 FA     BNE $E11E                      A:7B X:38 Y:00 P:25 SP:F9 CYC: 77 SL:77
15:25:18: E11E  20 25 E1  JSR $E125                      A:7B X:38 Y:00 P:25 SP:F9 CYC: 86 SL:77
15:25:18: E125  48        PHA                            A:7B X:38 Y:00 P:25 SP:F7 CYC:104 SL:77
15:25:18: E126  A9 00     LDA #$00                       A:7B X:38 Y:00 P:25 SP:F6 CYC:113 SL:77
15:25:18: E128  8D 06 20  STA $2006 = 00                 A:00 X:38 Y:00 P:27 SP:F6 CYC:119 SL:77
15:25:18: E12B  8D 06 20  STA $2006 = 00                 A:00 X:38 Y:00 P:27 SP:F6 CYC:131 SL:77
15:25:18: E12E  A9 10     LDA #$10                       A:00 X:38 Y:00 P:27 SP:F6 CYC:143 SL:77
15:25:18: E130  8D 06 20  STA $2006 = 00                 A:10 X:38 Y:00 P:25 SP:F6 CYC:149 SL:77
15:25:18: E133  8D 06 20  STA $2006 = 00                 A:10 X:38 Y:00 P:25 SP:F6 CYC:161 SL:77
15:25:18: E136  A9 00     LDA #$00                       A:10 X:38 Y:00 P:25 SP:F6 CYC:173 SL:77
15:25:18: E138  8D 06 20  STA $2006 = 00                 A:00 X:38 Y:00 P:27 SP:F6 CYC:179 SL:77
15:25:18: E13B  8D 06 20  STA $2006 = 00                 A:00 X:38 Y:00 P:27 SP:F6 CYC:191 SL:77
15:25:18: E13E  68        PLA                            A:00 X:38 Y:00 P:27 SP:F6 CYC:203 SL:77
15:25:18: E13F  60        RTS                            A:7B X:38 Y:00 P:25 SP:F7 CYC:215 SL:77
15:25:18: E121  CA        DEX                            A:7B X:38 Y:00 P:25 SP:F9 CYC:233 SL:77
15:25:18: E122  D0 FA     BNE $E11E                      A:7B X:37 Y:00 P:25 SP:F9 CYC:239 SL:77
15:25:18: E11E  20 25 E1  JSR $E125                      A:7B X:37 Y:00 P:25 SP:F9 CYC:248 SL:77
15:25:18: E125  48        PHA                            A:7B X:37 Y:00 P:25 SP:F7 CYC:266 SL:77
15:25:18: E126  A9 00     LDA #$00                       A:7B X:37 Y:00 P:25 SP:F6 CYC:275 SL:77
15:25:18: E128  8D 06 20  STA $2006 = 00                 A:00 X:37 Y:00 P:27 SP:F6 CYC:281 SL:77
15:25:18: E12B  8D 06 20  STA $2006 = 00                 A:00 X:37 Y:00 P:27 SP:F6 CYC:293 SL:77
15:25:18: E12E  A9 10     LDA #$10                       A:00 X:37 Y:00 P:27 SP:F6 CYC:305 SL:77
15:25:18: E130  8D 06 20  STA $2006 = 00                 A:10 X:37 Y:00 P:25 SP:F6 CYC:311 SL:77
15:25:18: E133  8D 06 20  STA $2006 = 00                 A:10 X:37 Y:00 P:25 SP:F6 CYC:323 SL:77
15:25:18: E136  A9 00     LDA #$00                       A:10 X:37 Y:00 P:25 SP:F6 CYC:335 SL:77
15:25:18: E138  8D 06 20  STA $2006 = 00                 A:00 X:37 Y:00 P:27 SP:F6 CYC:  0 SL:78
15:25:18: E13B  8D 06 20  STA $2006 = 00                 A:00 X:37 Y:00 P:27 SP:F6 CYC: 12 SL:78
15:25:18: E13E  68        PLA                            A:00 X:37 Y:00 P:27 SP:F6 CYC: 24 SL:78
15:25:18: E13F  60        RTS                            A:7B X:37 Y:00 P:25 SP:F7 CYC: 36 SL:78
15:25:18: E121  CA        DEX                            A:7B X:37 Y:00 P:25 SP:F9 CYC: 54 SL:78
15:25:18: E122  D0 FA     BNE $E11E                      A:7B X:36 Y:00 P:25 SP:F9 CYC: 60 SL:78
15:25:18: E11E  20 25 E1  JSR $E125                      A:7B X:36 Y:00 P:25 SP:F9 CYC: 69 SL:78
15:25:18: E125  48        PHA                            A:7B X:36 Y:00 P:25 SP:F7 CYC: 87 SL:78
15:25:18: E126  A9 00     LDA #$00                       A:7B X:36 Y:00 P:25 SP:F6 CYC: 96 SL:78
15:25:18: E128  8D 06 20  STA $2006 = 00                 A:00 X:36 Y:00 P:27 SP:F6 CYC:102 SL:78
15:25:18: E12B  8D 06 20  STA $2006 = 00                 A:00 X:36 Y:00 P:27 SP:F6 CYC:114 SL:78
15:25:18: E12E  A9 10     LDA #$10                       A:00 X:36 Y:00 P:27 SP:F6 CYC:126 SL:78
15:25:18: E130  8D 06 20  STA $2006 = 00                 A:10 X:36 Y:00 P:25 SP:F6 CYC:132 SL:78
15:25:18: E133  8D 06 20  STA $2006 = 00                 A:10 X:36 Y:00 P:25 SP:F6 CYC:144 SL:78
15:25:18: E136  A9 00     LDA #$00                       A:10 X:36 Y:00 P:25 SP:F6 CYC:156 SL:78
15:25:18: E138  8D 06 20  STA $2006 = 00                 A:00 X:36 Y:00 P:27 SP:F6 CYC:162 SL:78
15:25:18: E13B  8D 06 20  STA $2006 = 00                 A:00 X:36 Y:00 P:27 SP:F6 CYC:174 SL:78
15:25:18: E13E  68        PLA                            A:00 X:36 Y:00 P:27 SP:F6 CYC:186 SL:78
15:25:18: E13F  60        RTS                            A:7B X:36 Y:00 P:25 SP:F7 CYC:198 SL:78
15:25:18: E121  CA        DEX                            A:7B X:36 Y:00 P:25 SP:F9 CYC:216 SL:78
15:25:18: E122  D0 FA     BNE $E11E                      A:7B X:35 Y:00 P:25 SP:F9 CYC:222 SL:78
15:25:18: E11E  20 25 E1  JSR $E125                      A:7B X:35 Y:00 P:25 SP:F9 CYC:231 SL:78
15:25:18: E125  48        PHA                            A:7B X:35 Y:00 P:25 SP:F7 CYC:249 SL:78
15:25:18: E126  A9 00     LDA #$00                       A:7B X:35 Y:00 P:25 SP:F6 CYC:258 SL:78
15:25:18: E128  8D 06 20  STA $2006 = 00                 A:00 X:35 Y:00 P:27 SP:F6 CYC:264 SL:78
15:25:18: E12B  8D 06 20  STA $2006 = 00                 A:00 X:35 Y:00 P:27 SP:F6 CYC:276 SL:78
15:25:18: E12E  A9 10     LDA #$10                       A:00 X:35 Y:00 P:27 SP:F6 CYC:288 SL:78
15:25:18: E130  8D 06 20  STA $2006 = 00                 A:10 X:35 Y:00 P:25 SP:F6 CYC:294 SL:78
15:25:18: E133  8D 06 20  STA $2006 = 00                 A:10 X:35 Y:00 P:25 SP:F6 CYC:306 SL:78
15:25:18: E136  A9 00     LDA #$00                       A:10 X:35 Y:00 P:25 SP:F6 CYC:318 SL:78
15:25:18: E138  8D 06 20  STA $2006 = 00                 A:00 X:35 Y:00 P:27 SP:F6 CYC:324 SL:78
15:25:18: E13B  8D 06 20  STA $2006 = 00                 A:00 X:35 Y:00 P:27 SP:F6 CYC:336 SL:78
15:25:18: E13E  68        PLA                            A:00 X:35 Y:00 P:27 SP:F6 CYC:  7 SL:79
15:25:18: E13F  60        RTS                            A:7B X:35 Y:00 P:25 SP:F7 CYC: 19 SL:79
15:25:18: E121  CA        DEX                            A:7B X:35 Y:00 P:25 SP:F9 CYC: 37 SL:79
15:25:18: E122  D0 FA     BNE $E11E                      A:7B X:34 Y:00 P:25 SP:F9 CYC: 43 SL:79
15:25:18: E11E  20 25 E1  JSR $E125                      A:7B X:34 Y:00 P:25 SP:F9 CYC: 52 SL:79
15:25:18: E125  48        PHA                            A:7B X:34 Y:00 P:25 SP:F7 CYC: 70 SL:79
15:25:18: E126  A9 00     LDA #$00                       A:7B X:34 Y:00 P:25 SP:F6 CYC: 79 SL:79
15:25:18: E128  8D 06 20  STA $2006 = 00                 A:00 X:34 Y:00 P:27 SP:F6 CYC: 85 SL:79
15:25:18: E12B  8D 06 20  STA $2006 = 00                 A:00 X:34 Y:00 P:27 SP:F6 CYC: 97 SL:79
15:25:18: E12E  A9 10     LDA #$10                       A:00 X:34 Y:00 P:27 SP:F6 CYC:109 SL:79
15:25:18: E130  8D 06 20  STA $2006 = 00                 A:10 X:34 Y:00 P:25 SP:F6 CYC:115 SL:79
15:25:18: E133  8D 06 20  STA $2006 = 00                 A:10 X:34 Y:00 P:25 SP:F6 CYC:127 SL:79
15:25:18: E136  A9 00     LDA #$00                       A:10 X:34 Y:00 P:25 SP:F6 CYC:139 SL:79
15:25:18: E138  8D 06 20  STA $2006 = 00                 A:00 X:34 Y:00 P:27 SP:F6 CYC:145 SL:79
15:25:18: E13B  8D 06 20  STA $2006 = 00                 A:00 X:34 Y:00 P:27 SP:F6 CYC:157 SL:79
15:25:18: E13E  68        PLA                            A:00 X:34 Y:00 P:27 SP:F6 CYC:169 SL:79
15:25:18: E13F  60        RTS                            A:7B X:34 Y:00 P:25 SP:F7 CYC:181 SL:79
15:25:18: E121  CA        DEX                            A:7B X:34 Y:00 P:25 SP:F9 CYC:199 SL:79
15:25:18: E122  D0 FA     BNE $E11E                      A:7B X:33 Y:00 P:25 SP:F9 CYC:205 SL:79
15:25:18: E11E  20 25 E1  JSR $E125                      A:7B X:33 Y:00 P:25 SP:F9 CYC:214 SL:79
15:25:18: E125  48        PHA                            A:7B X:33 Y:00 P:25 SP:F7 CYC:232 SL:79
15:25:18: E126  A9 00     LDA #$00                       A:7B X:33 Y:00 P:25 SP:F6 CYC:241 SL:79
15:25:18: E128  8D 06 20  STA $2006 = 00                 A:00 X:33 Y:00 P:27 SP:F6 CYC:247 SL:79
15:25:18: E12B  8D 06 20  STA $2006 = 00                 A:00 X:33 Y:00 P:27 SP:F6 CYC:259 SL:79
15:25:18: E12E  A9 10     LDA #$10                       A:00 X:33 Y:00 P:27 SP:F6 CYC:271 SL:79
15:25:18: E130  8D 06 20  STA $2006 = 00                 A:10 X:33 Y:00 P:25 SP:F6 CYC:277 SL:79
15:25:18: E133  8D 06 20  STA $2006 = 00                 A:10 X:33 Y:00 P:25 SP:F6 CYC:289 SL:79
15:25:18: E136  A9 00     LDA #$00                       A:10 X:33 Y:00 P:25 SP:F6 CYC:301 SL:79
15:25:18: E138  8D 06 20  STA $2006 = 00                 A:00 X:33 Y:00 P:27 SP:F6 CYC:307 SL:79
15:25:18: E13B  8D 06 20  STA $2006 = 00                 A:00 X:33 Y:00 P:27 SP:F6 CYC:319 SL:79
15:25:18: E13E  68        PLA                            A:00 X:33 Y:00 P:27 SP:F6 CYC:331 SL:79
15:25:18: E13F  60        RTS                            A:7B X:33 Y:00 P:25 SP:F7 CYC:  2 SL:80
15:25:18: E121  CA        DEX                            A:7B X:33 Y:00 P:25 SP:F9 CYC: 20 SL:80
15:25:18: E122  D0 FA     BNE $E11E                      A:7B X:32 Y:00 P:25 SP:F9 CYC: 26 SL:80
15:25:18: E11E  20 25 E1  JSR $E125                      A:7B X:32 Y:00 P:25 SP:F9 CYC: 35 SL:80
15:25:18: E125  48        PHA                            A:7B X:32 Y:00 P:25 SP:F7 CYC: 53 SL:80
15:25:18: E126  A9 00     LDA #$00                       A:7B X:32 Y:00 P:25 SP:F6 CYC: 62 SL:80
15:25:18: E128  8D 06 20  STA $2006 = 00                 A:00 X:32 Y:00 P:27 SP:F6 CYC: 68 SL:80
15:25:18: E12B  8D 06 20  STA $2006 = 00                 A:00 X:32 Y:00 P:27 SP:F6 CYC: 80 SL:80
15:25:18: E12E  A9 10     LDA #$10                       A:00 X:32 Y:00 P:27 SP:F6 CYC: 92 SL:80
15:25:18: E130  8D 06 20  STA $2006 = 00                 A:10 X:32 Y:00 P:25 SP:F6 CYC: 98 SL:80
15:25:18: E133  8D 06 20  STA $2006 = 00                 A:10 X:32 Y:00 P:25 SP:F6 CYC:110 SL:80
15:25:18: E136  A9 00     LDA #$00                       A:10 X:32 Y:00 P:25 SP:F6 CYC:122 SL:80
15:25:18: E138  8D 06 20  STA $2006 = 00                 A:00 X:32 Y:00 P:27 SP:F6 CYC:128 SL:80
15:25:18: E13B  8D 06 20  STA $2006 = 00                 A:00 X:32 Y:00 P:27 SP:F6 CYC:140 SL:80
15:25:18: E13E  68        PLA                            A:00 X:32 Y:00 P:27 SP:F6 CYC:152 SL:80
15:25:18: E13F  60        RTS                            A:7B X:32 Y:00 P:25 SP:F7 CYC:164 SL:80
15:25:18: E121  CA        DEX                            A:7B X:32 Y:00 P:25 SP:F9 CYC:182 SL:80
15:25:18: E122  D0 FA     BNE $E11E                      A:7B X:31 Y:00 P:25 SP:F9 CYC:188 SL:80
15:25:18: E11E  20 25 E1  JSR $E125                      A:7B X:31 Y:00 P:25 SP:F9 CYC:197 SL:80
15:25:18: E125  48        PHA                            A:7B X:31 Y:00 P:25 SP:F7 CYC:215 SL:80
15:25:18: E126  A9 00     LDA #$00                       A:7B X:31 Y:00 P:25 SP:F6 CYC:224 SL:80
15:25:18: E128  8D 06 20  STA $2006 = 00                 A:00 X:31 Y:00 P:27 SP:F6 CYC:230 SL:80
15:25:18: E12B  8D 06 20  STA $2006 = 00                 A:00 X:31 Y:00 P:27 SP:F6 CYC:242 SL:80
15:25:18: E12E  A9 10     LDA #$10                       A:00 X:31 Y:00 P:27 SP:F6 CYC:254 SL:80
15:25:18: E130  8D 06 20  STA $2006 = 00                 A:10 X:31 Y:00 P:25 SP:F6 CYC:260 SL:80
15:25:18: E133  8D 06 20  STA $2006 = 00                 A:10 X:31 Y:00 P:25 SP:F6 CYC:272 SL:80
15:25:18: E136  A9 00     LDA #$00                       A:10 X:31 Y:00 P:25 SP:F6 CYC:284 SL:80
15:25:18: E138  8D 06 20  STA $2006 = 00                 A:00 X:31 Y:00 P:27 SP:F6 CYC:290 SL:80
15:25:18: E13B  8D 06 20  STA $2006 = 00                 A:00 X:31 Y:00 P:27 SP:F6 CYC:302 SL:80
15:25:18: E13E  68        PLA                            A:00 X:31 Y:00 P:27 SP:F6 CYC:314 SL:80
15:25:18: E13F  60        RTS                            A:7B X:31 Y:00 P:25 SP:F7 CYC:326 SL:80
15:25:18: E121  CA        DEX                            A:7B X:31 Y:00 P:25 SP:F9 CYC:  3 SL:81
15:25:18: E122  D0 FA     BNE $E11E                      A:7B X:30 Y:00 P:25 SP:F9 CYC:  9 SL:81
15:25:18: E11E  20 25 E1  JSR $E125                      A:7B X:30 Y:00 P:25 SP:F9 CYC: 18 SL:81
15:25:18: E125  48        PHA                            A:7B X:30 Y:00 P:25 SP:F7 CYC: 36 SL:81
15:25:18: E126  A9 00     LDA #$00                       A:7B X:30 Y:00 P:25 SP:F6 CYC: 45 SL:81
15:25:18: E128  8D 06 20  STA $2006 = 00                 A:00 X:30 Y:00 P:27 SP:F6 CYC: 51 SL:81
15:25:18: E12B  8D 06 20  STA $2006 = 00                 A:00 X:30 Y:00 P:27 SP:F6 CYC: 63 SL:81
15:25:18: E12E  A9 10     LDA #$10                       A:00 X:30 Y:00 P:27 SP:F6 CYC: 75 SL:81
15:25:18: E130  8D 06 20  STA $2006 = 00                 A:10 X:30 Y:00 P:25 SP:F6 CYC: 81 SL:81
15:25:18: E133  8D 06 20  STA $2006 = 00                 A:10 X:30 Y:00 P:25 SP:F6 CYC: 93 SL:81
15:25:18: E136  A9 00     LDA #$00                       A:10 X:30 Y:00 P:25 SP:F6 CYC:105 SL:81
15:25:18: E138  8D 06 20  STA $2006 = 00                 A:00 X:30 Y:00 P:27 SP:F6 CYC:111 SL:81
15:25:18: E13B  8D 06 20  STA $2006 = 00                 A:00 X:30 Y:00 P:27 SP:F6 CYC:123 SL:81
15:25:18: E13E  68        PLA                            A:00 X:30 Y:00 P:27 SP:F6 CYC:135 SL:81
15:25:18: E13F  60        RTS                            A:7B X:30 Y:00 P:25 SP:F7 CYC:147 SL:81
15:25:18: E121  CA        DEX                            A:7B X:30 Y:00 P:25 SP:F9 CYC:165 SL:81
15:25:18: E122  D0 FA     BNE $E11E                      A:7B X:2F Y:00 P:25 SP:F9 CYC:171 SL:81
15:25:18: E11E  20 25 E1  JSR $E125                      A:7B X:2F Y:00 P:25 SP:F9 CYC:180 SL:81
15:25:18: E125  48        PHA                            A:7B X:2F Y:00 P:25 SP:F7 CYC:198 SL:81
15:25:18: E126  A9 00     LDA #$00                       A:7B X:2F Y:00 P:25 SP:F6 CYC:207 SL:81
15:25:18: E128  8D 06 20  STA $2006 = 00                 A:00 X:2F Y:00 P:27 SP:F6 CYC:213 SL:81
15:25:18: E12B  8D 06 20  STA $2006 = 00                 A:00 X:2F Y:00 P:27 SP:F6 CYC:225 SL:81
15:25:18: E12E  A9 10     LDA #$10                       A:00 X:2F Y:00 P:27 SP:F6 CYC:237 SL:81
15:25:18: E130  8D 06 20  STA $2006 = 00                 A:10 X:2F Y:00 P:25 SP:F6 CYC:243 SL:81
15:25:18: E133  8D 06 20  STA $2006 = 00                 A:10 X:2F Y:00 P:25 SP:F6 CYC:255 SL:81
15:25:18: E136  A9 00     LDA #$00                       A:10 X:2F Y:00 P:25 SP:F6 CYC:267 SL:81
15:25:18: E138  8D 06 20  STA $2006 = 00                 A:00 X:2F Y:00 P:27 SP:F6 CYC:273 SL:81
15:25:18: E13B  8D 06 20  STA $2006 = 00                 A:00 X:2F Y:00 P:27 SP:F6 CYC:285 SL:81
15:25:18: E13E  68        PLA                            A:00 X:2F Y:00 P:27 SP:F6 CYC:297 SL:81
15:25:18: E13F  60        RTS                            A:7B X:2F Y:00 P:25 SP:F7 CYC:309 SL:81
15:25:18: E121  CA        DEX                            A:7B X:2F Y:00 P:25 SP:F9 CYC:327 SL:81
15:25:18: E122  D0 FA     BNE $E11E                      A:7B X:2E Y:00 P:25 SP:F9 CYC:333 SL:81
15:25:18: E11E  20 25 E1  JSR $E125                      A:7B X:2E Y:00 P:25 SP:F9 CYC:  1 SL:82
15:25:18: E125  48        PHA                            A:7B X:2E Y:00 P:25 SP:F7 CYC: 19 SL:82
15:25:18: E126  A9 00     LDA #$00                       A:7B X:2E Y:00 P:25 SP:F6 CYC: 28 SL:82
15:25:18: E128  8D 06 20  STA $2006 = 00                 A:00 X:2E Y:00 P:27 SP:F6 CYC: 34 SL:82
15:25:18: E12B  8D 06 20  STA $2006 = 00                 A:00 X:2E Y:00 P:27 SP:F6 CYC: 46 SL:82
15:25:18: E12E  A9 10     LDA #$10                       A:00 X:2E Y:00 P:27 SP:F6 CYC: 58 SL:82
15:25:18: E130  8D 06 20  STA $2006 = 00                 A:10 X:2E Y:00 P:25 SP:F6 CYC: 64 SL:82
15:25:18: E133  8D 06 20  STA $2006 = 00                 A:10 X:2E Y:00 P:25 SP:F6 CYC: 76 SL:82
15:25:18: E136  A9 00     LDA #$00                       A:10 X:2E Y:00 P:25 SP:F6 CYC: 88 SL:82
15:25:18: E138  8D 06 20  STA $2006 = 00                 A:00 X:2E Y:00 P:27 SP:F6 CYC: 94 SL:82
15:25:18: E13B  8D 06 20  STA $2006 = 00                 A:00 X:2E Y:00 P:27 SP:F6 CYC:106 SL:82
15:25:18: E13E  68        PLA                            A:00 X:2E Y:00 P:27 SP:F6 CYC:118 SL:82
15:25:18: E13F  60        RTS                            A:7B X:2E Y:00 P:25 SP:F7 CYC:130 SL:82
15:25:18: E121  CA        DEX                            A:7B X:2E Y:00 P:25 SP:F9 CYC:148 SL:82
15:25:18: E122  D0 FA     BNE $E11E                      A:7B X:2D Y:00 P:25 SP:F9 CYC:154 SL:82
15:25:18: E11E  20 25 E1  JSR $E125                      A:7B X:2D Y:00 P:25 SP:F9 CYC:163 SL:82
15:25:18: E125  48        PHA                            A:7B X:2D Y:00 P:25 SP:F7 CYC:181 SL:82
15:25:18: E126  A9 00     LDA #$00                       A:7B X:2D Y:00 P:25 SP:F6 CYC:190 SL:82
15:25:18: E128  8D 06 20  STA $2006 = 00                 A:00 X:2D Y:00 P:27 SP:F6 CYC:196 SL:82
15:25:18: E12B  8D 06 20  STA $2006 = 00                 A:00 X:2D Y:00 P:27 SP:F6 CYC:208 SL:82
15:25:18: E12E  A9 10     LDA #$10                       A:00 X:2D Y:00 P:27 SP:F6 CYC:220 SL:82
15:25:18: E130  8D 06 20  STA $2006 = 00                 A:10 X:2D Y:00 P:25 SP:F6 CYC:226 SL:82
15:25:18: E133  8D 06 20  STA $2006 = 00                 A:10 X:2D Y:00 P:25 SP:F6 CYC:238 SL:82
15:25:18: E136  A9 00     LDA #$00                       A:10 X:2D Y:00 P:25 SP:F6 CYC:250 SL:82
15:25:18: E138  8D 06 20  STA $2006 = 00                 A:00 X:2D Y:00 P:27 SP:F6 CYC:256 SL:82
15:25:18: E13B  8D 06 20  STA $2006 = 00                 A:00 X:2D Y:00 P:27 SP:F6 CYC:268 SL:82
15:25:18: E13E  68        PLA                            A:00 X:2D Y:00 P:27 SP:F6 CYC:280 SL:82
15:25:18: E13F  60        RTS                            A:7B X:2D Y:00 P:25 SP:F7 CYC:292 SL:82
15:25:18: E121  CA        DEX                            A:7B X:2D Y:00 P:25 SP:F9 CYC:310 SL:82
15:25:18: E122  D0 FA     BNE $E11E                      A:7B X:2C Y:00 P:25 SP:F9 CYC:316 SL:82
15:25:18: E11E  20 25 E1  JSR $E125                      A:7B X:2C Y:00 P:25 SP:F9 CYC:325 SL:82
15:25:18: E125  48        PHA                            A:7B X:2C Y:00 P:25 SP:F7 CYC:  2 SL:83
15:25:18: E126  A9 00     LDA #$00                       A:7B X:2C Y:00 P:25 SP:F6 CYC: 11 SL:83
15:25:18: E128  8D 06 20  STA $2006 = 00                 A:00 X:2C Y:00 P:27 SP:F6 CYC: 17 SL:83
15:25:18: E12B  8D 06 20  STA $2006 = 00                 A:00 X:2C Y:00 P:27 SP:F6 CYC: 29 SL:83
15:25:18: E12E  A9 10     LDA #$10                       A:00 X:2C Y:00 P:27 SP:F6 CYC: 41 SL:83
15:25:18: E130  8D 06 20  STA $2006 = 00                 A:10 X:2C Y:00 P:25 SP:F6 CYC: 47 SL:83
15:25:18: E133  8D 06 20  STA $2006 = 00                 A:10 X:2C Y:00 P:25 SP:F6 CYC: 59 SL:83
15:25:18: E136  A9 00     LDA #$00                       A:10 X:2C Y:00 P:25 SP:F6 CYC: 71 SL:83
15:25:18: E138  8D 06 20  STA $2006 = 00                 A:00 X:2C Y:00 P:27 SP:F6 CYC: 77 SL:83
15:25:18: E13B  8D 06 20  STA $2006 = 00                 A:00 X:2C Y:00 P:27 SP:F6 CYC: 89 SL:83
15:25:18: E13E  68        PLA                            A:00 X:2C Y:00 P:27 SP:F6 CYC:101 SL:83
15:25:18: E13F  60        RTS                            A:7B X:2C Y:00 P:25 SP:F7 CYC:113 SL:83
15:25:18: E121  CA        DEX                            A:7B X:2C Y:00 P:25 SP:F9 CYC:131 SL:83
15:25:18: E122  D0 FA     BNE $E11E                      A:7B X:2B Y:00 P:25 SP:F9 CYC:137 SL:83
15:25:18: E11E  20 25 E1  JSR $E125                      A:7B X:2B Y:00 P:25 SP:F9 CYC:146 SL:83
15:25:18: E125  48        PHA                            A:7B X:2B Y:00 P:25 SP:F7 CYC:164 SL:83
15:25:19: E126  A9 00     LDA #$00                       A:7B X:2B Y:00 P:25 SP:F6 CYC:173 SL:83
15:25:19: E128  8D 06 20  STA $2006 = 00                 A:00 X:2B Y:00 P:27 SP:F6 CYC:179 SL:83
15:25:19: E12B  8D 06 20  STA $2006 = 00                 A:00 X:2B Y:00 P:27 SP:F6 CYC:191 SL:83
15:25:19: E12E  A9 10     LDA #$10                       A:00 X:2B Y:00 P:27 SP:F6 CYC:203 SL:83
15:25:19: E130  8D 06 20  STA $2006 = 00                 A:10 X:2B Y:00 P:25 SP:F6 CYC:209 SL:83
15:25:19: E133  8D 06 20  STA $2006 = 00                 A:10 X:2B Y:00 P:25 SP:F6 CYC:221 SL:83
15:25:19: E136  A9 00     LDA #$00                       A:10 X:2B Y:00 P:25 SP:F6 CYC:233 SL:83
15:25:19: E138  8D 06 20  STA $2006 = 00                 A:00 X:2B Y:00 P:27 SP:F6 CYC:239 SL:83
15:25:19: E13B  8D 06 20  STA $2006 = 00                 A:00 X:2B Y:00 P:27 SP:F6 CYC:251 SL:83
15:25:19: E13E  68        PLA                            A:00 X:2B Y:00 P:27 SP:F6 CYC:263 SL:83
15:25:19: E13F  60        RTS                            A:7B X:2B Y:00 P:25 SP:F7 CYC:275 SL:83
15:25:19: E121  CA        DEX                            A:7B X:2B Y:00 P:25 SP:F9 CYC:293 SL:83
15:25:19: E122  D0 FA     BNE $E11E                      A:7B X:2A Y:00 P:25 SP:F9 CYC:299 SL:83
15:25:19: E11E  20 25 E1  JSR $E125                      A:7B X:2A Y:00 P:25 SP:F9 CYC:308 SL:83
15:25:19: E125  48        PHA                            A:7B X:2A Y:00 P:25 SP:F7 CYC:326 SL:83
15:25:19: E126  A9 00     LDA #$00                       A:7B X:2A Y:00 P:25 SP:F6 CYC:335 SL:83
15:25:19: E128  8D 06 20  STA $2006 = 00                 A:00 X:2A Y:00 P:27 SP:F6 CYC:  0 SL:84
15:25:19: E12B  8D 06 20  STA $2006 = 00                 A:00 X:2A Y:00 P:27 SP:F6 CYC: 12 SL:84
15:25:19: E12E  A9 10     LDA #$10                       A:00 X:2A Y:00 P:27 SP:F6 CYC: 24 SL:84
15:25:19: E130  8D 06 20  STA $2006 = 00                 A:10 X:2A Y:00 P:25 SP:F6 CYC: 30 SL:84
15:25:19: E133  8D 06 20  STA $2006 = 00                 A:10 X:2A Y:00 P:25 SP:F6 CYC: 42 SL:84
15:25:19: E136  A9 00     LDA #$00                       A:10 X:2A Y:00 P:25 SP:F6 CYC: 54 SL:84
15:25:19: E138  8D 06 20  STA $2006 = 00                 A:00 X:2A Y:00 P:27 SP:F6 CYC: 60 SL:84
15:25:19: E13B  8D 06 20  STA $2006 = 00                 A:00 X:2A Y:00 P:27 SP:F6 CYC: 72 SL:84
15:25:19: E13E  68        PLA                            A:00 X:2A Y:00 P:27 SP:F6 CYC: 84 SL:84
15:25:19: E13F  60        RTS                            A:7B X:2A Y:00 P:25 SP:F7 CYC: 96 SL:84
15:25:19: E121  CA        DEX                            A:7B X:2A Y:00 P:25 SP:F9 CYC:114 SL:84
15:25:19: E122  D0 FA     BNE $E11E                      A:7B X:29 Y:00 P:25 SP:F9 CYC:120 SL:84
15:25:19: E11E  20 25 E1  JSR $E125                      A:7B X:29 Y:00 P:25 SP:F9 CYC:129 SL:84
15:25:19: E125  48        PHA                            A:7B X:29 Y:00 P:25 SP:F7 CYC:147 SL:84
15:25:19: E126  A9 00     LDA #$00                       A:7B X:29 Y:00 P:25 SP:F6 CYC:156 SL:84
15:25:19: E128  8D 06 20  STA $2006 = 00                 A:00 X:29 Y:00 P:27 SP:F6 CYC:162 SL:84
15:25:19: E12B  8D 06 20  STA $2006 = 00                 A:00 X:29 Y:00 P:27 SP:F6 CYC:174 SL:84
15:25:19: E12E  A9 10     LDA #$10                       A:00 X:29 Y:00 P:27 SP:F6 CYC:186 SL:84
15:25:19: E130  8D 06 20  STA $2006 = 00                 A:10 X:29 Y:00 P:25 SP:F6 CYC:192 SL:84
15:25:19: E133  8D 06 20  STA $2006 = 00                 A:10 X:29 Y:00 P:25 SP:F6 CYC:204 SL:84
15:25:19: E136  A9 00     LDA #$00                       A:10 X:29 Y:00 P:25 SP:F6 CYC:216 SL:84
15:25:19: E138  8D 06 20  STA $2006 = 00                 A:00 X:29 Y:00 P:27 SP:F6 CYC:222 SL:84
15:25:19: E13B  8D 06 20  STA $2006 = 00                 A:00 X:29 Y:00 P:27 SP:F6 CYC:234 SL:84
15:25:19: E13E  68        PLA                            A:00 X:29 Y:00 P:27 SP:F6 CYC:246 SL:84
15:25:19: E13F  60        RTS                            A:7B X:29 Y:00 P:25 SP:F7 CYC:258 SL:84
15:25:19: E121  CA        DEX                            A:7B X:29 Y:00 P:25 SP:F9 CYC:276 SL:84
15:25:19: E122  D0 FA     BNE $E11E                      A:7B X:28 Y:00 P:25 SP:F9 CYC:282 SL:84
15:25:19: E11E  20 25 E1  JSR $E125                      A:7B X:28 Y:00 P:25 SP:F9 CYC:291 SL:84
15:25:19: E125  48        PHA                            A:7B X:28 Y:00 P:25 SP:F7 CYC:309 SL:84
15:25:19: E126  A9 00     LDA #$00                       A:7B X:28 Y:00 P:25 SP:F6 CYC:318 SL:84
15:25:19: E128  8D 06 20  STA $2006 = 00                 A:00 X:28 Y:00 P:27 SP:F6 CYC:324 SL:84
15:25:19: E12B  8D 06 20  STA $2006 = 00                 A:00 X:28 Y:00 P:27 SP:F6 CYC:336 SL:84
15:25:19: E12E  A9 10     LDA #$10                       A:00 X:28 Y:00 P:27 SP:F6 CYC:  7 SL:85
15:25:19: E130  8D 06 20  STA $2006 = 00                 A:10 X:28 Y:00 P:25 SP:F6 CYC: 13 SL:85
15:25:19: E133  8D 06 20  STA $2006 = 00                 A:10 X:28 Y:00 P:25 SP:F6 CYC: 25 SL:85
15:25:19: E136  A9 00     LDA #$00                       A:10 X:28 Y:00 P:25 SP:F6 CYC: 37 SL:85
15:25:19: E138  8D 06 20  STA $2006 = 00                 A:00 X:28 Y:00 P:27 SP:F6 CYC: 43 SL:85
15:25:19: E13B  8D 06 20  STA $2006 = 00                 A:00 X:28 Y:00 P:27 SP:F6 CYC: 55 SL:85
15:25:19: E13E  68        PLA                            A:00 X:28 Y:00 P:27 SP:F6 CYC: 67 SL:85
15:25:19: E13F  60        RTS                            A:7B X:28 Y:00 P:25 SP:F7 CYC: 79 SL:85
15:25:19: E121  CA        DEX                            A:7B X:28 Y:00 P:25 SP:F9 CYC: 97 SL:85
15:25:19: E122  D0 FA     BNE $E11E                      A:7B X:27 Y:00 P:25 SP:F9 CYC:103 SL:85
15:25:19: E11E  20 25 E1  JSR $E125                      A:7B X:27 Y:00 P:25 SP:F9 CYC:112 SL:85
15:25:19: E125  48        PHA                            A:7B X:27 Y:00 P:25 SP:F7 CYC:130 SL:85
15:25:19: E126  A9 00     LDA #$00                       A:7B X:27 Y:00 P:25 SP:F6 CYC:139 SL:85
15:25:19: E128  8D 06 20  STA $2006 = 00                 A:00 X:27 Y:00 P:27 SP:F6 CYC:145 SL:85
15:25:19: E12B  8D 06 20  STA $2006 = 00                 A:00 X:27 Y:00 P:27 SP:F6 CYC:157 SL:85
15:25:19: E12E  A9 10     LDA #$10                       A:00 X:27 Y:00 P:27 SP:F6 CYC:169 SL:85
15:25:19: E130  8D 06 20  STA $2006 = 00                 A:10 X:27 Y:00 P:25 SP:F6 CYC:175 SL:85
15:25:19: E133  8D 06 20  STA $2006 = 00                 A:10 X:27 Y:00 P:25 SP:F6 CYC:187 SL:85
15:25:19: E136  A9 00     LDA #$00                       A:10 X:27 Y:00 P:25 SP:F6 CYC:199 SL:85
15:25:19: E138  8D 06 20  STA $2006 = 00                 A:00 X:27 Y:00 P:27 SP:F6 CYC:205 SL:85
15:25:19: E13B  8D 06 20  STA $2006 = 00                 A:00 X:27 Y:00 P:27 SP:F6 CYC:217 SL:85
15:25:19: E13E  68        PLA                            A:00 X:27 Y:00 P:27 SP:F6 CYC:229 SL:85
15:25:19: E13F  60        RTS                            A:7B X:27 Y:00 P:25 SP:F7 CYC:241 SL:85
15:25:19: E121  CA        DEX                            A:7B X:27 Y:00 P:25 SP:F9 CYC:259 SL:85
15:25:19: E122  D0 FA     BNE $E11E                      A:7B X:26 Y:00 P:25 SP:F9 CYC:265 SL:85
15:25:19: E11E  20 25 E1  JSR $E125                      A:7B X:26 Y:00 P:25 SP:F9 CYC:274 SL:85
15:25:19: E125  48        PHA                            A:7B X:26 Y:00 P:25 SP:F7 CYC:292 SL:85
15:25:19: E126  A9 00     LDA #$00                       A:7B X:26 Y:00 P:25 SP:F6 CYC:301 SL:85
15:25:19: E128  8D 06 20  STA $2006 = 00                 A:00 X:26 Y:00 P:27 SP:F6 CYC:307 SL:85
15:25:19: E12B  8D 06 20  STA $2006 = 00                 A:00 X:26 Y:00 P:27 SP:F6 CYC:319 SL:85
15:25:19: E12E  A9 10     LDA #$10                       A:00 X:26 Y:00 P:27 SP:F6 CYC:331 SL:85
15:25:19: E130  8D 06 20  STA $2006 = 00                 A:10 X:26 Y:00 P:25 SP:F6 CYC:337 SL:85
15:25:19: E133  8D 06 20  STA $2006 = 00                 A:10 X:26 Y:00 P:25 SP:F6 CYC:  8 SL:86
15:25:19: E136  A9 00     LDA #$00                       A:10 X:26 Y:00 P:25 SP:F6 CYC: 20 SL:86
15:25:19: E138  8D 06 20  STA $2006 = 00                 A:00 X:26 Y:00 P:27 SP:F6 CYC: 26 SL:86
15:25:19: E13B  8D 06 20  STA $2006 = 00                 A:00 X:26 Y:00 P:27 SP:F6 CYC: 38 SL:86
15:25:19: E13E  68        PLA                            A:00 X:26 Y:00 P:27 SP:F6 CYC: 50 SL:86
15:25:19: E13F  60        RTS                            A:7B X:26 Y:00 P:25 SP:F7 CYC: 62 SL:86
15:25:19: E121  CA        DEX                            A:7B X:26 Y:00 P:25 SP:F9 CYC: 80 SL:86
15:25:19: E122  D0 FA     BNE $E11E                      A:7B X:25 Y:00 P:25 SP:F9 CYC: 86 SL:86
15:25:19: E11E  20 25 E1  JSR $E125                      A:7B X:25 Y:00 P:25 SP:F9 CYC: 95 SL:86
15:25:19: E125  48        PHA                            A:7B X:25 Y:00 P:25 SP:F7 CYC:113 SL:86
15:25:19: E126  A9 00     LDA #$00                       A:7B X:25 Y:00 P:25 SP:F6 CYC:122 SL:86
15:25:19: E128  8D 06 20  STA $2006 = 00                 A:00 X:25 Y:00 P:27 SP:F6 CYC:128 SL:86
15:25:19: E12B  8D 06 20  STA $2006 = 00                 A:00 X:25 Y:00 P:27 SP:F6 CYC:140 SL:86
15:25:19: E12E  A9 10     LDA #$10                       A:00 X:25 Y:00 P:27 SP:F6 CYC:152 SL:86
15:25:19: E130  8D 06 20  STA $2006 = 00                 A:10 X:25 Y:00 P:25 SP:F6 CYC:158 SL:86
15:25:19: E133  8D 06 20  STA $2006 = 00                 A:10 X:25 Y:00 P:25 SP:F6 CYC:170 SL:86
15:25:19: E136  A9 00     LDA #$00                       A:10 X:25 Y:00 P:25 SP:F6 CYC:182 SL:86
15:25:19: E138  8D 06 20  STA $2006 = 00                 A:00 X:25 Y:00 P:27 SP:F6 CYC:188 SL:86
15:25:19: E13B  8D 06 20  STA $2006 = 00                 A:00 X:25 Y:00 P:27 SP:F6 CYC:200 SL:86
15:25:19: E13E  68        PLA                            A:00 X:25 Y:00 P:27 SP:F6 CYC:212 SL:86
15:25:19: E13F  60        RTS                            A:7B X:25 Y:00 P:25 SP:F7 CYC:224 SL:86
15:25:19: E121  CA        DEX                            A:7B X:25 Y:00 P:25 SP:F9 CYC:242 SL:86
15:25:19: E122  D0 FA     BNE $E11E                      A:7B X:24 Y:00 P:25 SP:F9 CYC:248 SL:86
15:25:19: E11E  20 25 E1  JSR $E125                      A:7B X:24 Y:00 P:25 SP:F9 CYC:257 SL:86
15:25:19: E125  48        PHA                            A:7B X:24 Y:00 P:25 SP:F7 CYC:275 SL:86
15:25:19: E126  A9 00     LDA #$00                       A:7B X:24 Y:00 P:25 SP:F6 CYC:284 SL:86
15:25:19: E128  8D 06 20  STA $2006 = 00                 A:00 X:24 Y:00 P:27 SP:F6 CYC:290 SL:86
15:25:19: E12B  8D 06 20  STA $2006 = 00                 A:00 X:24 Y:00 P:27 SP:F6 CYC:302 SL:86
15:25:19: E12E  A9 10     LDA #$10                       A:00 X:24 Y:00 P:27 SP:F6 CYC:314 SL:86
15:25:19: E130  8D 06 20  STA $2006 = 00                 A:10 X:24 Y:00 P:25 SP:F6 CYC:320 SL:86
15:25:19: E133  8D 06 20  STA $2006 = 00                 A:10 X:24 Y:00 P:25 SP:F6 CYC:332 SL:86
15:25:19: E136  A9 00     LDA #$00                       A:10 X:24 Y:00 P:25 SP:F6 CYC:  3 SL:87
15:25:19: E138  8D 06 20  STA $2006 = 00                 A:00 X:24 Y:00 P:27 SP:F6 CYC:  9 SL:87
15:25:19: E13B  8D 06 20  STA $2006 = 00                 A:00 X:24 Y:00 P:27 SP:F6 CYC: 21 SL:87
15:25:19: E13E  68        PLA                            A:00 X:24 Y:00 P:27 SP:F6 CYC: 33 SL:87
15:25:19: E13F  60        RTS                            A:7B X:24 Y:00 P:25 SP:F7 CYC: 45 SL:87
15:25:19: E121  CA        DEX                            A:7B X:24 Y:00 P:25 SP:F9 CYC: 63 SL:87
15:25:19: E122  D0 FA     BNE $E11E                      A:7B X:23 Y:00 P:25 SP:F9 CYC: 69 SL:87
15:25:19: E11E  20 25 E1  JSR $E125                      A:7B X:23 Y:00 P:25 SP:F9 CYC: 78 SL:87
15:25:19: E125  48        PHA                            A:7B X:23 Y:00 P:25 SP:F7 CYC: 96 SL:87
15:25:19: E126  A9 00     LDA #$00                       A:7B X:23 Y:00 P:25 SP:F6 CYC:105 SL:87
15:25:19: E128  8D 06 20  STA $2006 = 00                 A:00 X:23 Y:00 P:27 SP:F6 CYC:111 SL:87
15:25:19: E12B  8D 06 20  STA $2006 = 00                 A:00 X:23 Y:00 P:27 SP:F6 CYC:123 SL:87
15:25:19: E12E  A9 10     LDA #$10                       A:00 X:23 Y:00 P:27 SP:F6 CYC:135 SL:87
15:25:19: E130  8D 06 20  STA $2006 = 00                 A:10 X:23 Y:00 P:25 SP:F6 CYC:141 SL:87
15:25:19: E133  8D 06 20  STA $2006 = 00                 A:10 X:23 Y:00 P:25 SP:F6 CYC:153 SL:87
15:25:19: E136  A9 00     LDA #$00                       A:10 X:23 Y:00 P:25 SP:F6 CYC:165 SL:87
15:25:19: E138  8D 06 20  STA $2006 = 00                 A:00 X:23 Y:00 P:27 SP:F6 CYC:171 SL:87
15:25:19: E13B  8D 06 20  STA $2006 = 00                 A:00 X:23 Y:00 P:27 SP:F6 CYC:183 SL:87
15:25:19: E13E  68        PLA                            A:00 X:23 Y:00 P:27 SP:F6 CYC:195 SL:87
15:25:19: E13F  60        RTS                            A:7B X:23 Y:00 P:25 SP:F7 CYC:207 SL:87
15:25:19: E121  CA        DEX                            A:7B X:23 Y:00 P:25 SP:F9 CYC:225 SL:87
15:25:19: E122  D0 FA     BNE $E11E                      A:7B X:22 Y:00 P:25 SP:F9 CYC:231 SL:87
15:25:19: E11E  20 25 E1  JSR $E125                      A:7B X:22 Y:00 P:25 SP:F9 CYC:240 SL:87
15:25:19: E125  48        PHA                            A:7B X:22 Y:00 P:25 SP:F7 CYC:258 SL:87
15:25:19: E126  A9 00     LDA #$00                       A:7B X:22 Y:00 P:25 SP:F6 CYC:267 SL:87
15:25:19: E128  8D 06 20  STA $2006 = 00                 A:00 X:22 Y:00 P:27 SP:F6 CYC:273 SL:87
15:25:19: E12B  8D 06 20  STA $2006 = 00                 A:00 X:22 Y:00 P:27 SP:F6 CYC:285 SL:87
15:25:19: E12E  A9 10     LDA #$10                       A:00 X:22 Y:00 P:27 SP:F6 CYC:297 SL:87
15:25:19: E130  8D 06 20  STA $2006 = 00                 A:10 X:22 Y:00 P:25 SP:F6 CYC:303 SL:87
15:25:19: E133  8D 06 20  STA $2006 = 00                 A:10 X:22 Y:00 P:25 SP:F6 CYC:315 SL:87
15:25:19: E136  A9 00     LDA #$00                       A:10 X:22 Y:00 P:25 SP:F6 CYC:327 SL:87
15:25:19: E138  8D 06 20  STA $2006 = 00                 A:00 X:22 Y:00 P:27 SP:F6 CYC:333 SL:87
15:25:19: E13B  8D 06 20  STA $2006 = 00                 A:00 X:22 Y:00 P:27 SP:F6 CYC:  4 SL:88
15:25:19: E13E  68        PLA                            A:00 X:22 Y:00 P:27 SP:F6 CYC: 16 SL:88
15:25:19: E13F  60        RTS                            A:7B X:22 Y:00 P:25 SP:F7 CYC: 28 SL:88
15:25:19: E121  CA        DEX                            A:7B X:22 Y:00 P:25 SP:F9 CYC: 46 SL:88
15:25:19: E122  D0 FA     BNE $E11E                      A:7B X:21 Y:00 P:25 SP:F9 CYC: 52 SL:88
15:25:19: E11E  20 25 E1  JSR $E125                      A:7B X:21 Y:00 P:25 SP:F9 CYC: 61 SL:88
15:25:19: E125  48        PHA                            A:7B X:21 Y:00 P:25 SP:F7 CYC: 79 SL:88
15:25:19: E126  A9 00     LDA #$00                       A:7B X:21 Y:00 P:25 SP:F6 CYC: 88 SL:88
15:25:19: E128  8D 06 20  STA $2006 = 00                 A:00 X:21 Y:00 P:27 SP:F6 CYC: 94 SL:88
15:25:19: E12B  8D 06 20  STA $2006 = 00                 A:00 X:21 Y:00 P:27 SP:F6 CYC:106 SL:88
15:25:19: E12E  A9 10     LDA #$10                       A:00 X:21 Y:00 P:27 SP:F6 CYC:118 SL:88
15:25:19: E130  8D 06 20  STA $2006 = 00                 A:10 X:21 Y:00 P:25 SP:F6 CYC:124 SL:88
15:25:19: E133  8D 06 20  STA $2006 = 00                 A:10 X:21 Y:00 P:25 SP:F6 CYC:136 SL:88
15:25:19: E136  A9 00     LDA #$00                       A:10 X:21 Y:00 P:25 SP:F6 CYC:148 SL:88
15:25:19: E138  8D 06 20  STA $2006 = 00                 A:00 X:21 Y:00 P:27 SP:F6 CYC:154 SL:88
15:25:19: E13B  8D 06 20  STA $2006 = 00                 A:00 X:21 Y:00 P:27 SP:F6 CYC:166 SL:88
15:25:19: E13E  68        PLA                            A:00 X:21 Y:00 P:27 SP:F6 CYC:178 SL:88
15:25:19: E13F  60        RTS                            A:7B X:21 Y:00 P:25 SP:F7 CYC:190 SL:88
15:25:19: E121  CA        DEX                            A:7B X:21 Y:00 P:25 SP:F9 CYC:208 SL:88
15:25:19: E122  D0 FA     BNE $E11E                      A:7B X:20 Y:00 P:25 SP:F9 CYC:214 SL:88
15:25:19: E11E  20 25 E1  JSR $E125                      A:7B X:20 Y:00 P:25 SP:F9 CYC:223 SL:88
15:25:19: E125  48        PHA                            A:7B X:20 Y:00 P:25 SP:F7 CYC:241 SL:88
15:25:19: E126  A9 00     LDA #$00                       A:7B X:20 Y:00 P:25 SP:F6 CYC:250 SL:88
15:25:19: E128  8D 06 20  STA $2006 = 00                 A:00 X:20 Y:00 P:27 SP:F6 CYC:256 SL:88
15:25:19: E12B  8D 06 20  STA $2006 = 00                 A:00 X:20 Y:00 P:27 SP:F6 CYC:268 SL:88
15:25:19: E12E  A9 10     LDA #$10                       A:00 X:20 Y:00 P:27 SP:F6 CYC:280 SL:88
15:25:19: E130  8D 06 20  STA $2006 = 00                 A:10 X:20 Y:00 P:25 SP:F6 CYC:286 SL:88
15:25:19: E133  8D 06 20  STA $2006 = 00                 A:10 X:20 Y:00 P:25 SP:F6 CYC:298 SL:88
15:25:19: E136  A9 00     LDA #$00                       A:10 X:20 Y:00 P:25 SP:F6 CYC:310 SL:88
15:25:19: E138  8D 06 20  STA $2006 = 00                 A:00 X:20 Y:00 P:27 SP:F6 CYC:316 SL:88
15:25:19: E13B  8D 06 20  STA $2006 = 00                 A:00 X:20 Y:00 P:27 SP:F6 CYC:328 SL:88
15:25:19: E13E  68        PLA                            A:00 X:20 Y:00 P:27 SP:F6 CYC:340 SL:88
15:25:19: E13F  60        RTS                            A:7B X:20 Y:00 P:25 SP:F7 CYC: 11 SL:89
15:25:19: E121  CA        DEX                            A:7B X:20 Y:00 P:25 SP:F9 CYC: 29 SL:89
15:25:19: E122  D0 FA     BNE $E11E                      A:7B X:1F Y:00 P:25 SP:F9 CYC: 35 SL:89
15:25:19: E11E  20 25 E1  JSR $E125                      A:7B X:1F Y:00 P:25 SP:F9 CYC: 44 SL:89
15:25:19: E125  48        PHA                            A:7B X:1F Y:00 P:25 SP:F7 CYC: 62 SL:89
15:25:19: E126  A9 00     LDA #$00                       A:7B X:1F Y:00 P:25 SP:F6 CYC: 71 SL:89
15:25:19: E128  8D 06 20  STA $2006 = 00                 A:00 X:1F Y:00 P:27 SP:F6 CYC: 77 SL:89
15:25:19: E12B  8D 06 20  STA $2006 = 00                 A:00 X:1F Y:00 P:27 SP:F6 CYC: 89 SL:89
15:25:19: E12E  A9 10     LDA #$10                       A:00 X:1F Y:00 P:27 SP:F6 CYC:101 SL:89
15:25:19: E130  8D 06 20  STA $2006 = 00                 A:10 X:1F Y:00 P:25 SP:F6 CYC:107 SL:89
15:25:19: E133  8D 06 20  STA $2006 = 00                 A:10 X:1F Y:00 P:25 SP:F6 CYC:119 SL:89
15:25:19: E136  A9 00     LDA #$00                       A:10 X:1F Y:00 P:25 SP:F6 CYC:131 SL:89
15:25:19: E138  8D 06 20  STA $2006 = 00                 A:00 X:1F Y:00 P:27 SP:F6 CYC:137 SL:89
15:25:19: E13B  8D 06 20  STA $2006 = 00                 A:00 X:1F Y:00 P:27 SP:F6 CYC:149 SL:89
15:25:19: E13E  68        PLA                            A:00 X:1F Y:00 P:27 SP:F6 CYC:161 SL:89
15:25:19: E13F  60        RTS                            A:7B X:1F Y:00 P:25 SP:F7 CYC:173 SL:89
15:25:19: E121  CA        DEX                            A:7B X:1F Y:00 P:25 SP:F9 CYC:191 SL:89
15:25:19: E122  D0 FA     BNE $E11E                      A:7B X:1E Y:00 P:25 SP:F9 CYC:197 SL:89
15:25:19: E11E  20 25 E1  JSR $E125                      A:7B X:1E Y:00 P:25 SP:F9 CYC:206 SL:89
15:25:19: E125  48        PHA                            A:7B X:1E Y:00 P:25 SP:F7 CYC:224 SL:89
15:25:19: E126  A9 00     LDA #$00                       A:7B X:1E Y:00 P:25 SP:F6 CYC:233 SL:89
15:25:19: E128  8D 06 20  STA $2006 = 00                 A:00 X:1E Y:00 P:27 SP:F6 CYC:239 SL:89
15:25:19: E12B  8D 06 20  STA $2006 = 00                 A:00 X:1E Y:00 P:27 SP:F6 CYC:251 SL:89
15:25:19: E12E  A9 10     LDA #$10                       A:00 X:1E Y:00 P:27 SP:F6 CYC:263 SL:89
15:25:19: E130  8D 06 20  STA $2006 = 00                 A:10 X:1E Y:00 P:25 SP:F6 CYC:269 SL:89
15:25:19: E133  8D 06 20  STA $2006 = 00                 A:10 X:1E Y:00 P:25 SP:F6 CYC:281 SL:89
15:25:19: E136  A9 00     LDA #$00                       A:10 X:1E Y:00 P:25 SP:F6 CYC:293 SL:89
15:25:19: E138  8D 06 20  STA $2006 = 00                 A:00 X:1E Y:00 P:27 SP:F6 CYC:299 SL:89
15:25:19: E13B  8D 06 20  STA $2006 = 00                 A:00 X:1E Y:00 P:27 SP:F6 CYC:311 SL:89
15:25:19: E13E  68        PLA                            A:00 X:1E Y:00 P:27 SP:F6 CYC:323 SL:89
15:25:19: E13F  60        RTS                            A:7B X:1E Y:00 P:25 SP:F7 CYC:335 SL:89
15:25:19: E121  CA        DEX                            A:7B X:1E Y:00 P:25 SP:F9 CYC: 12 SL:90
15:25:19: E122  D0 FA     BNE $E11E                      A:7B X:1D Y:00 P:25 SP:F9 CYC: 18 SL:90
15:25:19: E11E  20 25 E1  JSR $E125                      A:7B X:1D Y:00 P:25 SP:F9 CYC: 27 SL:90
15:25:19: E125  48        PHA                            A:7B X:1D Y:00 P:25 SP:F7 CYC: 45 SL:90
15:25:19: E126  A9 00     LDA #$00                       A:7B X:1D Y:00 P:25 SP:F6 CYC: 54 SL:90
15:25:19: E128  8D 06 20  STA $2006 = 00                 A:00 X:1D Y:00 P:27 SP:F6 CYC: 60 SL:90
15:25:19: E12B  8D 06 20  STA $2006 = 00                 A:00 X:1D Y:00 P:27 SP:F6 CYC: 72 SL:90
15:25:19: E12E  A9 10     LDA #$10                       A:00 X:1D Y:00 P:27 SP:F6 CYC: 84 SL:90
15:25:19: E130  8D 06 20  STA $2006 = 00                 A:10 X:1D Y:00 P:25 SP:F6 CYC: 90 SL:90
15:25:19: E133  8D 06 20  STA $2006 = 00                 A:10 X:1D Y:00 P:25 SP:F6 CYC:102 SL:90
15:25:19: E136  A9 00     LDA #$00                       A:10 X:1D Y:00 P:25 SP:F6 CYC:114 SL:90
15:25:19: E138  8D 06 20  STA $2006 = 00                 A:00 X:1D Y:00 P:27 SP:F6 CYC:120 SL:90
15:25:19: E13B  8D 06 20  STA $2006 = 00                 A:00 X:1D Y:00 P:27 SP:F6 CYC:132 SL:90
15:25:19: E13E  68        PLA                            A:00 X:1D Y:00 P:27 SP:F6 CYC:144 SL:90
15:25:19: E13F  60        RTS                            A:7B X:1D Y:00 P:25 SP:F7 CYC:156 SL:90
15:25:19: E121  CA        DEX                            A:7B X:1D Y:00 P:25 SP:F9 CYC:174 SL:90
15:25:19: E122  D0 FA     BNE $E11E                      A:7B X:1C Y:00 P:25 SP:F9 CYC:180 SL:90
15:25:19: E11E  20 25 E1  JSR $E125                      A:7B X:1C Y:00 P:25 SP:F9 CYC:189 SL:90
15:25:19: E125  48        PHA                            A:7B X:1C Y:00 P:25 SP:F7 CYC:207 SL:90
15:25:19: E126  A9 00     LDA #$00                       A:7B X:1C Y:00 P:25 SP:F6 CYC:216 SL:90
15:25:19: E128  8D 06 20  STA $2006 = 00                 A:00 X:1C Y:00 P:27 SP:F6 CYC:222 SL:90
15:25:19: E12B  8D 06 20  STA $2006 = 00                 A:00 X:1C Y:00 P:27 SP:F6 CYC:234 SL:90
15:25:19: E12E  A9 10     LDA #$10                       A:00 X:1C Y:00 P:27 SP:F6 CYC:246 SL:90
15:25:19: E130  8D 06 20  STA $2006 = 00                 A:10 X:1C Y:00 P:25 SP:F6 CYC:252 SL:90
15:25:19: E133  8D 06 20  STA $2006 = 00                 A:10 X:1C Y:00 P:25 SP:F6 CYC:264 SL:90
15:25:19: E136  A9 00     LDA #$00                       A:10 X:1C Y:00 P:25 SP:F6 CYC:276 SL:90
15:25:19: E138  8D 06 20  STA $2006 = 00                 A:00 X:1C Y:00 P:27 SP:F6 CYC:282 SL:90
15:25:19: E13B  8D 06 20  STA $2006 = 00                 A:00 X:1C Y:00 P:27 SP:F6 CYC:294 SL:90
15:25:19: E13E  68        PLA                            A:00 X:1C Y:00 P:27 SP:F6 CYC:306 SL:90
15:25:19: E13F  60        RTS                            A:7B X:1C Y:00 P:25 SP:F7 CYC:318 SL:90
15:25:19: E121  CA        DEX                            A:7B X:1C Y:00 P:25 SP:F9 CYC:336 SL:90
15:25:19: E122  D0 FA     BNE $E11E                      A:7B X:1B Y:00 P:25 SP:F9 CYC:  1 SL:91
15:25:19: E11E  20 25 E1  JSR $E125                      A:7B X:1B Y:00 P:25 SP:F9 CYC: 10 SL:91
15:25:19: E125  48        PHA                            A:7B X:1B Y:00 P:25 SP:F7 CYC: 28 SL:91
15:25:19: E126  A9 00     LDA #$00                       A:7B X:1B Y:00 P:25 SP:F6 CYC: 37 SL:91
15:25:19: E128  8D 06 20  STA $2006 = 00                 A:00 X:1B Y:00 P:27 SP:F6 CYC: 43 SL:91
15:25:19: E12B  8D 06 20  STA $2006 = 00                 A:00 X:1B Y:00 P:27 SP:F6 CYC: 55 SL:91
15:25:19: E12E  A9 10     LDA #$10                       A:00 X:1B Y:00 P:27 SP:F6 CYC: 67 SL:91
15:25:19: E130  8D 06 20  STA $2006 = 00                 A:10 X:1B Y:00 P:25 SP:F6 CYC: 73 SL:91
15:25:19: E133  8D 06 20  STA $2006 = 00                 A:10 X:1B Y:00 P:25 SP:F6 CYC: 85 SL:91
15:25:19: E136  A9 00     LDA #$00                       A:10 X:1B Y:00 P:25 SP:F6 CYC: 97 SL:91
15:25:19: E138  8D 06 20  STA $2006 = 00                 A:00 X:1B Y:00 P:27 SP:F6 CYC:103 SL:91
15:25:19: E13B  8D 06 20  STA $2006 = 00                 A:00 X:1B Y:00 P:27 SP:F6 CYC:115 SL:91
15:25:19: E13E  68        PLA                            A:00 X:1B Y:00 P:27 SP:F6 CYC:127 SL:91
15:25:19: E13F  60        RTS                            A:7B X:1B Y:00 P:25 SP:F7 CYC:139 SL:91
15:25:19: E121  CA        DEX                            A:7B X:1B Y:00 P:25 SP:F9 CYC:157 SL:91
15:25:19: E122  D0 FA     BNE $E11E                      A:7B X:1A Y:00 P:25 SP:F9 CYC:163 SL:91
15:25:19: E11E  20 25 E1  JSR $E125                      A:7B X:1A Y:00 P:25 SP:F9 CYC:172 SL:91
15:25:19: E125  48        PHA                            A:7B X:1A Y:00 P:25 SP:F7 CYC:190 SL:91
15:25:19: E126  A9 00     LDA #$00                       A:7B X:1A Y:00 P:25 SP:F6 CYC:199 SL:91
15:25:19: E128  8D 06 20  STA $2006 = 00                 A:00 X:1A Y:00 P:27 SP:F6 CYC:205 SL:91
15:25:19: E12B  8D 06 20  STA $2006 = 00                 A:00 X:1A Y:00 P:27 SP:F6 CYC:217 SL:91
15:25:19: E12E  A9 10     LDA #$10                       A:00 X:1A Y:00 P:27 SP:F6 CYC:229 SL:91
15:25:19: E130  8D 06 20  STA $2006 = 00                 A:10 X:1A Y:00 P:25 SP:F6 CYC:235 SL:91
15:25:19: E133  8D 06 20  STA $2006 = 00                 A:10 X:1A Y:00 P:25 SP:F6 CYC:247 SL:91
15:25:19: E136  A9 00     LDA #$00                       A:10 X:1A Y:00 P:25 SP:F6 CYC:259 SL:91
15:25:19: E138  8D 06 20  STA $2006 = 00                 A:00 X:1A Y:00 P:27 SP:F6 CYC:265 SL:91
15:25:19: E13B  8D 06 20  STA $2006 = 00                 A:00 X:1A Y:00 P:27 SP:F6 CYC:277 SL:91
15:25:19: E13E  68        PLA                            A:00 X:1A Y:00 P:27 SP:F6 CYC:289 SL:91
15:25:19: E13F  60        RTS                            A:7B X:1A Y:00 P:25 SP:F7 CYC:301 SL:91
15:25:19: E121  CA        DEX                            A:7B X:1A Y:00 P:25 SP:F9 CYC:319 SL:91
15:25:19: E122  D0 FA     BNE $E11E                      A:7B X:19 Y:00 P:25 SP:F9 CYC:325 SL:91
15:25:19: E11E  20 25 E1  JSR $E125                      A:7B X:19 Y:00 P:25 SP:F9 CYC:334 SL:91
15:25:19: E125  48        PHA                            A:7B X:19 Y:00 P:25 SP:F7 CYC: 11 SL:92
15:25:19: E126  A9 00     LDA #$00                       A:7B X:19 Y:00 P:25 SP:F6 CYC: 20 SL:92
15:25:19: E128  8D 06 20  STA $2006 = 00                 A:00 X:19 Y:00 P:27 SP:F6 CYC: 26 SL:92
15:25:19: E12B  8D 06 20  STA $2006 = 00                 A:00 X:19 Y:00 P:27 SP:F6 CYC: 38 SL:92
15:25:19: E12E  A9 10     LDA #$10                       A:00 X:19 Y:00 P:27 SP:F6 CYC: 50 SL:92
15:25:19: E130  8D 06 20  STA $2006 = 00                 A:10 X:19 Y:00 P:25 SP:F6 CYC: 56 SL:92
15:25:19: E133  8D 06 20  STA $2006 = 00                 A:10 X:19 Y:00 P:25 SP:F6 CYC: 68 SL:92
15:25:19: E136  A9 00     LDA #$00                       A:10 X:19 Y:00 P:25 SP:F6 CYC: 80 SL:92
15:25:19: E138  8D 06 20  STA $2006 = 00                 A:00 X:19 Y:00 P:27 SP:F6 CYC: 86 SL:92
15:25:19: E13B  8D 06 20  STA $2006 = 00                 A:00 X:19 Y:00 P:27 SP:F6 CYC: 98 SL:92
15:25:19: E13E  68        PLA                            A:00 X:19 Y:00 P:27 SP:F6 CYC:110 SL:92
15:25:19: E13F  60        RTS                            A:7B X:19 Y:00 P:25 SP:F7 CYC:122 SL:92
15:25:19: E121  CA        DEX                            A:7B X:19 Y:00 P:25 SP:F9 CYC:140 SL:92
15:25:19: E122  D0 FA     BNE $E11E                      A:7B X:18 Y:00 P:25 SP:F9 CYC:146 SL:92
15:25:19: E11E  20 25 E1  JSR $E125                      A:7B X:18 Y:00 P:25 SP:F9 CYC:155 SL:92
15:25:19: E125  48        PHA                            A:7B X:18 Y:00 P:25 SP:F7 CYC:173 SL:92
15:25:19: E126  A9 00     LDA #$00                       A:7B X:18 Y:00 P:25 SP:F6 CYC:182 SL:92
15:25:19: E128  8D 06 20  STA $2006 = 00                 A:00 X:18 Y:00 P:27 SP:F6 CYC:188 SL:92
15:25:19: E12B  8D 06 20  STA $2006 = 00                 A:00 X:18 Y:00 P:27 SP:F6 CYC:200 SL:92
15:25:19: E12E  A9 10     LDA #$10                       A:00 X:18 Y:00 P:27 SP:F6 CYC:212 SL:92
15:25:19: E130  8D 06 20  STA $2006 = 00                 A:10 X:18 Y:00 P:25 SP:F6 CYC:218 SL:92
15:25:19: E133  8D 06 20  STA $2006 = 00                 A:10 X:18 Y:00 P:25 SP:F6 CYC:230 SL:92
15:25:19: E136  A9 00     LDA #$00                       A:10 X:18 Y:00 P:25 SP:F6 CYC:242 SL:92
15:25:19: E138  8D 06 20  STA $2006 = 00                 A:00 X:18 Y:00 P:27 SP:F6 CYC:248 SL:92
15:25:19: E13B  8D 06 20  STA $2006 = 00                 A:00 X:18 Y:00 P:27 SP:F6 CYC:260 SL:92
15:25:19: E13E  68        PLA                            A:00 X:18 Y:00 P:27 SP:F6 CYC:272 SL:92
15:25:19: E13F  60        RTS                            A:7B X:18 Y:00 P:25 SP:F7 CYC:284 SL:92
15:25:19: E121  CA        DEX                            A:7B X:18 Y:00 P:25 SP:F9 CYC:302 SL:92
15:25:19: E122  D0 FA     BNE $E11E                      A:7B X:17 Y:00 P:25 SP:F9 CYC:308 SL:92
15:25:19: E11E  20 25 E1  JSR $E125                      A:7B X:17 Y:00 P:25 SP:F9 CYC:317 SL:92
15:25:19: E125  48        PHA                            A:7B X:17 Y:00 P:25 SP:F7 CYC:335 SL:92
15:25:19: E126  A9 00     LDA #$00                       A:7B X:17 Y:00 P:25 SP:F6 CYC:  3 SL:93
15:25:19: E128  8D 06 20  STA $2006 = 00                 A:00 X:17 Y:00 P:27 SP:F6 CYC:  9 SL:93
15:25:19: E12B  8D 06 20  STA $2006 = 00                 A:00 X:17 Y:00 P:27 SP:F6 CYC: 21 SL:93
15:25:19: E12E  A9 10     LDA #$10                       A:00 X:17 Y:00 P:27 SP:F6 CYC: 33 SL:93
15:25:19: E130  8D 06 20  STA $2006 = 00                 A:10 X:17 Y:00 P:25 SP:F6 CYC: 39 SL:93
15:25:19: E133  8D 06 20  STA $2006 = 00                 A:10 X:17 Y:00 P:25 SP:F6 CYC: 51 SL:93
15:25:19: E136  A9 00     LDA #$00                       A:10 X:17 Y:00 P:25 SP:F6 CYC: 63 SL:93
15:25:19: E138  8D 06 20  STA $2006 = 00                 A:00 X:17 Y:00 P:27 SP:F6 CYC: 69 SL:93
15:25:19: E13B  8D 06 20  STA $2006 = 00                 A:00 X:17 Y:00 P:27 SP:F6 CYC: 81 SL:93
15:25:19: E13E  68        PLA                            A:00 X:17 Y:00 P:27 SP:F6 CYC: 93 SL:93
15:25:19: E13F  60        RTS                            A:7B X:17 Y:00 P:25 SP:F7 CYC:105 SL:93
15:25:19: E121  CA        DEX                            A:7B X:17 Y:00 P:25 SP:F9 CYC:123 SL:93
15:25:19: E122  D0 FA     BNE $E11E                      A:7B X:16 Y:00 P:25 SP:F9 CYC:129 SL:93
15:25:19: E11E  20 25 E1  JSR $E125                      A:7B X:16 Y:00 P:25 SP:F9 CYC:138 SL:93
15:25:19: E125  48        PHA                            A:7B X:16 Y:00 P:25 SP:F7 CYC:156 SL:93
15:25:19: E126  A9 00     LDA #$00                       A:7B X:16 Y:00 P:25 SP:F6 CYC:165 SL:93
15:25:19: E128  8D 06 20  STA $2006 = 00                 A:00 X:16 Y:00 P:27 SP:F6 CYC:171 SL:93
15:25:19: E12B  8D 06 20  STA $2006 = 00                 A:00 X:16 Y:00 P:27 SP:F6 CYC:183 SL:93
15:25:19: E12E  A9 10     LDA #$10                       A:00 X:16 Y:00 P:27 SP:F6 CYC:195 SL:93
15:25:19: E130  8D 06 20  STA $2006 = 00                 A:10 X:16 Y:00 P:25 SP:F6 CYC:201 SL:93
15:25:19: E133  8D 06 20  STA $2006 = 00                 A:10 X:16 Y:00 P:25 SP:F6 CYC:213 SL:93
15:25:19: E136  A9 00     LDA #$00                       A:10 X:16 Y:00 P:25 SP:F6 CYC:225 SL:93
15:25:19: E138  8D 06 20  STA $2006 = 00                 A:00 X:16 Y:00 P:27 SP:F6 CYC:231 SL:93
15:25:19: E13B  8D 06 20  STA $2006 = 00                 A:00 X:16 Y:00 P:27 SP:F6 CYC:243 SL:93
15:25:19: E13E  68        PLA                            A:00 X:16 Y:00 P:27 SP:F6 CYC:255 SL:93
15:25:19: E13F  60        RTS                            A:7B X:16 Y:00 P:25 SP:F7 CYC:267 SL:93
15:25:19: E121  CA        DEX                            A:7B X:16 Y:00 P:25 SP:F9 CYC:285 SL:93
15:25:19: E122  D0 FA     BNE $E11E                      A:7B X:15 Y:00 P:25 SP:F9 CYC:291 SL:93
15:25:19: E11E  20 25 E1  JSR $E125                      A:7B X:15 Y:00 P:25 SP:F9 CYC:300 SL:93
15:25:19: E125  48        PHA                            A:7B X:15 Y:00 P:25 SP:F7 CYC:318 SL:93
15:25:19: E126  A9 00     LDA #$00                       A:7B X:15 Y:00 P:25 SP:F6 CYC:327 SL:93
15:25:19: E128  8D 06 20  STA $2006 = 00                 A:00 X:15 Y:00 P:27 SP:F6 CYC:333 SL:93
15:25:19: E12B  8D 06 20  STA $2006 = 00                 A:00 X:15 Y:00 P:27 SP:F6 CYC:  4 SL:94
15:25:19: E12E  A9 10     LDA #$10                       A:00 X:15 Y:00 P:27 SP:F6 CYC: 16 SL:94
15:25:19: E130  8D 06 20  STA $2006 = 00                 A:10 X:15 Y:00 P:25 SP:F6 CYC: 22 SL:94
15:25:19: E133  8D 06 20  STA $2006 = 00                 A:10 X:15 Y:00 P:25 SP:F6 CYC: 34 SL:94
15:25:19: E136  A9 00     LDA #$00                       A:10 X:15 Y:00 P:25 SP:F6 CYC: 46 SL:94
15:25:19: E138  8D 06 20  STA $2006 = 00                 A:00 X:15 Y:00 P:27 SP:F6 CYC: 52 SL:94
15:25:19: E13B  8D 06 20  STA $2006 = 00                 A:00 X:15 Y:00 P:27 SP:F6 CYC: 64 SL:94
15:25:19: E13E  68        PLA                            A:00 X:15 Y:00 P:27 SP:F6 CYC: 76 SL:94
15:25:19: E13F  60        RTS                            A:7B X:15 Y:00 P:25 SP:F7 CYC: 88 SL:94
15:25:19: E121  CA        DEX                            A:7B X:15 Y:00 P:25 SP:F9 CYC:106 SL:94
15:25:19: E122  D0 FA     BNE $E11E                      A:7B X:14 Y:00 P:25 SP:F9 CYC:112 SL:94
15:25:19: E11E  20 25 E1  JSR $E125                      A:7B X:14 Y:00 P:25 SP:F9 CYC:121 SL:94
15:25:19: E125  48        PHA                            A:7B X:14 Y:00 P:25 SP:F7 CYC:139 SL:94
15:25:19: E126  A9 00     LDA #$00                       A:7B X:14 Y:00 P:25 SP:F6 CYC:148 SL:94
15:25:19: E128  8D 06 20  STA $2006 = 00                 A:00 X:14 Y:00 P:27 SP:F6 CYC:154 SL:94
15:25:19: E12B  8D 06 20  STA $2006 = 00                 A:00 X:14 Y:00 P:27 SP:F6 CYC:166 SL:94
15:25:19: E12E  A9 10     LDA #$10                       A:00 X:14 Y:00 P:27 SP:F6 CYC:178 SL:94
15:25:19: E130  8D 06 20  STA $2006 = 00                 A:10 X:14 Y:00 P:25 SP:F6 CYC:184 SL:94
15:25:19: E133  8D 06 20  STA $2006 = 00                 A:10 X:14 Y:00 P:25 SP:F6 CYC:196 SL:94
15:25:19: E136  A9 00     LDA #$00                       A:10 X:14 Y:00 P:25 SP:F6 CYC:208 SL:94
15:25:19: E138  8D 06 20  STA $2006 = 00                 A:00 X:14 Y:00 P:27 SP:F6 CYC:214 SL:94
15:25:19: E13B  8D 06 20  STA $2006 = 00                 A:00 X:14 Y:00 P:27 SP:F6 CYC:226 SL:94
15:25:19: E13E  68        PLA                            A:00 X:14 Y:00 P:27 SP:F6 CYC:238 SL:94
15:25:19: E13F  60        RTS                            A:7B X:14 Y:00 P:25 SP:F7 CYC:250 SL:94
15:25:19: E121  CA        DEX                            A:7B X:14 Y:00 P:25 SP:F9 CYC:268 SL:94
15:25:19: E122  D0 FA     BNE $E11E                      A:7B X:13 Y:00 P:25 SP:F9 CYC:274 SL:94
15:25:19: E11E  20 25 E1  JSR $E125                      A:7B X:13 Y:00 P:25 SP:F9 CYC:283 SL:94
15:25:19: E125  48        PHA                            A:7B X:13 Y:00 P:25 SP:F7 CYC:301 SL:94
15:25:19: E126  A9 00     LDA #$00                       A:7B X:13 Y:00 P:25 SP:F6 CYC:310 SL:94
15:25:19: E128  8D 06 20  STA $2006 = 00                 A:00 X:13 Y:00 P:27 SP:F6 CYC:316 SL:94
15:25:19: E12B  8D 06 20  STA $2006 = 00                 A:00 X:13 Y:00 P:27 SP:F6 CYC:328 SL:94
15:25:19: E12E  A9 10     LDA #$10                       A:00 X:13 Y:00 P:27 SP:F6 CYC:340 SL:94
15:25:19: E130  8D 06 20  STA $2006 = 00                 A:10 X:13 Y:00 P:25 SP:F6 CYC:  5 SL:95
15:25:19: E133  8D 06 20  STA $2006 = 00                 A:10 X:13 Y:00 P:25 SP:F6 CYC: 17 SL:95
15:25:19: E136  A9 00     LDA #$00                       A:10 X:13 Y:00 P:25 SP:F6 CYC: 29 SL:95
15:25:19: E138  8D 06 20  STA $2006 = 00                 A:00 X:13 Y:00 P:27 SP:F6 CYC: 35 SL:95
15:25:19: E13B  8D 06 20  STA $2006 = 00                 A:00 X:13 Y:00 P:27 SP:F6 CYC: 47 SL:95
15:25:19: E13E  68        PLA                            A:00 X:13 Y:00 P:27 SP:F6 CYC: 59 SL:95
15:25:19: E13F  60        RTS                            A:7B X:13 Y:00 P:25 SP:F7 CYC: 71 SL:95
15:25:19: E121  CA        DEX                            A:7B X:13 Y:00 P:25 SP:F9 CYC: 89 SL:95
15:25:19: E122  D0 FA     BNE $E11E                      A:7B X:12 Y:00 P:25 SP:F9 CYC: 95 SL:95
15:25:19: E11E  20 25 E1  JSR $E125                      A:7B X:12 Y:00 P:25 SP:F9 CYC:104 SL:95
15:25:19: E125  48        PHA                            A:7B X:12 Y:00 P:25 SP:F7 CYC:122 SL:95
15:25:19: E126  A9 00     LDA #$00                       A:7B X:12 Y:00 P:25 SP:F6 CYC:131 SL:95
15:25:19: E128  8D 06 20  STA $2006 = 00                 A:00 X:12 Y:00 P:27 SP:F6 CYC:137 SL:95
15:25:19: E12B  8D 06 20  STA $2006 = 00                 A:00 X:12 Y:00 P:27 SP:F6 CYC:149 SL:95
15:25:19: E12E  A9 10     LDA #$10                       A:00 X:12 Y:00 P:27 SP:F6 CYC:161 SL:95
15:25:19: E130  8D 06 20  STA $2006 = 00                 A:10 X:12 Y:00 P:25 SP:F6 CYC:167 SL:95
15:25:19: E133  8D 06 20  STA $2006 = 00                 A:10 X:12 Y:00 P:25 SP:F6 CYC:179 SL:95
15:25:19: E136  A9 00     LDA #$00                       A:10 X:12 Y:00 P:25 SP:F6 CYC:191 SL:95
15:25:19: E138  8D 06 20  STA $2006 = 00                 A:00 X:12 Y:00 P:27 SP:F6 CYC:197 SL:95
15:25:19: E13B  8D 06 20  STA $2006 = 00                 A:00 X:12 Y:00 P:27 SP:F6 CYC:209 SL:95
15:25:19: E13E  68        PLA                            A:00 X:12 Y:00 P:27 SP:F6 CYC:221 SL:95
15:25:19: E13F  60        RTS                            A:7B X:12 Y:00 P:25 SP:F7 CYC:233 SL:95
15:25:19: E121  CA        DEX                            A:7B X:12 Y:00 P:25 SP:F9 CYC:251 SL:95
15:25:19: E122  D0 FA     BNE $E11E                      A:7B X:11 Y:00 P:25 SP:F9 CYC:257 SL:95
15:25:19: E11E  20 25 E1  JSR $E125                      A:7B X:11 Y:00 P:25 SP:F9 CYC:266 SL:95
15:25:19: E125  48        PHA                            A:7B X:11 Y:00 P:25 SP:F7 CYC:284 SL:95
15:25:19: E126  A9 00     LDA #$00                       A:7B X:11 Y:00 P:25 SP:F6 CYC:293 SL:95
15:25:19: E128  8D 06 20  STA $2006 = 00                 A:00 X:11 Y:00 P:27 SP:F6 CYC:299 SL:95
15:25:19: E12B  8D 06 20  STA $2006 = 00                 A:00 X:11 Y:00 P:27 SP:F6 CYC:311 SL:95
15:25:19: E12E  A9 10     LDA #$10                       A:00 X:11 Y:00 P:27 SP:F6 CYC:323 SL:95
15:25:19: E130  8D 06 20  STA $2006 = 00                 A:10 X:11 Y:00 P:25 SP:F6 CYC:329 SL:95
15:25:19: E133  8D 06 20  STA $2006 = 00                 A:10 X:11 Y:00 P:25 SP:F6 CYC:  0 SL:96
15:25:19: E136  A9 00     LDA #$00                       A:10 X:11 Y:00 P:25 SP:F6 CYC: 12 SL:96
15:25:19: E138  8D 06 20  STA $2006 = 00                 A:00 X:11 Y:00 P:27 SP:F6 CYC: 18 SL:96
15:25:19: E13B  8D 06 20  STA $2006 = 00                 A:00 X:11 Y:00 P:27 SP:F6 CYC: 30 SL:96
15:25:19: E13E  68        PLA                            A:00 X:11 Y:00 P:27 SP:F6 CYC: 42 SL:96
15:25:19: E13F  60        RTS                            A:7B X:11 Y:00 P:25 SP:F7 CYC: 54 SL:96
15:25:19: E121  CA        DEX                            A:7B X:11 Y:00 P:25 SP:F9 CYC: 72 SL:96
15:25:19: E122  D0 FA     BNE $E11E                      A:7B X:10 Y:00 P:25 SP:F9 CYC: 78 SL:96
15:25:19: E11E  20 25 E1  JSR $E125                      A:7B X:10 Y:00 P:25 SP:F9 CYC: 87 SL:96
15:25:19: E125  48        PHA                            A:7B X:10 Y:00 P:25 SP:F7 CYC:105 SL:96
15:25:19: E126  A9 00     LDA #$00                       A:7B X:10 Y:00 P:25 SP:F6 CYC:114 SL:96
15:25:19: E128  8D 06 20  STA $2006 = 00                 A:00 X:10 Y:00 P:27 SP:F6 CYC:120 SL:96
15:25:19: E12B  8D 06 20  STA $2006 = 00                 A:00 X:10 Y:00 P:27 SP:F6 CYC:132 SL:96
15:25:19: E12E  A9 10     LDA #$10                       A:00 X:10 Y:00 P:27 SP:F6 CYC:144 SL:96
15:25:19: E130  8D 06 20  STA $2006 = 00                 A:10 X:10 Y:00 P:25 SP:F6 CYC:150 SL:96
15:25:19: E133  8D 06 20  STA $2006 = 00                 A:10 X:10 Y:00 P:25 SP:F6 CYC:162 SL:96
15:25:19: E136  A9 00     LDA #$00                       A:10 X:10 Y:00 P:25 SP:F6 CYC:174 SL:96
15:25:19: E138  8D 06 20  STA $2006 = 00                 A:00 X:10 Y:00 P:27 SP:F6 CYC:180 SL:96
15:25:19: E13B  8D 06 20  STA $2006 = 00                 A:00 X:10 Y:00 P:27 SP:F6 CYC:192 SL:96
15:25:19: E13E  68        PLA                            A:00 X:10 Y:00 P:27 SP:F6 CYC:204 SL:96
15:25:19: E13F  60        RTS                            A:7B X:10 Y:00 P:25 SP:F7 CYC:216 SL:96
15:25:19: E121  CA        DEX                            A:7B X:10 Y:00 P:25 SP:F9 CYC:234 SL:96
15:25:19: E122  D0 FA     BNE $E11E                      A:7B X:0F Y:00 P:25 SP:F9 CYC:240 SL:96
15:25:19: E11E  20 25 E1  JSR $E125                      A:7B X:0F Y:00 P:25 SP:F9 CYC:249 SL:96
15:25:19: E125  48        PHA                            A:7B X:0F Y:00 P:25 SP:F7 CYC:267 SL:96
15:25:19: E126  A9 00     LDA #$00                       A:7B X:0F Y:00 P:25 SP:F6 CYC:276 SL:96
15:25:19: E128  8D 06 20  STA $2006 = 00                 A:00 X:0F Y:00 P:27 SP:F6 CYC:282 SL:96
15:25:19: E12B  8D 06 20  STA $2006 = 00                 A:00 X:0F Y:00 P:27 SP:F6 CYC:294 SL:96
15:25:19: E12E  A9 10     LDA #$10                       A:00 X:0F Y:00 P:27 SP:F6 CYC:306 SL:96
15:25:19: E130  8D 06 20  STA $2006 = 00                 A:10 X:0F Y:00 P:25 SP:F6 CYC:312 SL:96
15:25:19: E133  8D 06 20  STA $2006 = 00                 A:10 X:0F Y:00 P:25 SP:F6 CYC:324 SL:96
15:25:19: E136  A9 00     LDA #$00                       A:10 X:0F Y:00 P:25 SP:F6 CYC:336 SL:96
15:25:19: E138  8D 06 20  STA $2006 = 00                 A:00 X:0F Y:00 P:27 SP:F6 CYC:  1 SL:97
15:25:19: E13B  8D 06 20  STA $2006 = 00                 A:00 X:0F Y:00 P:27 SP:F6 CYC: 13 SL:97
15:25:19: E13E  68        PLA                            A:00 X:0F Y:00 P:27 SP:F6 CYC: 25 SL:97
15:25:19: E13F  60        RTS                            A:7B X:0F Y:00 P:25 SP:F7 CYC: 37 SL:97
15:25:19: E121  CA        DEX                            A:7B X:0F Y:00 P:25 SP:F9 CYC: 55 SL:97
15:25:19: E122  D0 FA     BNE $E11E                      A:7B X:0E Y:00 P:25 SP:F9 CYC: 61 SL:97
15:25:19: E11E  20 25 E1  JSR $E125                      A:7B X:0E Y:00 P:25 SP:F9 CYC: 70 SL:97
15:25:19: E125  48        PHA                            A:7B X:0E Y:00 P:25 SP:F7 CYC: 88 SL:97
15:25:19: E126  A9 00     LDA #$00                       A:7B X:0E Y:00 P:25 SP:F6 CYC: 97 SL:97
15:25:19: E128  8D 06 20  STA $2006 = 00                 A:00 X:0E Y:00 P:27 SP:F6 CYC:103 SL:97
15:25:19: E12B  8D 06 20  STA $2006 = 00                 A:00 X:0E Y:00 P:27 SP:F6 CYC:115 SL:97
15:25:19: E12E  A9 10     LDA #$10                       A:00 X:0E Y:00 P:27 SP:F6 CYC:127 SL:97
15:25:19: E130  8D 06 20  STA $2006 = 00                 A:10 X:0E Y:00 P:25 SP:F6 CYC:133 SL:97
15:25:19: E133  8D 06 20  STA $2006 = 00                 A:10 X:0E Y:00 P:25 SP:F6 CYC:145 SL:97
15:25:19: E136  A9 00     LDA #$00                       A:10 X:0E Y:00 P:25 SP:F6 CYC:157 SL:97
15:25:19: E138  8D 06 20  STA $2006 = 00                 A:00 X:0E Y:00 P:27 SP:F6 CYC:163 SL:97
15:25:19: E13B  8D 06 20  STA $2006 = 00                 A:00 X:0E Y:00 P:27 SP:F6 CYC:175 SL:97
15:25:19: E13E  68        PLA                            A:00 X:0E Y:00 P:27 SP:F6 CYC:187 SL:97
15:25:19: E13F  60        RTS                            A:7B X:0E Y:00 P:25 SP:F7 CYC:199 SL:97
15:25:19: E121  CA        DEX                            A:7B X:0E Y:00 P:25 SP:F9 CYC:217 SL:97
15:25:19: E122  D0 FA     BNE $E11E                      A:7B X:0D Y:00 P:25 SP:F9 CYC:223 SL:97
15:25:19: E11E  20 25 E1  JSR $E125                      A:7B X:0D Y:00 P:25 SP:F9 CYC:232 SL:97
15:25:19: E125  48        PHA                            A:7B X:0D Y:00 P:25 SP:F7 CYC:250 SL:97
15:25:19: E126  A9 00     LDA #$00                       A:7B X:0D Y:00 P:25 SP:F6 CYC:259 SL:97
15:25:19: E128  8D 06 20  STA $2006 = 00                 A:00 X:0D Y:00 P:27 SP:F6 CYC:265 SL:97
15:25:19: E12B  8D 06 20  STA $2006 = 00                 A:00 X:0D Y:00 P:27 SP:F6 CYC:277 SL:97
15:25:19: E12E  A9 10     LDA #$10                       A:00 X:0D Y:00 P:27 SP:F6 CYC:289 SL:97
15:25:19: E130  8D 06 20  STA $2006 = 00                 A:10 X:0D Y:00 P:25 SP:F6 CYC:295 SL:97
15:25:19: E133  8D 06 20  STA $2006 = 00                 A:10 X:0D Y:00 P:25 SP:F6 CYC:307 SL:97
15:25:19: E136  A9 00     LDA #$00                       A:10 X:0D Y:00 P:25 SP:F6 CYC:319 SL:97
15:25:19: E138  8D 06 20  STA $2006 = 00                 A:00 X:0D Y:00 P:27 SP:F6 CYC:325 SL:97
15:25:19: E13B  8D 06 20  STA $2006 = 00                 A:00 X:0D Y:00 P:27 SP:F6 CYC:337 SL:97
15:25:19: E13E  68        PLA                            A:00 X:0D Y:00 P:27 SP:F6 CYC:  8 SL:98
15:25:19: E13F  60        RTS                            A:7B X:0D Y:00 P:25 SP:F7 CYC: 20 SL:98
15:25:19: E121  CA        DEX                            A:7B X:0D Y:00 P:25 SP:F9 CYC: 38 SL:98
15:25:19: E122  D0 FA     BNE $E11E                      A:7B X:0C Y:00 P:25 SP:F9 CYC: 44 SL:98
15:25:19: E11E  20 25 E1  JSR $E125                      A:7B X:0C Y:00 P:25 SP:F9 CYC: 53 SL:98
15:25:19: E125  48        PHA                            A:7B X:0C Y:00 P:25 SP:F7 CYC: 71 SL:98
15:25:19: E126  A9 00     LDA #$00                       A:7B X:0C Y:00 P:25 SP:F6 CYC: 80 SL:98
15:25:19: E128  8D 06 20  STA $2006 = 00                 A:00 X:0C Y:00 P:27 SP:F6 CYC: 86 SL:98
15:25:19: E12B  8D 06 20  STA $2006 = 00                 A:00 X:0C Y:00 P:27 SP:F6 CYC: 98 SL:98
15:25:19: E12E  A9 10     LDA #$10                       A:00 X:0C Y:00 P:27 SP:F6 CYC:110 SL:98
15:25:19: E130  8D 06 20  STA $2006 = 00                 A:10 X:0C Y:00 P:25 SP:F6 CYC:116 SL:98
15:25:19: E133  8D 06 20  STA $2006 = 00                 A:10 X:0C Y:00 P:25 SP:F6 CYC:128 SL:98
15:25:19: E136  A9 00     LDA #$00                       A:10 X:0C Y:00 P:25 SP:F6 CYC:140 SL:98
15:25:19: E138  8D 06 20  STA $2006 = 00                 A:00 X:0C Y:00 P:27 SP:F6 CYC:146 SL:98
15:25:19: E13B  8D 06 20  STA $2006 = 00                 A:00 X:0C Y:00 P:27 SP:F6 CYC:158 SL:98
15:25:19: E13E  68        PLA                            A:00 X:0C Y:00 P:27 SP:F6 CYC:170 SL:98
15:25:19: E13F  60        RTS                            A:7B X:0C Y:00 P:25 SP:F7 CYC:182 SL:98
15:25:19: E121  CA        DEX                            A:7B X:0C Y:00 P:25 SP:F9 CYC:200 SL:98
15:25:19: E122  D0 FA     BNE $E11E                      A:7B X:0B Y:00 P:25 SP:F9 CYC:206 SL:98
15:25:19: E11E  20 25 E1  JSR $E125                      A:7B X:0B Y:00 P:25 SP:F9 CYC:215 SL:98
15:25:19: E125  48        PHA                            A:7B X:0B Y:00 P:25 SP:F7 CYC:233 SL:98
15:25:19: E126  A9 00     LDA #$00                       A:7B X:0B Y:00 P:25 SP:F6 CYC:242 SL:98
15:25:19: E128  8D 06 20  STA $2006 = 00                 A:00 X:0B Y:00 P:27 SP:F6 CYC:248 SL:98
15:25:19: E12B  8D 06 20  STA $2006 = 00                 A:00 X:0B Y:00 P:27 SP:F6 CYC:260 SL:98
15:25:19: E12E  A9 10     LDA #$10                       A:00 X:0B Y:00 P:27 SP:F6 CYC:272 SL:98
15:25:19: E130  8D 06 20  STA $2006 = 00                 A:10 X:0B Y:00 P:25 SP:F6 CYC:278 SL:98
15:25:19: E133  8D 06 20  STA $2006 = 00                 A:10 X:0B Y:00 P:25 SP:F6 CYC:290 SL:98
15:25:19: E136  A9 00     LDA #$00                       A:10 X:0B Y:00 P:25 SP:F6 CYC:302 SL:98
15:25:19: E138  8D 06 20  STA $2006 = 00                 A:00 X:0B Y:00 P:27 SP:F6 CYC:308 SL:98
15:25:19: E13B  8D 06 20  STA $2006 = 00                 A:00 X:0B Y:00 P:27 SP:F6 CYC:320 SL:98
15:25:19: E13E  68        PLA                            A:00 X:0B Y:00 P:27 SP:F6 CYC:332 SL:98
15:25:19: E13F  60        RTS                            A:7B X:0B Y:00 P:25 SP:F7 CYC:  3 SL:99
15:25:19: E121  CA        DEX                            A:7B X:0B Y:00 P:25 SP:F9 CYC: 21 SL:99
15:25:19: E122  D0 FA     BNE $E11E                      A:7B X:0A Y:00 P:25 SP:F9 CYC: 27 SL:99
15:25:19: E11E  20 25 E1  JSR $E125                      A:7B X:0A Y:00 P:25 SP:F9 CYC: 36 SL:99
15:25:19: E125  48        PHA                            A:7B X:0A Y:00 P:25 SP:F7 CYC: 54 SL:99
15:25:19: E126  A9 00     LDA #$00                       A:7B X:0A Y:00 P:25 SP:F6 CYC: 63 SL:99
15:25:19: E128  8D 06 20  STA $2006 = 00                 A:00 X:0A Y:00 P:27 SP:F6 CYC: 69 SL:99
15:25:19: E12B  8D 06 20  STA $2006 = 00                 A:00 X:0A Y:00 P:27 SP:F6 CYC: 81 SL:99
15:25:19: E12E  A9 10     LDA #$10                       A:00 X:0A Y:00 P:27 SP:F6 CYC: 93 SL:99
15:25:19: E130  8D 06 20  STA $2006 = 00                 A:10 X:0A Y:00 P:25 SP:F6 CYC: 99 SL:99
15:25:19: E133  8D 06 20  STA $2006 = 00                 A:10 X:0A Y:00 P:25 SP:F6 CYC:111 SL:99
15:25:19: E136  A9 00     LDA #$00                       A:10 X:0A Y:00 P:25 SP:F6 CYC:123 SL:99
15:25:19: E138  8D 06 20  STA $2006 = 00                 A:00 X:0A Y:00 P:27 SP:F6 CYC:129 SL:99
15:25:19: E13B  8D 06 20  STA $2006 = 00                 A:00 X:0A Y:00 P:27 SP:F6 CYC:141 SL:99
15:25:19: E13E  68        PLA                            A:00 X:0A Y:00 P:27 SP:F6 CYC:153 SL:99
15:25:19: E13F  60        RTS                            A:7B X:0A Y:00 P:25 SP:F7 CYC:165 SL:99
15:25:19: E121  CA        DEX                            A:7B X:0A Y:00 P:25 SP:F9 CYC:183 SL:99
15:25:19: E122  D0 FA     BNE $E11E                      A:7B X:09 Y:00 P:25 SP:F9 CYC:189 SL:99
15:25:19: E11E  20 25 E1  JSR $E125                      A:7B X:09 Y:00 P:25 SP:F9 CYC:198 SL:99
15:25:19: E125  48        PHA                            A:7B X:09 Y:00 P:25 SP:F7 CYC:216 SL:99
15:25:19: E126  A9 00     LDA #$00                       A:7B X:09 Y:00 P:25 SP:F6 CYC:225 SL:99
15:25:19: E128  8D 06 20  STA $2006 = 00                 A:00 X:09 Y:00 P:27 SP:F6 CYC:231 SL:99
15:25:19: E12B  8D 06 20  STA $2006 = 00                 A:00 X:09 Y:00 P:27 SP:F6 CYC:243 SL:99
15:25:19: E12E  A9 10     LDA #$10                       A:00 X:09 Y:00 P:27 SP:F6 CYC:255 SL:99
15:25:19: E130  8D 06 20  STA $2006 = 00                 A:10 X:09 Y:00 P:25 SP:F6 CYC:261 SL:99
15:25:19: E133  8D 06 20  STA $2006 = 00                 A:10 X:09 Y:00 P:25 SP:F6 CYC:273 SL:99
15:25:19: E136  A9 00     LDA #$00                       A:10 X:09 Y:00 P:25 SP:F6 CYC:285 SL:99
15:25:19: E138  8D 06 20  STA $2006 = 00                 A:00 X:09 Y:00 P:27 SP:F6 CYC:291 SL:99
15:25:19: E13B  8D 06 20  STA $2006 = 00                 A:00 X:09 Y:00 P:27 SP:F6 CYC:303 SL:99
15:25:19: E13E  68        PLA                            A:00 X:09 Y:00 P:27 SP:F6 CYC:315 SL:99
15:25:19: E13F  60        RTS                            A:7B X:09 Y:00 P:25 SP:F7 CYC:327 SL:99
15:25:19: E121  CA        DEX                            A:7B X:09 Y:00 P:25 SP:F9 CYC:  4 SL:100
15:25:19: E122  D0 FA     BNE $E11E                      A:7B X:08 Y:00 P:25 SP:F9 CYC: 10 SL:100
15:25:19: E11E  20 25 E1  JSR $E125                      A:7B X:08 Y:00 P:25 SP:F9 CYC: 19 SL:100
15:25:19: E125  48        PHA                            A:7B X:08 Y:00 P:25 SP:F7 CYC: 37 SL:100
15:25:19: E126  A9 00     LDA #$00                       A:7B X:08 Y:00 P:25 SP:F6 CYC: 46 SL:100
15:25:19: E128  8D 06 20  STA $2006 = 00                 A:00 X:08 Y:00 P:27 SP:F6 CYC: 52 SL:100
15:25:19: E12B  8D 06 20  STA $2006 = 00                 A:00 X:08 Y:00 P:27 SP:F6 CYC: 64 SL:100
15:25:19: E12E  A9 10     LDA #$10                       A:00 X:08 Y:00 P:27 SP:F6 CYC: 76 SL:100
15:25:19: E130  8D 06 20  STA $2006 = 00                 A:10 X:08 Y:00 P:25 SP:F6 CYC: 82 SL:100
15:25:19: E133  8D 06 20  STA $2006 = 00                 A:10 X:08 Y:00 P:25 SP:F6 CYC: 94 SL:100
15:25:19: E136  A9 00     LDA #$00                       A:10 X:08 Y:00 P:25 SP:F6 CYC:106 SL:100
15:25:19: E138  8D 06 20  STA $2006 = 00                 A:00 X:08 Y:00 P:27 SP:F6 CYC:112 SL:100
15:25:19: E13B  8D 06 20  STA $2006 = 00                 A:00 X:08 Y:00 P:27 SP:F6 CYC:124 SL:100
15:25:19: E13E  68        PLA                            A:00 X:08 Y:00 P:27 SP:F6 CYC:136 SL:100
15:25:19: E13F  60        RTS                            A:7B X:08 Y:00 P:25 SP:F7 CYC:148 SL:100
15:25:19: E121  CA        DEX                            A:7B X:08 Y:00 P:25 SP:F9 CYC:166 SL:100
15:25:19: E122  D0 FA     BNE $E11E                      A:7B X:07 Y:00 P:25 SP:F9 CYC:172 SL:100
15:25:19: E11E  20 25 E1  JSR $E125                      A:7B X:07 Y:00 P:25 SP:F9 CYC:181 SL:100
15:25:19: E125  48        PHA                            A:7B X:07 Y:00 P:25 SP:F7 CYC:199 SL:100
15:25:19: E126  A9 00     LDA #$00                       A:7B X:07 Y:00 P:25 SP:F6 CYC:208 SL:100
15:25:19: E128  8D 06 20  STA $2006 = 00                 A:00 X:07 Y:00 P:27 SP:F6 CYC:214 SL:100
15:25:19: E12B  8D 06 20  STA $2006 = 00                 A:00 X:07 Y:00 P:27 SP:F6 CYC:226 SL:100
15:25:19: E12E  A9 10     LDA #$10                       A:00 X:07 Y:00 P:27 SP:F6 CYC:238 SL:100
15:25:19: E130  8D 06 20  STA $2006 = 00                 A:10 X:07 Y:00 P:25 SP:F6 CYC:244 SL:100
15:25:19: E133  8D 06 20  STA $2006 = 00                 A:10 X:07 Y:00 P:25 SP:F6 CYC:256 SL:100
15:25:19: E136  A9 00     LDA #$00                       A:10 X:07 Y:00 P:25 SP:F6 CYC:268 SL:100
15:25:19: E138  8D 06 20  STA $2006 = 00                 A:00 X:07 Y:00 P:27 SP:F6 CYC:274 SL:100
15:25:19: E13B  8D 06 20  STA $2006 = 00                 A:00 X:07 Y:00 P:27 SP:F6 CYC:286 SL:100
15:25:19: E13E  68        PLA                            A:00 X:07 Y:00 P:27 SP:F6 CYC:298 SL:100
15:25:19: E13F  60        RTS                            A:7B X:07 Y:00 P:25 SP:F7 CYC:310 SL:100
15:25:19: E121  CA        DEX                            A:7B X:07 Y:00 P:25 SP:F9 CYC:328 SL:100
15:25:19: E122  D0 FA     BNE $E11E                      A:7B X:06 Y:00 P:25 SP:F9 CYC:334 SL:100
15:25:19: E11E  20 25 E1  JSR $E125                      A:7B X:06 Y:00 P:25 SP:F9 CYC:  2 SL:101
15:25:19: E125  48        PHA                            A:7B X:06 Y:00 P:25 SP:F7 CYC: 20 SL:101
15:25:19: E126  A9 00     LDA #$00                       A:7B X:06 Y:00 P:25 SP:F6 CYC: 29 SL:101
15:25:19: E128  8D 06 20  STA $2006 = 00                 A:00 X:06 Y:00 P:27 SP:F6 CYC: 35 SL:101
15:25:19: E12B  8D 06 20  STA $2006 = 00                 A:00 X:06 Y:00 P:27 SP:F6 CYC: 47 SL:101
15:25:19: E12E  A9 10     LDA #$10                       A:00 X:06 Y:00 P:27 SP:F6 CYC: 59 SL:101
15:25:19: E130  8D 06 20  STA $2006 = 00                 A:10 X:06 Y:00 P:25 SP:F6 CYC: 65 SL:101
15:25:19: E133  8D 06 20  STA $2006 = 00                 A:10 X:06 Y:00 P:25 SP:F6 CYC: 77 SL:101
15:25:19: E136  A9 00     LDA #$00                       A:10 X:06 Y:00 P:25 SP:F6 CYC: 89 SL:101
15:25:19: E138  8D 06 20  STA $2006 = 00                 A:00 X:06 Y:00 P:27 SP:F6 CYC: 95 SL:101
15:25:19: E13B  8D 06 20  STA $2006 = 00                 A:00 X:06 Y:00 P:27 SP:F6 CYC:107 SL:101
15:25:19: E13E  68        PLA                            A:00 X:06 Y:00 P:27 SP:F6 CYC:119 SL:101
15:25:19: E13F  60        RTS                            A:7B X:06 Y:00 P:25 SP:F7 CYC:131 SL:101
15:25:19: E121  CA        DEX                            A:7B X:06 Y:00 P:25 SP:F9 CYC:149 SL:101
15:25:19: E122  D0 FA     BNE $E11E                      A:7B X:05 Y:00 P:25 SP:F9 CYC:155 SL:101
15:25:19: E11E  20 25 E1  JSR $E125                      A:7B X:05 Y:00 P:25 SP:F9 CYC:164 SL:101
15:25:19: E125  48        PHA                            A:7B X:05 Y:00 P:25 SP:F7 CYC:182 SL:101
15:25:19: E126  A9 00     LDA #$00                       A:7B X:05 Y:00 P:25 SP:F6 CYC:191 SL:101
15:25:19: E128  8D 06 20  STA $2006 = 00                 A:00 X:05 Y:00 P:27 SP:F6 CYC:197 SL:101
15:25:19: E12B  8D 06 20  STA $2006 = 00                 A:00 X:05 Y:00 P:27 SP:F6 CYC:209 SL:101
15:25:19: E12E  A9 10     LDA #$10                       A:00 X:05 Y:00 P:27 SP:F6 CYC:221 SL:101
15:25:19: E130  8D 06 20  STA $2006 = 00                 A:10 X:05 Y:00 P:25 SP:F6 CYC:227 SL:101
15:25:19: E133  8D 06 20  STA $2006 = 00                 A:10 X:05 Y:00 P:25 SP:F6 CYC:239 SL:101
15:25:19: E136  A9 00     LDA #$00                       A:10 X:05 Y:00 P:25 SP:F6 CYC:251 SL:101
15:25:19: E138  8D 06 20  STA $2006 = 00                 A:00 X:05 Y:00 P:27 SP:F6 CYC:257 SL:101
15:25:19: E13B  8D 06 20  STA $2006 = 00                 A:00 X:05 Y:00 P:27 SP:F6 CYC:269 SL:101
15:25:19: E13E  68        PLA                            A:00 X:05 Y:00 P:27 SP:F6 CYC:281 SL:101
15:25:19: E13F  60        RTS                            A:7B X:05 Y:00 P:25 SP:F7 CYC:293 SL:101
15:25:19: E121  CA        DEX                            A:7B X:05 Y:00 P:25 SP:F9 CYC:311 SL:101
15:25:19: E122  D0 FA     BNE $E11E                      A:7B X:04 Y:00 P:25 SP:F9 CYC:317 SL:101
15:25:19: E11E  20 25 E1  JSR $E125                      A:7B X:04 Y:00 P:25 SP:F9 CYC:326 SL:101
15:25:19: E125  48        PHA                            A:7B X:04 Y:00 P:25 SP:F7 CYC:  3 SL:102
15:25:19: E126  A9 00     LDA #$00                       A:7B X:04 Y:00 P:25 SP:F6 CYC: 12 SL:102
15:25:19: E128  8D 06 20  STA $2006 = 00                 A:00 X:04 Y:00 P:27 SP:F6 CYC: 18 SL:102
15:25:19: E12B  8D 06 20  STA $2006 = 00                 A:00 X:04 Y:00 P:27 SP:F6 CYC: 30 SL:102
15:25:19: E12E  A9 10     LDA #$10                       A:00 X:04 Y:00 P:27 SP:F6 CYC: 42 SL:102
15:25:19: E130  8D 06 20  STA $2006 = 00                 A:10 X:04 Y:00 P:25 SP:F6 CYC: 48 SL:102
15:25:19: E133  8D 06 20  STA $2006 = 00                 A:10 X:04 Y:00 P:25 SP:F6 CYC: 60 SL:102
15:25:19: E136  A9 00     LDA #$00                       A:10 X:04 Y:00 P:25 SP:F6 CYC: 72 SL:102
15:25:19: E138  8D 06 20  STA $2006 = 00                 A:00 X:04 Y:00 P:27 SP:F6 CYC: 78 SL:102
15:25:19: E13B  8D 06 20  STA $2006 = 00                 A:00 X:04 Y:00 P:27 SP:F6 CYC: 90 SL:102
15:25:19: E13E  68        PLA                            A:00 X:04 Y:00 P:27 SP:F6 CYC:102 SL:102
15:25:19: E13F  60        RTS                            A:7B X:04 Y:00 P:25 SP:F7 CYC:114 SL:102
15:25:19: E121  CA        DEX                            A:7B X:04 Y:00 P:25 SP:F9 CYC:132 SL:102
15:25:19: E122  D0 FA     BNE $E11E                      A:7B X:03 Y:00 P:25 SP:F9 CYC:138 SL:102
15:25:19: E11E  20 25 E1  JSR $E125                      A:7B X:03 Y:00 P:25 SP:F9 CYC:147 SL:102
15:25:19: E125  48        PHA                            A:7B X:03 Y:00 P:25 SP:F7 CYC:165 SL:102
15:25:19: E126  A9 00     LDA #$00                       A:7B X:03 Y:00 P:25 SP:F6 CYC:174 SL:102
15:25:19: E128  8D 06 20  STA $2006 = 00                 A:00 X:03 Y:00 P:27 SP:F6 CYC:180 SL:102
15:25:19: E12B  8D 06 20  STA $2006 = 00                 A:00 X:03 Y:00 P:27 SP:F6 CYC:192 SL:102
15:25:19: E12E  A9 10     LDA #$10                       A:00 X:03 Y:00 P:27 SP:F6 CYC:204 SL:102
15:25:19: E130  8D 06 20  STA $2006 = 00                 A:10 X:03 Y:00 P:25 SP:F6 CYC:210 SL:102
15:25:19: E133  8D 06 20  STA $2006 = 00                 A:10 X:03 Y:00 P:25 SP:F6 CYC:222 SL:102
15:25:19: E136  A9 00     LDA #$00                       A:10 X:03 Y:00 P:25 SP:F6 CYC:234 SL:102
15:25:19: E138  8D 06 20  STA $2006 = 00                 A:00 X:03 Y:00 P:27 SP:F6 CYC:240 SL:102
15:25:19: E13B  8D 06 20  STA $2006 = 00                 A:00 X:03 Y:00 P:27 SP:F6 CYC:252 SL:102
15:25:20: E13E  68        PLA                            A:00 X:03 Y:00 P:27 SP:F6 CYC:264 SL:102
15:25:20: E13F  60        RTS                            A:7B X:03 Y:00 P:25 SP:F7 CYC:276 SL:102
15:25:20: E121  CA        DEX                            A:7B X:03 Y:00 P:25 SP:F9 CYC:294 SL:102
15:25:20: E122  D0 FA     BNE $E11E                      A:7B X:02 Y:00 P:25 SP:F9 CYC:300 SL:102
15:25:20: E11E  20 25 E1  JSR $E125                      A:7B X:02 Y:00 P:25 SP:F9 CYC:309 SL:102
15:25:20: E125  48        PHA                            A:7B X:02 Y:00 P:25 SP:F7 CYC:327 SL:102
15:25:20: E126  A9 00     LDA #$00                       A:7B X:02 Y:00 P:25 SP:F6 CYC:336 SL:102
15:25:20: E128  8D 06 20  STA $2006 = 00                 A:00 X:02 Y:00 P:27 SP:F6 CYC:  1 SL:103
15:25:20: E12B  8D 06 20  STA $2006 = 00                 A:00 X:02 Y:00 P:27 SP:F6 CYC: 13 SL:103
15:25:20: E12E  A9 10     LDA #$10                       A:00 X:02 Y:00 P:27 SP:F6 CYC: 25 SL:103
15:25:20: E130  8D 06 20  STA $2006 = 00                 A:10 X:02 Y:00 P:25 SP:F6 CYC: 31 SL:103
15:25:20: E133  8D 06 20  STA $2006 = 00                 A:10 X:02 Y:00 P:25 SP:F6 CYC: 43 SL:103
15:25:20: E136  A9 00     LDA #$00                       A:10 X:02 Y:00 P:25 SP:F6 CYC: 55 SL:103
15:25:20: E138  8D 06 20  STA $2006 = 00                 A:00 X:02 Y:00 P:27 SP:F6 CYC: 61 SL:103
15:25:20: E13B  8D 06 20  STA $2006 = 00                 A:00 X:02 Y:00 P:27 SP:F6 CYC: 73 SL:103
15:25:20: E13E  68        PLA                            A:00 X:02 Y:00 P:27 SP:F6 CYC: 85 SL:103
15:25:20: E13F  60        RTS                            A:7B X:02 Y:00 P:25 SP:F7 CYC: 97 SL:103
15:25:20: E121  CA        DEX                            A:7B X:02 Y:00 P:25 SP:F9 CYC:115 SL:103
15:25:20: E122  D0 FA     BNE $E11E                      A:7B X:01 Y:00 P:25 SP:F9 CYC:121 SL:103
15:25:20: E11E  20 25 E1  JSR $E125                      A:7B X:01 Y:00 P:25 SP:F9 CYC:130 SL:103
15:25:20: E125  48        PHA                            A:7B X:01 Y:00 P:25 SP:F7 CYC:148 SL:103
15:25:20: E126  A9 00     LDA #$00                       A:7B X:01 Y:00 P:25 SP:F6 CYC:157 SL:103
15:25:20: E128  8D 06 20  STA $2006 = 00                 A:00 X:01 Y:00 P:27 SP:F6 CYC:163 SL:103
15:25:20: E12B  8D 06 20  STA $2006 = 00                 A:00 X:01 Y:00 P:27 SP:F6 CYC:175 SL:103
15:25:20: E12E  A9 10     LDA #$10                       A:00 X:01 Y:00 P:27 SP:F6 CYC:187 SL:103
15:25:20: E130  8D 06 20  STA $2006 = 00                 A:10 X:01 Y:00 P:25 SP:F6 CYC:193 SL:103
15:25:20: E133  8D 06 20  STA $2006 = 00                 A:10 X:01 Y:00 P:25 SP:F6 CYC:205 SL:103
15:25:20: E136  A9 00     LDA #$00                       A:10 X:01 Y:00 P:25 SP:F6 CYC:217 SL:103
15:25:20: E138  8D 06 20  STA $2006 = 00                 A:00 X:01 Y:00 P:27 SP:F6 CYC:223 SL:103
15:25:20: E13B  8D 06 20  STA $2006 = 00                 A:00 X:01 Y:00 P:27 SP:F6 CYC:235 SL:103
15:25:20: E13E  68        PLA                            A:00 X:01 Y:00 P:27 SP:F6 CYC:247 SL:103
15:25:20: E13F  60        RTS                            A:7B X:01 Y:00 P:25 SP:F7 CYC:259 SL:103
15:25:20: E121  CA        DEX                            A:7B X:01 Y:00 P:25 SP:F9 CYC:277 SL:103
15:25:20: E122  D0 FA     BNE $E11E                      A:7B X:00 Y:00 P:27 SP:F9 CYC:283 SL:103
15:25:20: E124  60        RTS                            A:7B X:00 Y:00 P:27 SP:F9 CYC:289 SL:103
15:25:20: E0F6  20 07 E1  JSR $E107                      A:7B X:00 Y:00 P:27 SP:FB CYC:307 SL:103
15:25:20: E107  A9 7B     LDA #$7B                       A:7B X:00 Y:00 P:27 SP:F9 CYC:325 SL:103
15:25:20: E109  8D 01 C0  STA $C001 = 00                 A:7B X:00 Y:00 P:25 SP:F9 CYC:331 SL:103
15:25:20: IRQ latch manually set: Counter: 1 Latch: 123
15:25:20: E10C  60        RTS                            A:7B X:00 Y:00 P:25 SP:F9 CYC:  2 SL:104
15:25:20: E0F9  A2 00     LDX #$00                       A:7B X:00 Y:00 P:25 SP:FB CYC: 20 SL:104
15:25:20: E0FB  20 1E E1  JSR $E11E                      A:7B X:00 Y:00 P:27 SP:FB CYC: 26 SL:104
15:25:20: E11E  20 25 E1  JSR $E125                      A:7B X:00 Y:00 P:27 SP:F9 CYC: 44 SL:104
15:25:20: E125  48        PHA                            A:7B X:00 Y:00 P:27 SP:F7 CYC: 62 SL:104
15:25:20: E126  A9 00     LDA #$00                       A:7B X:00 Y:00 P:27 SP:F6 CYC: 71 SL:104
15:25:20: E128  8D 06 20  STA $2006 = 00                 A:00 X:00 Y:00 P:27 SP:F6 CYC: 77 SL:104
15:25:20: E12B  8D 06 20  STA $2006 = 00                 A:00 X:00 Y:00 P:27 SP:F6 CYC: 89 SL:104
15:25:20: E12E  A9 10     LDA #$10                       A:00 X:00 Y:00 P:27 SP:F6 CYC:101 SL:104
15:25:20: E130  8D 06 20  STA $2006 = 00                 A:10 X:00 Y:00 P:25 SP:F6 CYC:107 SL:104
15:25:20: E133  8D 06 20  STA $2006 = 00                 A:10 X:00 Y:00 P:25 SP:F6 CYC:119 SL:104
15:25:20: E136  A9 00     LDA #$00                       A:10 X:00 Y:00 P:25 SP:F6 CYC:131 SL:104
15:25:20: E138  8D 06 20  STA $2006 = 00                 A:00 X:00 Y:00 P:27 SP:F6 CYC:137 SL:104
15:25:20: E13B  8D 06 20  STA $2006 = 00                 A:00 X:00 Y:00 P:27 SP:F6 CYC:149 SL:104
15:25:20: E13E  68        PLA                            A:00 X:00 Y:00 P:27 SP:F6 CYC:161 SL:104
15:25:20: E13F  60        RTS                            A:7B X:00 Y:00 P:25 SP:F7 CYC:173 SL:104
15:25:20: E121  CA        DEX                            A:7B X:00 Y:00 P:25 SP:F9 CYC:191 SL:104
15:25:20: E122  D0 FA     BNE $E11E                      A:7B X:FF Y:00 P:A5 SP:F9 CYC:197 SL:104
15:25:20: E11E  20 25 E1  JSR $E125                      A:7B X:FF Y:00 P:A5 SP:F9 CYC:206 SL:104
15:25:20: E125  48        PHA                            A:7B X:FF Y:00 P:A5 SP:F7 CYC:224 SL:104
15:25:20: E126  A9 00     LDA #$00                       A:7B X:FF Y:00 P:A5 SP:F6 CYC:233 SL:104
15:25:20: E128  8D 06 20  STA $2006 = 00                 A:00 X:FF Y:00 P:27 SP:F6 CYC:239 SL:104
15:25:20: E12B  8D 06 20  STA $2006 = 00                 A:00 X:FF Y:00 P:27 SP:F6 CYC:251 SL:104
15:25:20: E12E  A9 10     LDA #$10                       A:00 X:FF Y:00 P:27 SP:F6 CYC:263 SL:104
15:25:20: E130  8D 06 20  STA $2006 = 00                 A:10 X:FF Y:00 P:25 SP:F6 CYC:269 SL:104
15:25:20: E133  8D 06 20  STA $2006 = 00                 A:10 X:FF Y:00 P:25 SP:F6 CYC:281 SL:104
15:25:20: E136  A9 00     LDA #$00                       A:10 X:FF Y:00 P:25 SP:F6 CYC:293 SL:104
15:25:20: E138  8D 06 20  STA $2006 = 00                 A:00 X:FF Y:00 P:27 SP:F6 CYC:299 SL:104
15:25:20: E13B  8D 06 20  STA $2006 = 00                 A:00 X:FF Y:00 P:27 SP:F6 CYC:311 SL:104
15:25:20: E13E  68        PLA                            A:00 X:FF Y:00 P:27 SP:F6 CYC:323 SL:104
15:25:20: E13F  60        RTS                            A:7B X:FF Y:00 P:25 SP:F7 CYC:335 SL:104
15:25:20: E121  CA        DEX                            A:7B X:FF Y:00 P:25 SP:F9 CYC: 12 SL:105
15:25:20: E122  D0 FA     BNE $E11E                      A:7B X:FE Y:00 P:A5 SP:F9 CYC: 18 SL:105
15:25:20: E11E  20 25 E1  JSR $E125                      A:7B X:FE Y:00 P:A5 SP:F9 CYC: 27 SL:105
15:25:20: E125  48        PHA                            A:7B X:FE Y:00 P:A5 SP:F7 CYC: 45 SL:105
15:25:20: E126  A9 00     LDA #$00                       A:7B X:FE Y:00 P:A5 SP:F6 CYC: 54 SL:105
15:25:20: E128  8D 06 20  STA $2006 = 00                 A:00 X:FE Y:00 P:27 SP:F6 CYC: 60 SL:105
15:25:20: E12B  8D 06 20  STA $2006 = 00                 A:00 X:FE Y:00 P:27 SP:F6 CYC: 72 SL:105
15:25:20: E12E  A9 10     LDA #$10                       A:00 X:FE Y:00 P:27 SP:F6 CYC: 84 SL:105
15:25:20: E130  8D 06 20  STA $2006 = 00                 A:10 X:FE Y:00 P:25 SP:F6 CYC: 90 SL:105
15:25:20: E133  8D 06 20  STA $2006 = 00                 A:10 X:FE Y:00 P:25 SP:F6 CYC:102 SL:105
15:25:20: E136  A9 00     LDA #$00                       A:10 X:FE Y:00 P:25 SP:F6 CYC:114 SL:105
15:25:20: E138  8D 06 20  STA $2006 = 00                 A:00 X:FE Y:00 P:27 SP:F6 CYC:120 SL:105
15:25:20: E13B  8D 06 20  STA $2006 = 00                 A:00 X:FE Y:00 P:27 SP:F6 CYC:132 SL:105
15:25:20: E13E  68        PLA                            A:00 X:FE Y:00 P:27 SP:F6 CYC:144 SL:105
15:25:20: E13F  60        RTS                            A:7B X:FE Y:00 P:25 SP:F7 CYC:156 SL:105
15:25:20: E121  CA        DEX                            A:7B X:FE Y:00 P:25 SP:F9 CYC:174 SL:105
15:25:20: E122  D0 FA     BNE $E11E                      A:7B X:FD Y:00 P:A5 SP:F9 CYC:180 SL:105
15:25:20: E11E  20 25 E1  JSR $E125                      A:7B X:FD Y:00 P:A5 SP:F9 CYC:189 SL:105
15:25:20: E125  48        PHA                            A:7B X:FD Y:00 P:A5 SP:F7 CYC:207 SL:105
15:25:20: E126  A9 00     LDA #$00                       A:7B X:FD Y:00 P:A5 SP:F6 CYC:216 SL:105
15:25:20: E128  8D 06 20  STA $2006 = 00                 A:00 X:FD Y:00 P:27 SP:F6 CYC:222 SL:105
15:25:20: E12B  8D 06 20  STA $2006 = 00                 A:00 X:FD Y:00 P:27 SP:F6 CYC:234 SL:105
15:25:20: E12E  A9 10     LDA #$10                       A:00 X:FD Y:00 P:27 SP:F6 CYC:246 SL:105
15:25:20: E130  8D 06 20  STA $2006 = 00                 A:10 X:FD Y:00 P:25 SP:F6 CYC:252 SL:105
15:25:20: E133  8D 06 20  STA $2006 = 00                 A:10 X:FD Y:00 P:25 SP:F6 CYC:264 SL:105
15:25:20: E136  A9 00     LDA #$00                       A:10 X:FD Y:00 P:25 SP:F6 CYC:276 SL:105
15:25:20: E138  8D 06 20  STA $2006 = 00                 A:00 X:FD Y:00 P:27 SP:F6 CYC:282 SL:105
15:25:20: E13B  8D 06 20  STA $2006 = 00                 A:00 X:FD Y:00 P:27 SP:F6 CYC:294 SL:105
15:25:20: E13E  68        PLA                            A:00 X:FD Y:00 P:27 SP:F6 CYC:306 SL:105
15:25:20: E13F  60        RTS                            A:7B X:FD Y:00 P:25 SP:F7 CYC:318 SL:105
15:25:20: E121  CA        DEX                            A:7B X:FD Y:00 P:25 SP:F9 CYC:336 SL:105
15:25:20: E122  D0 FA     BNE $E11E                      A:7B X:FC Y:00 P:A5 SP:F9 CYC:  1 SL:106
15:25:20: E11E  20 25 E1  JSR $E125                      A:7B X:FC Y:00 P:A5 SP:F9 CYC: 10 SL:106
15:25:20: E125  48        PHA                            A:7B X:FC Y:00 P:A5 SP:F7 CYC: 28 SL:106
15:25:20: E126  A9 00     LDA #$00                       A:7B X:FC Y:00 P:A5 SP:F6 CYC: 37 SL:106
15:25:20: E128  8D 06 20  STA $2006 = 00                 A:00 X:FC Y:00 P:27 SP:F6 CYC: 43 SL:106
15:25:20: E12B  8D 06 20  STA $2006 = 00                 A:00 X:FC Y:00 P:27 SP:F6 CYC: 55 SL:106
15:25:20: E12E  A9 10     LDA #$10                       A:00 X:FC Y:00 P:27 SP:F6 CYC: 67 SL:106
15:25:20: E130  8D 06 20  STA $2006 = 00                 A:10 X:FC Y:00 P:25 SP:F6 CYC: 73 SL:106
15:25:20: E133  8D 06 20  STA $2006 = 00                 A:10 X:FC Y:00 P:25 SP:F6 CYC: 85 SL:106
15:25:20: E136  A9 00     LDA #$00                       A:10 X:FC Y:00 P:25 SP:F6 CYC: 97 SL:106
15:25:20: E138  8D 06 20  STA $2006 = 00                 A:00 X:FC Y:00 P:27 SP:F6 CYC:103 SL:106
15:25:20: E13B  8D 06 20  STA $2006 = 00                 A:00 X:FC Y:00 P:27 SP:F6 CYC:115 SL:106
15:25:20: E13E  68        PLA                            A:00 X:FC Y:00 P:27 SP:F6 CYC:127 SL:106
15:25:20: E13F  60        RTS                            A:7B X:FC Y:00 P:25 SP:F7 CYC:139 SL:106
15:25:20: E121  CA        DEX                            A:7B X:FC Y:00 P:25 SP:F9 CYC:157 SL:106
15:25:20: E122  D0 FA     BNE $E11E                      A:7B X:FB Y:00 P:A5 SP:F9 CYC:163 SL:106
15:25:20: E11E  20 25 E1  JSR $E125                      A:7B X:FB Y:00 P:A5 SP:F9 CYC:172 SL:106
15:25:20: E125  48        PHA                            A:7B X:FB Y:00 P:A5 SP:F7 CYC:190 SL:106
15:25:20: E126  A9 00     LDA #$00                       A:7B X:FB Y:00 P:A5 SP:F6 CYC:199 SL:106
15:25:20: E128  8D 06 20  STA $2006 = 00                 A:00 X:FB Y:00 P:27 SP:F6 CYC:205 SL:106
15:25:20: E12B  8D 06 20  STA $2006 = 00                 A:00 X:FB Y:00 P:27 SP:F6 CYC:217 SL:106
15:25:20: E12E  A9 10     LDA #$10                       A:00 X:FB Y:00 P:27 SP:F6 CYC:229 SL:106
15:25:20: E130  8D 06 20  STA $2006 = 00                 A:10 X:FB Y:00 P:25 SP:F6 CYC:235 SL:106
15:25:20: E133  8D 06 20  STA $2006 = 00                 A:10 X:FB Y:00 P:25 SP:F6 CYC:247 SL:106
15:25:20: E136  A9 00     LDA #$00                       A:10 X:FB Y:00 P:25 SP:F6 CYC:259 SL:106
15:25:20: E138  8D 06 20  STA $2006 = 00                 A:00 X:FB Y:00 P:27 SP:F6 CYC:265 SL:106
15:25:20: E13B  8D 06 20  STA $2006 = 00                 A:00 X:FB Y:00 P:27 SP:F6 CYC:277 SL:106
15:25:20: E13E  68        PLA                            A:00 X:FB Y:00 P:27 SP:F6 CYC:289 SL:106
15:25:20: E13F  60        RTS                            A:7B X:FB Y:00 P:25 SP:F7 CYC:301 SL:106
15:25:20: E121  CA        DEX                            A:7B X:FB Y:00 P:25 SP:F9 CYC:319 SL:106
15:25:20: E122  D0 FA     BNE $E11E                      A:7B X:FA Y:00 P:A5 SP:F9 CYC:325 SL:106
15:25:20: E11E  20 25 E1  JSR $E125                      A:7B X:FA Y:00 P:A5 SP:F9 CYC:334 SL:106
15:25:20: E125  48        PHA                            A:7B X:FA Y:00 P:A5 SP:F7 CYC: 11 SL:107
15:25:20: E126  A9 00     LDA #$00                       A:7B X:FA Y:00 P:A5 SP:F6 CYC: 20 SL:107
15:25:20: E128  8D 06 20  STA $2006 = 00                 A:00 X:FA Y:00 P:27 SP:F6 CYC: 26 SL:107
15:25:20: E12B  8D 06 20  STA $2006 = 00                 A:00 X:FA Y:00 P:27 SP:F6 CYC: 38 SL:107
15:25:20: E12E  A9 10     LDA #$10                       A:00 X:FA Y:00 P:27 SP:F6 CYC: 50 SL:107
15:25:20: E130  8D 06 20  STA $2006 = 00                 A:10 X:FA Y:00 P:25 SP:F6 CYC: 56 SL:107
15:25:20: E133  8D 06 20  STA $2006 = 00                 A:10 X:FA Y:00 P:25 SP:F6 CYC: 68 SL:107
15:25:20: E136  A9 00     LDA #$00                       A:10 X:FA Y:00 P:25 SP:F6 CYC: 80 SL:107
15:25:20: E138  8D 06 20  STA $2006 = 00                 A:00 X:FA Y:00 P:27 SP:F6 CYC: 86 SL:107
15:25:20: E13B  8D 06 20  STA $2006 = 00                 A:00 X:FA Y:00 P:27 SP:F6 CYC: 98 SL:107
15:25:20: E13E  68        PLA                            A:00 X:FA Y:00 P:27 SP:F6 CYC:110 SL:107
15:25:20: E13F  60        RTS                            A:7B X:FA Y:00 P:25 SP:F7 CYC:122 SL:107
15:25:20: E121  CA        DEX                            A:7B X:FA Y:00 P:25 SP:F9 CYC:140 SL:107
15:25:20: E122  D0 FA     BNE $E11E                      A:7B X:F9 Y:00 P:A5 SP:F9 CYC:146 SL:107
15:25:20: E11E  20 25 E1  JSR $E125                      A:7B X:F9 Y:00 P:A5 SP:F9 CYC:155 SL:107
15:25:20: E125  48        PHA                            A:7B X:F9 Y:00 P:A5 SP:F7 CYC:173 SL:107
15:25:20: E126  A9 00     LDA #$00                       A:7B X:F9 Y:00 P:A5 SP:F6 CYC:182 SL:107
15:25:20: E128  8D 06 20  STA $2006 = 00                 A:00 X:F9 Y:00 P:27 SP:F6 CYC:188 SL:107
15:25:20: E12B  8D 06 20  STA $2006 = 00                 A:00 X:F9 Y:00 P:27 SP:F6 CYC:200 SL:107
15:25:20: E12E  A9 10     LDA #$10                       A:00 X:F9 Y:00 P:27 SP:F6 CYC:212 SL:107
15:25:20: E130  8D 06 20  STA $2006 = 00                 A:10 X:F9 Y:00 P:25 SP:F6 CYC:218 SL:107
15:25:20: E133  8D 06 20  STA $2006 = 00                 A:10 X:F9 Y:00 P:25 SP:F6 CYC:230 SL:107
15:25:20: E136  A9 00     LDA #$00                       A:10 X:F9 Y:00 P:25 SP:F6 CYC:242 SL:107
15:25:20: E138  8D 06 20  STA $2006 = 00                 A:00 X:F9 Y:00 P:27 SP:F6 CYC:248 SL:107
15:25:20: E13B  8D 06 20  STA $2006 = 00                 A:00 X:F9 Y:00 P:27 SP:F6 CYC:260 SL:107
15:25:20: E13E  68        PLA                            A:00 X:F9 Y:00 P:27 SP:F6 CYC:272 SL:107
15:25:20: E13F  60        RTS                            A:7B X:F9 Y:00 P:25 SP:F7 CYC:284 SL:107
15:25:20: E121  CA        DEX                            A:7B X:F9 Y:00 P:25 SP:F9 CYC:302 SL:107
15:25:20: E122  D0 FA     BNE $E11E                      A:7B X:F8 Y:00 P:A5 SP:F9 CYC:308 SL:107
15:25:20: E11E  20 25 E1  JSR $E125                      A:7B X:F8 Y:00 P:A5 SP:F9 CYC:317 SL:107
15:25:20: E125  48        PHA                            A:7B X:F8 Y:00 P:A5 SP:F7 CYC:335 SL:107
15:25:20: E126  A9 00     LDA #$00                       A:7B X:F8 Y:00 P:A5 SP:F6 CYC:  3 SL:108
15:25:20: E128  8D 06 20  STA $2006 = 00                 A:00 X:F8 Y:00 P:27 SP:F6 CYC:  9 SL:108
15:25:20: E12B  8D 06 20  STA $2006 = 00                 A:00 X:F8 Y:00 P:27 SP:F6 CYC: 21 SL:108
15:25:20: E12E  A9 10     LDA #$10                       A:00 X:F8 Y:00 P:27 SP:F6 CYC: 33 SL:108
15:25:20: E130  8D 06 20  STA $2006 = 00                 A:10 X:F8 Y:00 P:25 SP:F6 CYC: 39 SL:108
15:25:20: E133  8D 06 20  STA $2006 = 00                 A:10 X:F8 Y:00 P:25 SP:F6 CYC: 51 SL:108
15:25:20: E136  A9 00     LDA #$00                       A:10 X:F8 Y:00 P:25 SP:F6 CYC: 63 SL:108
15:25:20: E138  8D 06 20  STA $2006 = 00                 A:00 X:F8 Y:00 P:27 SP:F6 CYC: 69 SL:108
15:25:20: E13B  8D 06 20  STA $2006 = 00                 A:00 X:F8 Y:00 P:27 SP:F6 CYC: 81 SL:108
15:25:20: E13E  68        PLA                            A:00 X:F8 Y:00 P:27 SP:F6 CYC: 93 SL:108
15:25:20: E13F  60        RTS                            A:7B X:F8 Y:00 P:25 SP:F7 CYC:105 SL:108
15:25:20: E121  CA        DEX                            A:7B X:F8 Y:00 P:25 SP:F9 CYC:123 SL:108
15:25:20: E122  D0 FA     BNE $E11E                      A:7B X:F7 Y:00 P:A5 SP:F9 CYC:129 SL:108
15:25:20: E11E  20 25 E1  JSR $E125                      A:7B X:F7 Y:00 P:A5 SP:F9 CYC:138 SL:108
15:25:20: E125  48        PHA                            A:7B X:F7 Y:00 P:A5 SP:F7 CYC:156 SL:108
15:25:20: E126  A9 00     LDA #$00                       A:7B X:F7 Y:00 P:A5 SP:F6 CYC:165 SL:108
15:25:20: E128  8D 06 20  STA $2006 = 00                 A:00 X:F7 Y:00 P:27 SP:F6 CYC:171 SL:108
15:25:20: E12B  8D 06 20  STA $2006 = 00                 A:00 X:F7 Y:00 P:27 SP:F6 CYC:183 SL:108
15:25:20: E12E  A9 10     LDA #$10                       A:00 X:F7 Y:00 P:27 SP:F6 CYC:195 SL:108
15:25:20: E130  8D 06 20  STA $2006 = 00                 A:10 X:F7 Y:00 P:25 SP:F6 CYC:201 SL:108
15:25:20: E133  8D 06 20  STA $2006 = 00                 A:10 X:F7 Y:00 P:25 SP:F6 CYC:213 SL:108
15:25:20: E136  A9 00     LDA #$00                       A:10 X:F7 Y:00 P:25 SP:F6 CYC:225 SL:108
15:25:20: E138  8D 06 20  STA $2006 = 00                 A:00 X:F7 Y:00 P:27 SP:F6 CYC:231 SL:108
15:25:20: E13B  8D 06 20  STA $2006 = 00                 A:00 X:F7 Y:00 P:27 SP:F6 CYC:243 SL:108
15:25:20: E13E  68        PLA                            A:00 X:F7 Y:00 P:27 SP:F6 CYC:255 SL:108
15:25:20: E13F  60        RTS                            A:7B X:F7 Y:00 P:25 SP:F7 CYC:267 SL:108
15:25:20: E121  CA        DEX                            A:7B X:F7 Y:00 P:25 SP:F9 CYC:285 SL:108
15:25:20: E122  D0 FA     BNE $E11E                      A:7B X:F6 Y:00 P:A5 SP:F9 CYC:291 SL:108
15:25:20: E11E  20 25 E1  JSR $E125                      A:7B X:F6 Y:00 P:A5 SP:F9 CYC:300 SL:108
15:25:20: E125  48        PHA                            A:7B X:F6 Y:00 P:A5 SP:F7 CYC:318 SL:108
15:25:20: E126  A9 00     LDA #$00                       A:7B X:F6 Y:00 P:A5 SP:F6 CYC:327 SL:108
15:25:20: E128  8D 06 20  STA $2006 = 00                 A:00 X:F6 Y:00 P:27 SP:F6 CYC:333 SL:108
15:25:20: E12B  8D 06 20  STA $2006 = 00                 A:00 X:F6 Y:00 P:27 SP:F6 CYC:  4 SL:109
15:25:20: E12E  A9 10     LDA #$10                       A:00 X:F6 Y:00 P:27 SP:F6 CYC: 16 SL:109
15:25:20: E130  8D 06 20  STA $2006 = 00                 A:10 X:F6 Y:00 P:25 SP:F6 CYC: 22 SL:109
15:25:20: E133  8D 06 20  STA $2006 = 00                 A:10 X:F6 Y:00 P:25 SP:F6 CYC: 34 SL:109
15:25:20: E136  A9 00     LDA #$00                       A:10 X:F6 Y:00 P:25 SP:F6 CYC: 46 SL:109
15:25:20: E138  8D 06 20  STA $2006 = 00                 A:00 X:F6 Y:00 P:27 SP:F6 CYC: 52 SL:109
15:25:20: E13B  8D 06 20  STA $2006 = 00                 A:00 X:F6 Y:00 P:27 SP:F6 CYC: 64 SL:109
15:25:20: E13E  68        PLA                            A:00 X:F6 Y:00 P:27 SP:F6 CYC: 76 SL:109
15:25:20: E13F  60        RTS                            A:7B X:F6 Y:00 P:25 SP:F7 CYC: 88 SL:109
15:25:20: E121  CA        DEX                            A:7B X:F6 Y:00 P:25 SP:F9 CYC:106 SL:109
15:25:20: E122  D0 FA     BNE $E11E                      A:7B X:F5 Y:00 P:A5 SP:F9 CYC:112 SL:109
15:25:20: E11E  20 25 E1  JSR $E125                      A:7B X:F5 Y:00 P:A5 SP:F9 CYC:121 SL:109
15:25:20: E125  48        PHA                            A:7B X:F5 Y:00 P:A5 SP:F7 CYC:139 SL:109
15:25:20: E126  A9 00     LDA #$00                       A:7B X:F5 Y:00 P:A5 SP:F6 CYC:148 SL:109
15:25:20: E128  8D 06 20  STA $2006 = 00                 A:00 X:F5 Y:00 P:27 SP:F6 CYC:154 SL:109
15:25:20: E12B  8D 06 20  STA $2006 = 00                 A:00 X:F5 Y:00 P:27 SP:F6 CYC:166 SL:109
15:25:20: E12E  A9 10     LDA #$10                       A:00 X:F5 Y:00 P:27 SP:F6 CYC:178 SL:109
15:25:20: E130  8D 06 20  STA $2006 = 00                 A:10 X:F5 Y:00 P:25 SP:F6 CYC:184 SL:109
15:25:20: E133  8D 06 20  STA $2006 = 00                 A:10 X:F5 Y:00 P:25 SP:F6 CYC:196 SL:109
15:25:20: E136  A9 00     LDA #$00                       A:10 X:F5 Y:00 P:25 SP:F6 CYC:208 SL:109
15:25:20: E138  8D 06 20  STA $2006 = 00                 A:00 X:F5 Y:00 P:27 SP:F6 CYC:214 SL:109
15:25:20: E13B  8D 06 20  STA $2006 = 00                 A:00 X:F5 Y:00 P:27 SP:F6 CYC:226 SL:109
15:25:20: E13E  68        PLA                            A:00 X:F5 Y:00 P:27 SP:F6 CYC:238 SL:109
15:25:20: E13F  60        RTS                            A:7B X:F5 Y:00 P:25 SP:F7 CYC:250 SL:109
15:25:20: E121  CA        DEX                            A:7B X:F5 Y:00 P:25 SP:F9 CYC:268 SL:109
15:25:20: E122  D0 FA     BNE $E11E                      A:7B X:F4 Y:00 P:A5 SP:F9 CYC:274 SL:109
15:25:20: E11E  20 25 E1  JSR $E125                      A:7B X:F4 Y:00 P:A5 SP:F9 CYC:283 SL:109
15:25:20: E125  48        PHA                            A:7B X:F4 Y:00 P:A5 SP:F7 CYC:301 SL:109
15:25:20: E126  A9 00     LDA #$00                       A:7B X:F4 Y:00 P:A5 SP:F6 CYC:310 SL:109
15:25:20: E128  8D 06 20  STA $2006 = 00                 A:00 X:F4 Y:00 P:27 SP:F6 CYC:316 SL:109
15:25:20: E12B  8D 06 20  STA $2006 = 00                 A:00 X:F4 Y:00 P:27 SP:F6 CYC:328 SL:109
15:25:20: E12E  A9 10     LDA #$10                       A:00 X:F4 Y:00 P:27 SP:F6 CYC:340 SL:109
15:25:20: E130  8D 06 20  STA $2006 = 00                 A:10 X:F4 Y:00 P:25 SP:F6 CYC:  5 SL:110
15:25:20: E133  8D 06 20  STA $2006 = 00                 A:10 X:F4 Y:00 P:25 SP:F6 CYC: 17 SL:110
15:25:20: E136  A9 00     LDA #$00                       A:10 X:F4 Y:00 P:25 SP:F6 CYC: 29 SL:110
15:25:20: E138  8D 06 20  STA $2006 = 00                 A:00 X:F4 Y:00 P:27 SP:F6 CYC: 35 SL:110
15:25:20: E13B  8D 06 20  STA $2006 = 00                 A:00 X:F4 Y:00 P:27 SP:F6 CYC: 47 SL:110
15:25:20: E13E  68        PLA                            A:00 X:F4 Y:00 P:27 SP:F6 CYC: 59 SL:110
15:25:20: E13F  60        RTS                            A:7B X:F4 Y:00 P:25 SP:F7 CYC: 71 SL:110
15:25:20: E121  CA        DEX                            A:7B X:F4 Y:00 P:25 SP:F9 CYC: 89 SL:110
15:25:20: E122  D0 FA     BNE $E11E                      A:7B X:F3 Y:00 P:A5 SP:F9 CYC: 95 SL:110
15:25:20: E11E  20 25 E1  JSR $E125                      A:7B X:F3 Y:00 P:A5 SP:F9 CYC:104 SL:110
15:25:20: E125  48        PHA                            A:7B X:F3 Y:00 P:A5 SP:F7 CYC:122 SL:110
15:25:20: E126  A9 00     LDA #$00                       A:7B X:F3 Y:00 P:A5 SP:F6 CYC:131 SL:110
15:25:20: E128  8D 06 20  STA $2006 = 00                 A:00 X:F3 Y:00 P:27 SP:F6 CYC:137 SL:110
15:25:20: E12B  8D 06 20  STA $2006 = 00                 A:00 X:F3 Y:00 P:27 SP:F6 CYC:149 SL:110
15:25:20: E12E  A9 10     LDA #$10                       A:00 X:F3 Y:00 P:27 SP:F6 CYC:161 SL:110
15:25:20: E130  8D 06 20  STA $2006 = 00                 A:10 X:F3 Y:00 P:25 SP:F6 CYC:167 SL:110
15:25:20: E133  8D 06 20  STA $2006 = 00                 A:10 X:F3 Y:00 P:25 SP:F6 CYC:179 SL:110
15:25:20: E136  A9 00     LDA #$00                       A:10 X:F3 Y:00 P:25 SP:F6 CYC:191 SL:110
15:25:20: E138  8D 06 20  STA $2006 = 00                 A:00 X:F3 Y:00 P:27 SP:F6 CYC:197 SL:110
15:25:20: E13B  8D 06 20  STA $2006 = 00                 A:00 X:F3 Y:00 P:27 SP:F6 CYC:209 SL:110
15:25:20: E13E  68        PLA                            A:00 X:F3 Y:00 P:27 SP:F6 CYC:221 SL:110
15:25:20: E13F  60        RTS                            A:7B X:F3 Y:00 P:25 SP:F7 CYC:233 SL:110
15:25:20: E121  CA        DEX                            A:7B X:F3 Y:00 P:25 SP:F9 CYC:251 SL:110
15:25:20: E122  D0 FA     BNE $E11E                      A:7B X:F2 Y:00 P:A5 SP:F9 CYC:257 SL:110
15:25:20: E11E  20 25 E1  JSR $E125                      A:7B X:F2 Y:00 P:A5 SP:F9 CYC:266 SL:110
15:25:20: E125  48        PHA                            A:7B X:F2 Y:00 P:A5 SP:F7 CYC:284 SL:110
15:25:20: E126  A9 00     LDA #$00                       A:7B X:F2 Y:00 P:A5 SP:F6 CYC:293 SL:110
15:25:20: E128  8D 06 20  STA $2006 = 00                 A:00 X:F2 Y:00 P:27 SP:F6 CYC:299 SL:110
15:25:20: E12B  8D 06 20  STA $2006 = 00                 A:00 X:F2 Y:00 P:27 SP:F6 CYC:311 SL:110
15:25:20: E12E  A9 10     LDA #$10                       A:00 X:F2 Y:00 P:27 SP:F6 CYC:323 SL:110
15:25:20: E130  8D 06 20  STA $2006 = 00                 A:10 X:F2 Y:00 P:25 SP:F6 CYC:329 SL:110
15:25:20: E133  8D 06 20  STA $2006 = 00                 A:10 X:F2 Y:00 P:25 SP:F6 CYC:  0 SL:111
15:25:20: E136  A9 00     LDA #$00                       A:10 X:F2 Y:00 P:25 SP:F6 CYC: 12 SL:111
15:25:20: E138  8D 06 20  STA $2006 = 00                 A:00 X:F2 Y:00 P:27 SP:F6 CYC: 18 SL:111
15:25:20: E13B  8D 06 20  STA $2006 = 00                 A:00 X:F2 Y:00 P:27 SP:F6 CYC: 30 SL:111
15:25:20: E13E  68        PLA                            A:00 X:F2 Y:00 P:27 SP:F6 CYC: 42 SL:111
15:25:20: E13F  60        RTS                            A:7B X:F2 Y:00 P:25 SP:F7 CYC: 54 SL:111
15:25:20: E121  CA        DEX                            A:7B X:F2 Y:00 P:25 SP:F9 CYC: 72 SL:111
15:25:20: E122  D0 FA     BNE $E11E                      A:7B X:F1 Y:00 P:A5 SP:F9 CYC: 78 SL:111
15:25:20: E11E  20 25 E1  JSR $E125                      A:7B X:F1 Y:00 P:A5 SP:F9 CYC: 87 SL:111
15:25:20: E125  48        PHA                            A:7B X:F1 Y:00 P:A5 SP:F7 CYC:105 SL:111
15:25:20: E126  A9 00     LDA #$00                       A:7B X:F1 Y:00 P:A5 SP:F6 CYC:114 SL:111
15:25:20: E128  8D 06 20  STA $2006 = 00                 A:00 X:F1 Y:00 P:27 SP:F6 CYC:120 SL:111
15:25:20: E12B  8D 06 20  STA $2006 = 00                 A:00 X:F1 Y:00 P:27 SP:F6 CYC:132 SL:111
15:25:20: E12E  A9 10     LDA #$10                       A:00 X:F1 Y:00 P:27 SP:F6 CYC:144 SL:111
15:25:20: E130  8D 06 20  STA $2006 = 00                 A:10 X:F1 Y:00 P:25 SP:F6 CYC:150 SL:111
15:25:20: E133  8D 06 20  STA $2006 = 00                 A:10 X:F1 Y:00 P:25 SP:F6 CYC:162 SL:111
15:25:20: E136  A9 00     LDA #$00                       A:10 X:F1 Y:00 P:25 SP:F6 CYC:174 SL:111
15:25:20: E138  8D 06 20  STA $2006 = 00                 A:00 X:F1 Y:00 P:27 SP:F6 CYC:180 SL:111
15:25:20: E13B  8D 06 20  STA $2006 = 00                 A:00 X:F1 Y:00 P:27 SP:F6 CYC:192 SL:111
15:25:20: E13E  68        PLA                            A:00 X:F1 Y:00 P:27 SP:F6 CYC:204 SL:111
15:25:20: E13F  60        RTS                            A:7B X:F1 Y:00 P:25 SP:F7 CYC:216 SL:111
15:25:20: E121  CA        DEX                            A:7B X:F1 Y:00 P:25 SP:F9 CYC:234 SL:111
15:25:20: E122  D0 FA     BNE $E11E                      A:7B X:F0 Y:00 P:A5 SP:F9 CYC:240 SL:111
15:25:20: E11E  20 25 E1  JSR $E125                      A:7B X:F0 Y:00 P:A5 SP:F9 CYC:249 SL:111
15:25:20: E125  48        PHA                            A:7B X:F0 Y:00 P:A5 SP:F7 CYC:267 SL:111
15:25:20: E126  A9 00     LDA #$00                       A:7B X:F0 Y:00 P:A5 SP:F6 CYC:276 SL:111
15:25:20: E128  8D 06 20  STA $2006 = 00                 A:00 X:F0 Y:00 P:27 SP:F6 CYC:282 SL:111
15:25:20: E12B  8D 06 20  STA $2006 = 00                 A:00 X:F0 Y:00 P:27 SP:F6 CYC:294 SL:111
15:25:20: E12E  A9 10     LDA #$10                       A:00 X:F0 Y:00 P:27 SP:F6 CYC:306 SL:111
15:25:20: E130  8D 06 20  STA $2006 = 00                 A:10 X:F0 Y:00 P:25 SP:F6 CYC:312 SL:111
15:25:20: E133  8D 06 20  STA $2006 = 00                 A:10 X:F0 Y:00 P:25 SP:F6 CYC:324 SL:111
15:25:20: E136  A9 00     LDA #$00                       A:10 X:F0 Y:00 P:25 SP:F6 CYC:336 SL:111
15:25:20: E138  8D 06 20  STA $2006 = 00                 A:00 X:F0 Y:00 P:27 SP:F6 CYC:  1 SL:112
15:25:20: E13B  8D 06 20  STA $2006 = 00                 A:00 X:F0 Y:00 P:27 SP:F6 CYC: 13 SL:112
15:25:20: E13E  68        PLA                            A:00 X:F0 Y:00 P:27 SP:F6 CYC: 25 SL:112
15:25:20: E13F  60        RTS                            A:7B X:F0 Y:00 P:25 SP:F7 CYC: 37 SL:112
15:25:20: E121  CA        DEX                            A:7B X:F0 Y:00 P:25 SP:F9 CYC: 55 SL:112
15:25:20: E122  D0 FA     BNE $E11E                      A:7B X:EF Y:00 P:A5 SP:F9 CYC: 61 SL:112
15:25:20: E11E  20 25 E1  JSR $E125                      A:7B X:EF Y:00 P:A5 SP:F9 CYC: 70 SL:112
15:25:20: E125  48        PHA                            A:7B X:EF Y:00 P:A5 SP:F7 CYC: 88 SL:112
15:25:20: E126  A9 00     LDA #$00                       A:7B X:EF Y:00 P:A5 SP:F6 CYC: 97 SL:112
15:25:20: E128  8D 06 20  STA $2006 = 00                 A:00 X:EF Y:00 P:27 SP:F6 CYC:103 SL:112
15:25:20: E12B  8D 06 20  STA $2006 = 00                 A:00 X:EF Y:00 P:27 SP:F6 CYC:115 SL:112
15:25:20: E12E  A9 10     LDA #$10                       A:00 X:EF Y:00 P:27 SP:F6 CYC:127 SL:112
15:25:20: E130  8D 06 20  STA $2006 = 00                 A:10 X:EF Y:00 P:25 SP:F6 CYC:133 SL:112
15:25:20: E133  8D 06 20  STA $2006 = 00                 A:10 X:EF Y:00 P:25 SP:F6 CYC:145 SL:112
15:25:20: E136  A9 00     LDA #$00                       A:10 X:EF Y:00 P:25 SP:F6 CYC:157 SL:112
15:25:20: E138  8D 06 20  STA $2006 = 00                 A:00 X:EF Y:00 P:27 SP:F6 CYC:163 SL:112
15:25:20: E13B  8D 06 20  STA $2006 = 00                 A:00 X:EF Y:00 P:27 SP:F6 CYC:175 SL:112
15:25:20: E13E  68        PLA                            A:00 X:EF Y:00 P:27 SP:F6 CYC:187 SL:112
15:25:20: E13F  60        RTS                            A:7B X:EF Y:00 P:25 SP:F7 CYC:199 SL:112
15:25:20: E121  CA        DEX                            A:7B X:EF Y:00 P:25 SP:F9 CYC:217 SL:112
15:25:20: E122  D0 FA     BNE $E11E                      A:7B X:EE Y:00 P:A5 SP:F9 CYC:223 SL:112
15:25:20: E11E  20 25 E1  JSR $E125                      A:7B X:EE Y:00 P:A5 SP:F9 CYC:232 SL:112
15:25:20: E125  48        PHA                            A:7B X:EE Y:00 P:A5 SP:F7 CYC:250 SL:112
15:25:20: E126  A9 00     LDA #$00                       A:7B X:EE Y:00 P:A5 SP:F6 CYC:259 SL:112
15:25:20: E128  8D 06 20  STA $2006 = 00                 A:00 X:EE Y:00 P:27 SP:F6 CYC:265 SL:112
15:25:20: E12B  8D 06 20  STA $2006 = 00                 A:00 X:EE Y:00 P:27 SP:F6 CYC:277 SL:112
15:25:20: E12E  A9 10     LDA #$10                       A:00 X:EE Y:00 P:27 SP:F6 CYC:289 SL:112
15:25:20: E130  8D 06 20  STA $2006 = 00                 A:10 X:EE Y:00 P:25 SP:F6 CYC:295 SL:112
15:25:20: E133  8D 06 20  STA $2006 = 00                 A:10 X:EE Y:00 P:25 SP:F6 CYC:307 SL:112
15:25:20: E136  A9 00     LDA #$00                       A:10 X:EE Y:00 P:25 SP:F6 CYC:319 SL:112
15:25:20: E138  8D 06 20  STA $2006 = 00                 A:00 X:EE Y:00 P:27 SP:F6 CYC:325 SL:112
15:25:20: E13B  8D 06 20  STA $2006 = 00                 A:00 X:EE Y:00 P:27 SP:F6 CYC:337 SL:112
15:25:20: E13E  68        PLA                            A:00 X:EE Y:00 P:27 SP:F6 CYC:  8 SL:113
15:25:20: E13F  60        RTS                            A:7B X:EE Y:00 P:25 SP:F7 CYC: 20 SL:113
15:25:20: E121  CA        DEX                            A:7B X:EE Y:00 P:25 SP:F9 CYC: 38 SL:113
15:25:20: E122  D0 FA     BNE $E11E                      A:7B X:ED Y:00 P:A5 SP:F9 CYC: 44 SL:113
15:25:20: E11E  20 25 E1  JSR $E125                      A:7B X:ED Y:00 P:A5 SP:F9 CYC: 53 SL:113
15:25:20: E125  48        PHA                            A:7B X:ED Y:00 P:A5 SP:F7 CYC: 71 SL:113
15:25:20: E126  A9 00     LDA #$00                       A:7B X:ED Y:00 P:A5 SP:F6 CYC: 80 SL:113
15:25:20: E128  8D 06 20  STA $2006 = 00                 A:00 X:ED Y:00 P:27 SP:F6 CYC: 86 SL:113
15:25:20: E12B  8D 06 20  STA $2006 = 00                 A:00 X:ED Y:00 P:27 SP:F6 CYC: 98 SL:113
15:25:20: E12E  A9 10     LDA #$10                       A:00 X:ED Y:00 P:27 SP:F6 CYC:110 SL:113
15:25:20: E130  8D 06 20  STA $2006 = 00                 A:10 X:ED Y:00 P:25 SP:F6 CYC:116 SL:113
15:25:20: E133  8D 06 20  STA $2006 = 00                 A:10 X:ED Y:00 P:25 SP:F6 CYC:128 SL:113
15:25:20: E136  A9 00     LDA #$00                       A:10 X:ED Y:00 P:25 SP:F6 CYC:140 SL:113
15:25:20: E138  8D 06 20  STA $2006 = 00                 A:00 X:ED Y:00 P:27 SP:F6 CYC:146 SL:113
15:25:20: E13B  8D 06 20  STA $2006 = 00                 A:00 X:ED Y:00 P:27 SP:F6 CYC:158 SL:113
15:25:20: E13E  68        PLA                            A:00 X:ED Y:00 P:27 SP:F6 CYC:170 SL:113
15:25:20: E13F  60        RTS                            A:7B X:ED Y:00 P:25 SP:F7 CYC:182 SL:113
15:25:20: E121  CA        DEX                            A:7B X:ED Y:00 P:25 SP:F9 CYC:200 SL:113
15:25:20: E122  D0 FA     BNE $E11E                      A:7B X:EC Y:00 P:A5 SP:F9 CYC:206 SL:113
15:25:20: E11E  20 25 E1  JSR $E125                      A:7B X:EC Y:00 P:A5 SP:F9 CYC:215 SL:113
15:25:20: E125  48        PHA                            A:7B X:EC Y:00 P:A5 SP:F7 CYC:233 SL:113
15:25:20: E126  A9 00     LDA #$00                       A:7B X:EC Y:00 P:A5 SP:F6 CYC:242 SL:113
15:25:20: E128  8D 06 20  STA $2006 = 00                 A:00 X:EC Y:00 P:27 SP:F6 CYC:248 SL:113
15:25:20: E12B  8D 06 20  STA $2006 = 00                 A:00 X:EC Y:00 P:27 SP:F6 CYC:260 SL:113
15:25:20: E12E  A9 10     LDA #$10                       A:00 X:EC Y:00 P:27 SP:F6 CYC:272 SL:113
15:25:20: E130  8D 06 20  STA $2006 = 00                 A:10 X:EC Y:00 P:25 SP:F6 CYC:278 SL:113
15:25:20: E133  8D 06 20  STA $2006 = 00                 A:10 X:EC Y:00 P:25 SP:F6 CYC:290 SL:113
15:25:20: E136  A9 00     LDA #$00                       A:10 X:EC Y:00 P:25 SP:F6 CYC:302 SL:113
15:25:20: E138  8D 06 20  STA $2006 = 00                 A:00 X:EC Y:00 P:27 SP:F6 CYC:308 SL:113
15:25:20: E13B  8D 06 20  STA $2006 = 00                 A:00 X:EC Y:00 P:27 SP:F6 CYC:320 SL:113
15:25:20: E13E  68        PLA                            A:00 X:EC Y:00 P:27 SP:F6 CYC:332 SL:113
15:25:20: E13F  60        RTS                            A:7B X:EC Y:00 P:25 SP:F7 CYC:  3 SL:114
15:25:20: E121  CA        DEX                            A:7B X:EC Y:00 P:25 SP:F9 CYC: 21 SL:114
15:25:20: E122  D0 FA     BNE $E11E                      A:7B X:EB Y:00 P:A5 SP:F9 CYC: 27 SL:114
15:25:20: E11E  20 25 E1  JSR $E125                      A:7B X:EB Y:00 P:A5 SP:F9 CYC: 36 SL:114
15:25:20: E125  48        PHA                            A:7B X:EB Y:00 P:A5 SP:F7 CYC: 54 SL:114
15:25:20: E126  A9 00     LDA #$00                       A:7B X:EB Y:00 P:A5 SP:F6 CYC: 63 SL:114
15:25:20: E128  8D 06 20  STA $2006 = 00                 A:00 X:EB Y:00 P:27 SP:F6 CYC: 69 SL:114
15:25:20: E12B  8D 06 20  STA $2006 = 00                 A:00 X:EB Y:00 P:27 SP:F6 CYC: 81 SL:114
15:25:20: E12E  A9 10     LDA #$10                       A:00 X:EB Y:00 P:27 SP:F6 CYC: 93 SL:114
15:25:20: E130  8D 06 20  STA $2006 = 00                 A:10 X:EB Y:00 P:25 SP:F6 CYC: 99 SL:114
15:25:20: E133  8D 06 20  STA $2006 = 00                 A:10 X:EB Y:00 P:25 SP:F6 CYC:111 SL:114
15:25:20: E136  A9 00     LDA #$00                       A:10 X:EB Y:00 P:25 SP:F6 CYC:123 SL:114
15:25:20: E138  8D 06 20  STA $2006 = 00                 A:00 X:EB Y:00 P:27 SP:F6 CYC:129 SL:114
15:25:20: E13B  8D 06 20  STA $2006 = 00                 A:00 X:EB Y:00 P:27 SP:F6 CYC:141 SL:114
15:25:20: E13E  68        PLA                            A:00 X:EB Y:00 P:27 SP:F6 CYC:153 SL:114
15:25:20: E13F  60        RTS                            A:7B X:EB Y:00 P:25 SP:F7 CYC:165 SL:114
15:25:20: E121  CA        DEX                            A:7B X:EB Y:00 P:25 SP:F9 CYC:183 SL:114
15:25:20: E122  D0 FA     BNE $E11E                      A:7B X:EA Y:00 P:A5 SP:F9 CYC:189 SL:114
15:25:20: E11E  20 25 E1  JSR $E125                      A:7B X:EA Y:00 P:A5 SP:F9 CYC:198 SL:114
15:25:20: E125  48        PHA                            A:7B X:EA Y:00 P:A5 SP:F7 CYC:216 SL:114
15:25:20: E126  A9 00     LDA #$00                       A:7B X:EA Y:00 P:A5 SP:F6 CYC:225 SL:114
15:25:20: E128  8D 06 20  STA $2006 = 00                 A:00 X:EA Y:00 P:27 SP:F6 CYC:231 SL:114
15:25:20: E12B  8D 06 20  STA $2006 = 00                 A:00 X:EA Y:00 P:27 SP:F6 CYC:243 SL:114
15:25:20: E12E  A9 10     LDA #$10                       A:00 X:EA Y:00 P:27 SP:F6 CYC:255 SL:114
15:25:20: E130  8D 06 20  STA $2006 = 00                 A:10 X:EA Y:00 P:25 SP:F6 CYC:261 SL:114
15:25:20: E133  8D 06 20  STA $2006 = 00                 A:10 X:EA Y:00 P:25 SP:F6 CYC:273 SL:114
15:25:20: E136  A9 00     LDA #$00                       A:10 X:EA Y:00 P:25 SP:F6 CYC:285 SL:114
15:25:20: E138  8D 06 20  STA $2006 = 00                 A:00 X:EA Y:00 P:27 SP:F6 CYC:291 SL:114
15:25:20: E13B  8D 06 20  STA $2006 = 00                 A:00 X:EA Y:00 P:27 SP:F6 CYC:303 SL:114
15:25:20: E13E  68        PLA                            A:00 X:EA Y:00 P:27 SP:F6 CYC:315 SL:114
15:25:20: E13F  60        RTS                            A:7B X:EA Y:00 P:25 SP:F7 CYC:327 SL:114
15:25:20: E121  CA        DEX                            A:7B X:EA Y:00 P:25 SP:F9 CYC:  4 SL:115
15:25:20: E122  D0 FA     BNE $E11E                      A:7B X:E9 Y:00 P:A5 SP:F9 CYC: 10 SL:115
15:25:20: E11E  20 25 E1  JSR $E125                      A:7B X:E9 Y:00 P:A5 SP:F9 CYC: 19 SL:115
15:25:20: E125  48        PHA                            A:7B X:E9 Y:00 P:A5 SP:F7 CYC: 37 SL:115
15:25:20: E126  A9 00     LDA #$00                       A:7B X:E9 Y:00 P:A5 SP:F6 CYC: 46 SL:115
15:25:20: E128  8D 06 20  STA $2006 = 00                 A:00 X:E9 Y:00 P:27 SP:F6 CYC: 52 SL:115
15:25:20: E12B  8D 06 20  STA $2006 = 00                 A:00 X:E9 Y:00 P:27 SP:F6 CYC: 64 SL:115
15:25:20: E12E  A9 10     LDA #$10                       A:00 X:E9 Y:00 P:27 SP:F6 CYC: 76 SL:115
15:25:20: E130  8D 06 20  STA $2006 = 00                 A:10 X:E9 Y:00 P:25 SP:F6 CYC: 82 SL:115
15:25:20: E133  8D 06 20  STA $2006 = 00                 A:10 X:E9 Y:00 P:25 SP:F6 CYC: 94 SL:115
15:25:20: E136  A9 00     LDA #$00                       A:10 X:E9 Y:00 P:25 SP:F6 CYC:106 SL:115
15:25:20: E138  8D 06 20  STA $2006 = 00                 A:00 X:E9 Y:00 P:27 SP:F6 CYC:112 SL:115
15:25:20: E13B  8D 06 20  STA $2006 = 00                 A:00 X:E9 Y:00 P:27 SP:F6 CYC:124 SL:115
15:25:20: E13E  68        PLA                            A:00 X:E9 Y:00 P:27 SP:F6 CYC:136 SL:115
15:25:20: E13F  60        RTS                            A:7B X:E9 Y:00 P:25 SP:F7 CYC:148 SL:115
15:25:20: E121  CA        DEX                            A:7B X:E9 Y:00 P:25 SP:F9 CYC:166 SL:115
15:25:20: E122  D0 FA     BNE $E11E                      A:7B X:E8 Y:00 P:A5 SP:F9 CYC:172 SL:115
15:25:20: E11E  20 25 E1  JSR $E125                      A:7B X:E8 Y:00 P:A5 SP:F9 CYC:181 SL:115
15:25:20: E125  48        PHA                            A:7B X:E8 Y:00 P:A5 SP:F7 CYC:199 SL:115
15:25:20: E126  A9 00     LDA #$00                       A:7B X:E8 Y:00 P:A5 SP:F6 CYC:208 SL:115
15:25:20: E128  8D 06 20  STA $2006 = 00                 A:00 X:E8 Y:00 P:27 SP:F6 CYC:214 SL:115
15:25:20: E12B  8D 06 20  STA $2006 = 00                 A:00 X:E8 Y:00 P:27 SP:F6 CYC:226 SL:115
15:25:20: E12E  A9 10     LDA #$10                       A:00 X:E8 Y:00 P:27 SP:F6 CYC:238 SL:115
15:25:20: E130  8D 06 20  STA $2006 = 00                 A:10 X:E8 Y:00 P:25 SP:F6 CYC:244 SL:115
15:25:20: E133  8D 06 20  STA $2006 = 00                 A:10 X:E8 Y:00 P:25 SP:F6 CYC:256 SL:115
15:25:20: E136  A9 00     LDA #$00                       A:10 X:E8 Y:00 P:25 SP:F6 CYC:268 SL:115
15:25:20: E138  8D 06 20  STA $2006 = 00                 A:00 X:E8 Y:00 P:27 SP:F6 CYC:274 SL:115
15:25:20: E13B  8D 06 20  STA $2006 = 00                 A:00 X:E8 Y:00 P:27 SP:F6 CYC:286 SL:115
15:25:20: E13E  68        PLA                            A:00 X:E8 Y:00 P:27 SP:F6 CYC:298 SL:115
15:25:20: E13F  60        RTS                            A:7B X:E8 Y:00 P:25 SP:F7 CYC:310 SL:115
15:25:20: E121  CA        DEX                            A:7B X:E8 Y:00 P:25 SP:F9 CYC:328 SL:115
15:25:20: E122  D0 FA     BNE $E11E                      A:7B X:E7 Y:00 P:A5 SP:F9 CYC:334 SL:115
15:25:20: E11E  20 25 E1  JSR $E125                      A:7B X:E7 Y:00 P:A5 SP:F9 CYC:  2 SL:116
15:25:20: E125  48        PHA                            A:7B X:E7 Y:00 P:A5 SP:F7 CYC: 20 SL:116
15:25:20: E126  A9 00     LDA #$00                       A:7B X:E7 Y:00 P:A5 SP:F6 CYC: 29 SL:116
15:25:20: E128  8D 06 20  STA $2006 = 00                 A:00 X:E7 Y:00 P:27 SP:F6 CYC: 35 SL:116
15:25:20: E12B  8D 06 20  STA $2006 = 00                 A:00 X:E7 Y:00 P:27 SP:F6 CYC: 47 SL:116
15:25:20: E12E  A9 10     LDA #$10                       A:00 X:E7 Y:00 P:27 SP:F6 CYC: 59 SL:116
15:25:20: E130  8D 06 20  STA $2006 = 00                 A:10 X:E7 Y:00 P:25 SP:F6 CYC: 65 SL:116
15:25:20: E133  8D 06 20  STA $2006 = 00                 A:10 X:E7 Y:00 P:25 SP:F6 CYC: 77 SL:116
15:25:20: E136  A9 00     LDA #$00                       A:10 X:E7 Y:00 P:25 SP:F6 CYC: 89 SL:116
15:25:20: E138  8D 06 20  STA $2006 = 00                 A:00 X:E7 Y:00 P:27 SP:F6 CYC: 95 SL:116
15:25:20: E13B  8D 06 20  STA $2006 = 00                 A:00 X:E7 Y:00 P:27 SP:F6 CYC:107 SL:116
15:25:20: E13E  68        PLA                            A:00 X:E7 Y:00 P:27 SP:F6 CYC:119 SL:116
15:25:20: E13F  60        RTS                            A:7B X:E7 Y:00 P:25 SP:F7 CYC:131 SL:116
15:25:20: E121  CA        DEX                            A:7B X:E7 Y:00 P:25 SP:F9 CYC:149 SL:116
15:25:20: E122  D0 FA     BNE $E11E                      A:7B X:E6 Y:00 P:A5 SP:F9 CYC:155 SL:116
15:25:20: E11E  20 25 E1  JSR $E125                      A:7B X:E6 Y:00 P:A5 SP:F9 CYC:164 SL:116
15:25:20: E125  48        PHA                            A:7B X:E6 Y:00 P:A5 SP:F7 CYC:182 SL:116
15:25:20: E126  A9 00     LDA #$00                       A:7B X:E6 Y:00 P:A5 SP:F6 CYC:191 SL:116
15:25:20: E128  8D 06 20  STA $2006 = 00                 A:00 X:E6 Y:00 P:27 SP:F6 CYC:197 SL:116
15:25:20: E12B  8D 06 20  STA $2006 = 00                 A:00 X:E6 Y:00 P:27 SP:F6 CYC:209 SL:116
15:25:20: E12E  A9 10     LDA #$10                       A:00 X:E6 Y:00 P:27 SP:F6 CYC:221 SL:116
15:25:20: E130  8D 06 20  STA $2006 = 00                 A:10 X:E6 Y:00 P:25 SP:F6 CYC:227 SL:116
15:25:20: E133  8D 06 20  STA $2006 = 00                 A:10 X:E6 Y:00 P:25 SP:F6 CYC:239 SL:116
15:25:20: E136  A9 00     LDA #$00                       A:10 X:E6 Y:00 P:25 SP:F6 CYC:251 SL:116
15:25:20: E138  8D 06 20  STA $2006 = 00                 A:00 X:E6 Y:00 P:27 SP:F6 CYC:257 SL:116
15:25:20: E13B  8D 06 20  STA $2006 = 00                 A:00 X:E6 Y:00 P:27 SP:F6 CYC:269 SL:116
15:25:20: E13E  68        PLA                            A:00 X:E6 Y:00 P:27 SP:F6 CYC:281 SL:116
15:25:20: E13F  60        RTS                            A:7B X:E6 Y:00 P:25 SP:F7 CYC:293 SL:116
15:25:20: E121  CA        DEX                            A:7B X:E6 Y:00 P:25 SP:F9 CYC:311 SL:116
15:25:20: E122  D0 FA     BNE $E11E                      A:7B X:E5 Y:00 P:A5 SP:F9 CYC:317 SL:116
15:25:20: E11E  20 25 E1  JSR $E125                      A:7B X:E5 Y:00 P:A5 SP:F9 CYC:326 SL:116
15:25:20: E125  48        PHA                            A:7B X:E5 Y:00 P:A5 SP:F7 CYC:  3 SL:117
15:25:20: E126  A9 00     LDA #$00                       A:7B X:E5 Y:00 P:A5 SP:F6 CYC: 12 SL:117
15:25:20: E128  8D 06 20  STA $2006 = 00                 A:00 X:E5 Y:00 P:27 SP:F6 CYC: 18 SL:117
15:25:20: E12B  8D 06 20  STA $2006 = 00                 A:00 X:E5 Y:00 P:27 SP:F6 CYC: 30 SL:117
15:25:20: E12E  A9 10     LDA #$10                       A:00 X:E5 Y:00 P:27 SP:F6 CYC: 42 SL:117
15:25:20: E130  8D 06 20  STA $2006 = 00                 A:10 X:E5 Y:00 P:25 SP:F6 CYC: 48 SL:117
15:25:20: E133  8D 06 20  STA $2006 = 00                 A:10 X:E5 Y:00 P:25 SP:F6 CYC: 60 SL:117
15:25:20: E136  A9 00     LDA #$00                       A:10 X:E5 Y:00 P:25 SP:F6 CYC: 72 SL:117
15:25:20: E138  8D 06 20  STA $2006 = 00                 A:00 X:E5 Y:00 P:27 SP:F6 CYC: 78 SL:117
15:25:20: E13B  8D 06 20  STA $2006 = 00                 A:00 X:E5 Y:00 P:27 SP:F6 CYC: 90 SL:117
15:25:20: E13E  68        PLA                            A:00 X:E5 Y:00 P:27 SP:F6 CYC:102 SL:117
15:25:20: E13F  60        RTS                            A:7B X:E5 Y:00 P:25 SP:F7 CYC:114 SL:117
15:25:20: E121  CA        DEX                            A:7B X:E5 Y:00 P:25 SP:F9 CYC:132 SL:117
15:25:20: E122  D0 FA     BNE $E11E                      A:7B X:E4 Y:00 P:A5 SP:F9 CYC:138 SL:117
15:25:20: E11E  20 25 E1  JSR $E125                      A:7B X:E4 Y:00 P:A5 SP:F9 CYC:147 SL:117
15:25:20: E125  48        PHA                            A:7B X:E4 Y:00 P:A5 SP:F7 CYC:165 SL:117
15:25:20: E126  A9 00     LDA #$00                       A:7B X:E4 Y:00 P:A5 SP:F6 CYC:174 SL:117
15:25:20: E128  8D 06 20  STA $2006 = 00                 A:00 X:E4 Y:00 P:27 SP:F6 CYC:180 SL:117
15:25:20: E12B  8D 06 20  STA $2006 = 00                 A:00 X:E4 Y:00 P:27 SP:F6 CYC:192 SL:117
15:25:20: E12E  A9 10     LDA #$10                       A:00 X:E4 Y:00 P:27 SP:F6 CYC:204 SL:117
15:25:20: E130  8D 06 20  STA $2006 = 00                 A:10 X:E4 Y:00 P:25 SP:F6 CYC:210 SL:117
15:25:20: E133  8D 06 20  STA $2006 = 00                 A:10 X:E4 Y:00 P:25 SP:F6 CYC:222 SL:117
15:25:20: E136  A9 00     LDA #$00                       A:10 X:E4 Y:00 P:25 SP:F6 CYC:234 SL:117
15:25:20: E138  8D 06 20  STA $2006 = 00                 A:00 X:E4 Y:00 P:27 SP:F6 CYC:240 SL:117
15:25:20: E13B  8D 06 20  STA $2006 = 00                 A:00 X:E4 Y:00 P:27 SP:F6 CYC:252 SL:117
15:25:20: E13E  68        PLA                            A:00 X:E4 Y:00 P:27 SP:F6 CYC:264 SL:117
15:25:20: E13F  60        RTS                            A:7B X:E4 Y:00 P:25 SP:F7 CYC:276 SL:117
15:25:20: E121  CA        DEX                            A:7B X:E4 Y:00 P:25 SP:F9 CYC:294 SL:117
15:25:20: E122  D0 FA     BNE $E11E                      A:7B X:E3 Y:00 P:A5 SP:F9 CYC:300 SL:117
15:25:20: E11E  20 25 E1  JSR $E125                      A:7B X:E3 Y:00 P:A5 SP:F9 CYC:309 SL:117
15:25:20: E125  48        PHA                            A:7B X:E3 Y:00 P:A5 SP:F7 CYC:327 SL:117
15:25:20: E126  A9 00     LDA #$00                       A:7B X:E3 Y:00 P:A5 SP:F6 CYC:336 SL:117
15:25:20: E128  8D 06 20  STA $2006 = 00                 A:00 X:E3 Y:00 P:27 SP:F6 CYC:  1 SL:118
15:25:20: E12B  8D 06 20  STA $2006 = 00                 A:00 X:E3 Y:00 P:27 SP:F6 CYC: 13 SL:118
15:25:20: E12E  A9 10     LDA #$10                       A:00 X:E3 Y:00 P:27 SP:F6 CYC: 25 SL:118
15:25:20: E130  8D 06 20  STA $2006 = 00                 A:10 X:E3 Y:00 P:25 SP:F6 CYC: 31 SL:118
15:25:20: E133  8D 06 20  STA $2006 = 00                 A:10 X:E3 Y:00 P:25 SP:F6 CYC: 43 SL:118
15:25:20: E136  A9 00     LDA #$00                       A:10 X:E3 Y:00 P:25 SP:F6 CYC: 55 SL:118
15:25:20: E138  8D 06 20  STA $2006 = 00                 A:00 X:E3 Y:00 P:27 SP:F6 CYC: 61 SL:118
15:25:20: E13B  8D 06 20  STA $2006 = 00                 A:00 X:E3 Y:00 P:27 SP:F6 CYC: 73 SL:118
15:25:20: E13E  68        PLA                            A:00 X:E3 Y:00 P:27 SP:F6 CYC: 85 SL:118
15:25:20: E13F  60        RTS                            A:7B X:E3 Y:00 P:25 SP:F7 CYC: 97 SL:118
15:25:20: E121  CA        DEX                            A:7B X:E3 Y:00 P:25 SP:F9 CYC:115 SL:118
15:25:20: E122  D0 FA     BNE $E11E                      A:7B X:E2 Y:00 P:A5 SP:F9 CYC:121 SL:118
15:25:20: E11E  20 25 E1  JSR $E125                      A:7B X:E2 Y:00 P:A5 SP:F9 CYC:130 SL:118
15:25:20: E125  48        PHA                            A:7B X:E2 Y:00 P:A5 SP:F7 CYC:148 SL:118
15:25:20: E126  A9 00     LDA #$00                       A:7B X:E2 Y:00 P:A5 SP:F6 CYC:157 SL:118
15:25:20: E128  8D 06 20  STA $2006 = 00                 A:00 X:E2 Y:00 P:27 SP:F6 CYC:163 SL:118
15:25:20: E12B  8D 06 20  STA $2006 = 00                 A:00 X:E2 Y:00 P:27 SP:F6 CYC:175 SL:118
15:25:20: E12E  A9 10     LDA #$10                       A:00 X:E2 Y:00 P:27 SP:F6 CYC:187 SL:118
15:25:20: E130  8D 06 20  STA $2006 = 00                 A:10 X:E2 Y:00 P:25 SP:F6 CYC:193 SL:118
15:25:20: E133  8D 06 20  STA $2006 = 00                 A:10 X:E2 Y:00 P:25 SP:F6 CYC:205 SL:118
15:25:20: E136  A9 00     LDA #$00                       A:10 X:E2 Y:00 P:25 SP:F6 CYC:217 SL:118
15:25:20: E138  8D 06 20  STA $2006 = 00                 A:00 X:E2 Y:00 P:27 SP:F6 CYC:223 SL:118
15:25:20: E13B  8D 06 20  STA $2006 = 00                 A:00 X:E2 Y:00 P:27 SP:F6 CYC:235 SL:118
15:25:20: E13E  68        PLA                            A:00 X:E2 Y:00 P:27 SP:F6 CYC:247 SL:118
15:25:20: E13F  60        RTS                            A:7B X:E2 Y:00 P:25 SP:F7 CYC:259 SL:118
15:25:20: E121  CA        DEX                            A:7B X:E2 Y:00 P:25 SP:F9 CYC:277 SL:118
15:25:20: E122  D0 FA     BNE $E11E                      A:7B X:E1 Y:00 P:A5 SP:F9 CYC:283 SL:118
15:25:20: E11E  20 25 E1  JSR $E125                      A:7B X:E1 Y:00 P:A5 SP:F9 CYC:292 SL:118
15:25:20: E125  48        PHA                            A:7B X:E1 Y:00 P:A5 SP:F7 CYC:310 SL:118
15:25:20: E126  A9 00     LDA #$00                       A:7B X:E1 Y:00 P:A5 SP:F6 CYC:319 SL:118
15:25:20: E128  8D 06 20  STA $2006 = 00                 A:00 X:E1 Y:00 P:27 SP:F6 CYC:325 SL:118
15:25:20: E12B  8D 06 20  STA $2006 = 00                 A:00 X:E1 Y:00 P:27 SP:F6 CYC:337 SL:118
15:25:20: E12E  A9 10     LDA #$10                       A:00 X:E1 Y:00 P:27 SP:F6 CYC:  8 SL:119
15:25:20: E130  8D 06 20  STA $2006 = 00                 A:10 X:E1 Y:00 P:25 SP:F6 CYC: 14 SL:119
15:25:20: E133  8D 06 20  STA $2006 = 00                 A:10 X:E1 Y:00 P:25 SP:F6 CYC: 26 SL:119
15:25:20: E136  A9 00     LDA #$00                       A:10 X:E1 Y:00 P:25 SP:F6 CYC: 38 SL:119
15:25:20: E138  8D 06 20  STA $2006 = 00                 A:00 X:E1 Y:00 P:27 SP:F6 CYC: 44 SL:119
15:25:20: E13B  8D 06 20  STA $2006 = 00                 A:00 X:E1 Y:00 P:27 SP:F6 CYC: 56 SL:119
15:25:20: E13E  68        PLA                            A:00 X:E1 Y:00 P:27 SP:F6 CYC: 68 SL:119
15:25:20: E13F  60        RTS                            A:7B X:E1 Y:00 P:25 SP:F7 CYC: 80 SL:119
15:25:20: E121  CA        DEX                            A:7B X:E1 Y:00 P:25 SP:F9 CYC: 98 SL:119
15:25:20: E122  D0 FA     BNE $E11E                      A:7B X:E0 Y:00 P:A5 SP:F9 CYC:104 SL:119
15:25:20: E11E  20 25 E1  JSR $E125                      A:7B X:E0 Y:00 P:A5 SP:F9 CYC:113 SL:119
15:25:20: E125  48        PHA                            A:7B X:E0 Y:00 P:A5 SP:F7 CYC:131 SL:119
15:25:20: E126  A9 00     LDA #$00                       A:7B X:E0 Y:00 P:A5 SP:F6 CYC:140 SL:119
15:25:20: E128  8D 06 20  STA $2006 = 00                 A:00 X:E0 Y:00 P:27 SP:F6 CYC:146 SL:119
15:25:20: E12B  8D 06 20  STA $2006 = 00                 A:00 X:E0 Y:00 P:27 SP:F6 CYC:158 SL:119
15:25:20: E12E  A9 10     LDA #$10                       A:00 X:E0 Y:00 P:27 SP:F6 CYC:170 SL:119
15:25:20: E130  8D 06 20  STA $2006 = 00                 A:10 X:E0 Y:00 P:25 SP:F6 CYC:176 SL:119
15:25:20: E133  8D 06 20  STA $2006 = 00                 A:10 X:E0 Y:00 P:25 SP:F6 CYC:188 SL:119
15:25:20: E136  A9 00     LDA #$00                       A:10 X:E0 Y:00 P:25 SP:F6 CYC:200 SL:119
15:25:20: E138  8D 06 20  STA $2006 = 00                 A:00 X:E0 Y:00 P:27 SP:F6 CYC:206 SL:119
15:25:20: E13B  8D 06 20  STA $2006 = 00                 A:00 X:E0 Y:00 P:27 SP:F6 CYC:218 SL:119
15:25:20: E13E  68        PLA                            A:00 X:E0 Y:00 P:27 SP:F6 CYC:230 SL:119
15:25:20: E13F  60        RTS                            A:7B X:E0 Y:00 P:25 SP:F7 CYC:242 SL:119
15:25:20: E121  CA        DEX                            A:7B X:E0 Y:00 P:25 SP:F9 CYC:260 SL:119
15:25:20: E122  D0 FA     BNE $E11E                      A:7B X:DF Y:00 P:A5 SP:F9 CYC:266 SL:119
15:25:20: E11E  20 25 E1  JSR $E125                      A:7B X:DF Y:00 P:A5 SP:F9 CYC:275 SL:119
15:25:20: E125  48        PHA                            A:7B X:DF Y:00 P:A5 SP:F7 CYC:293 SL:119
15:25:20: E126  A9 00     LDA #$00                       A:7B X:DF Y:00 P:A5 SP:F6 CYC:302 SL:119
15:25:20: E128  8D 06 20  STA $2006 = 00                 A:00 X:DF Y:00 P:27 SP:F6 CYC:308 SL:119
15:25:20: E12B  8D 06 20  STA $2006 = 00                 A:00 X:DF Y:00 P:27 SP:F6 CYC:320 SL:119
15:25:20: E12E  A9 10     LDA #$10                       A:00 X:DF Y:00 P:27 SP:F6 CYC:332 SL:119
15:25:20: E130  8D 06 20  STA $2006 = 00                 A:10 X:DF Y:00 P:25 SP:F6 CYC:338 SL:119
15:25:20: E133  8D 06 20  STA $2006 = 00                 A:10 X:DF Y:00 P:25 SP:F6 CYC:  9 SL:120
15:25:20: E136  A9 00     LDA #$00                       A:10 X:DF Y:00 P:25 SP:F6 CYC: 21 SL:120
15:25:20: E138  8D 06 20  STA $2006 = 00                 A:00 X:DF Y:00 P:27 SP:F6 CYC: 27 SL:120
15:25:20: E13B  8D 06 20  STA $2006 = 00                 A:00 X:DF Y:00 P:27 SP:F6 CYC: 39 SL:120
15:25:20: E13E  68        PLA                            A:00 X:DF Y:00 P:27 SP:F6 CYC: 51 SL:120
15:25:20: E13F  60        RTS                            A:7B X:DF Y:00 P:25 SP:F7 CYC: 63 SL:120
15:25:20: E121  CA        DEX                            A:7B X:DF Y:00 P:25 SP:F9 CYC: 81 SL:120
15:25:20: E122  D0 FA     BNE $E11E                      A:7B X:DE Y:00 P:A5 SP:F9 CYC: 87 SL:120
15:25:20: E11E  20 25 E1  JSR $E125                      A:7B X:DE Y:00 P:A5 SP:F9 CYC: 96 SL:120
15:25:20: E125  48        PHA                            A:7B X:DE Y:00 P:A5 SP:F7 CYC:114 SL:120
15:25:20: E126  A9 00     LDA #$00                       A:7B X:DE Y:00 P:A5 SP:F6 CYC:123 SL:120
15:25:20: E128  8D 06 20  STA $2006 = 00                 A:00 X:DE Y:00 P:27 SP:F6 CYC:129 SL:120
15:25:20: E12B  8D 06 20  STA $2006 = 00                 A:00 X:DE Y:00 P:27 SP:F6 CYC:141 SL:120
15:25:20: E12E  A9 10     LDA #$10                       A:00 X:DE Y:00 P:27 SP:F6 CYC:153 SL:120
15:25:20: E130  8D 06 20  STA $2006 = 00                 A:10 X:DE Y:00 P:25 SP:F6 CYC:159 SL:120
15:25:20: E133  8D 06 20  STA $2006 = 00                 A:10 X:DE Y:00 P:25 SP:F6 CYC:171 SL:120
15:25:20: E136  A9 00     LDA #$00                       A:10 X:DE Y:00 P:25 SP:F6 CYC:183 SL:120
15:25:20: E138  8D 06 20  STA $2006 = 00                 A:00 X:DE Y:00 P:27 SP:F6 CYC:189 SL:120
15:25:20: E13B  8D 06 20  STA $2006 = 00                 A:00 X:DE Y:00 P:27 SP:F6 CYC:201 SL:120
15:25:20: E13E  68        PLA                            A:00 X:DE Y:00 P:27 SP:F6 CYC:213 SL:120
15:25:20: E13F  60        RTS                            A:7B X:DE Y:00 P:25 SP:F7 CYC:225 SL:120
15:25:20: E121  CA        DEX                            A:7B X:DE Y:00 P:25 SP:F9 CYC:243 SL:120
15:25:20: E122  D0 FA     BNE $E11E                      A:7B X:DD Y:00 P:A5 SP:F9 CYC:249 SL:120
15:25:20: E11E  20 25 E1  JSR $E125                      A:7B X:DD Y:00 P:A5 SP:F9 CYC:258 SL:120
15:25:20: E125  48        PHA                            A:7B X:DD Y:00 P:A5 SP:F7 CYC:276 SL:120
15:25:20: E126  A9 00     LDA #$00                       A:7B X:DD Y:00 P:A5 SP:F6 CYC:285 SL:120
15:25:20: E128  8D 06 20  STA $2006 = 00                 A:00 X:DD Y:00 P:27 SP:F6 CYC:291 SL:120
15:25:20: E12B  8D 06 20  STA $2006 = 00                 A:00 X:DD Y:00 P:27 SP:F6 CYC:303 SL:120
15:25:20: E12E  A9 10     LDA #$10                       A:00 X:DD Y:00 P:27 SP:F6 CYC:315 SL:120
15:25:20: E130  8D 06 20  STA $2006 = 00                 A:10 X:DD Y:00 P:25 SP:F6 CYC:321 SL:120
15:25:20: E133  8D 06 20  STA $2006 = 00                 A:10 X:DD Y:00 P:25 SP:F6 CYC:333 SL:120
15:25:20: E136  A9 00     LDA #$00                       A:10 X:DD Y:00 P:25 SP:F6 CYC:  4 SL:121
15:25:20: E138  8D 06 20  STA $2006 = 00                 A:00 X:DD Y:00 P:27 SP:F6 CYC: 10 SL:121
15:25:20: E13B  8D 06 20  STA $2006 = 00                 A:00 X:DD Y:00 P:27 SP:F6 CYC: 22 SL:121
15:25:20: E13E  68        PLA                            A:00 X:DD Y:00 P:27 SP:F6 CYC: 34 SL:121
15:25:20: E13F  60        RTS                            A:7B X:DD Y:00 P:25 SP:F7 CYC: 46 SL:121
15:25:20: E121  CA        DEX                            A:7B X:DD Y:00 P:25 SP:F9 CYC: 64 SL:121
15:25:20: E122  D0 FA     BNE $E11E                      A:7B X:DC Y:00 P:A5 SP:F9 CYC: 70 SL:121
15:25:20: E11E  20 25 E1  JSR $E125                      A:7B X:DC Y:00 P:A5 SP:F9 CYC: 79 SL:121
15:25:20: E125  48        PHA                            A:7B X:DC Y:00 P:A5 SP:F7 CYC: 97 SL:121
15:25:20: E126  A9 00     LDA #$00                       A:7B X:DC Y:00 P:A5 SP:F6 CYC:106 SL:121
15:25:20: E128  8D 06 20  STA $2006 = 00                 A:00 X:DC Y:00 P:27 SP:F6 CYC:112 SL:121
15:25:20: E12B  8D 06 20  STA $2006 = 00                 A:00 X:DC Y:00 P:27 SP:F6 CYC:124 SL:121
15:25:20: E12E  A9 10     LDA #$10                       A:00 X:DC Y:00 P:27 SP:F6 CYC:136 SL:121
15:25:20: E130  8D 06 20  STA $2006 = 00                 A:10 X:DC Y:00 P:25 SP:F6 CYC:142 SL:121
15:25:20: E133  8D 06 20  STA $2006 = 00                 A:10 X:DC Y:00 P:25 SP:F6 CYC:154 SL:121
15:25:20: E136  A9 00     LDA #$00                       A:10 X:DC Y:00 P:25 SP:F6 CYC:166 SL:121
15:25:20: E138  8D 06 20  STA $2006 = 00                 A:00 X:DC Y:00 P:27 SP:F6 CYC:172 SL:121
15:25:20: E13B  8D 06 20  STA $2006 = 00                 A:00 X:DC Y:00 P:27 SP:F6 CYC:184 SL:121
15:25:20: E13E  68        PLA                            A:00 X:DC Y:00 P:27 SP:F6 CYC:196 SL:121
15:25:20: E13F  60        RTS                            A:7B X:DC Y:00 P:25 SP:F7 CYC:208 SL:121
15:25:20: E121  CA        DEX                            A:7B X:DC Y:00 P:25 SP:F9 CYC:226 SL:121
15:25:20: E122  D0 FA     BNE $E11E                      A:7B X:DB Y:00 P:A5 SP:F9 CYC:232 SL:121
15:25:20: E11E  20 25 E1  JSR $E125                      A:7B X:DB Y:00 P:A5 SP:F9 CYC:241 SL:121
15:25:20: E125  48        PHA                            A:7B X:DB Y:00 P:A5 SP:F7 CYC:259 SL:121
15:25:20: E126  A9 00     LDA #$00                       A:7B X:DB Y:00 P:A5 SP:F6 CYC:268 SL:121
15:25:20: E128  8D 06 20  STA $2006 = 00                 A:00 X:DB Y:00 P:27 SP:F6 CYC:274 SL:121
15:25:20: E12B  8D 06 20  STA $2006 = 00                 A:00 X:DB Y:00 P:27 SP:F6 CYC:286 SL:121
15:25:20: E12E  A9 10     LDA #$10                       A:00 X:DB Y:00 P:27 SP:F6 CYC:298 SL:121
15:25:20: E130  8D 06 20  STA $2006 = 00                 A:10 X:DB Y:00 P:25 SP:F6 CYC:304 SL:121
15:25:20: E133  8D 06 20  STA $2006 = 00                 A:10 X:DB Y:00 P:25 SP:F6 CYC:316 SL:121
15:25:20: E136  A9 00     LDA #$00                       A:10 X:DB Y:00 P:25 SP:F6 CYC:328 SL:121
15:25:20: E138  8D 06 20  STA $2006 = 00                 A:00 X:DB Y:00 P:27 SP:F6 CYC:334 SL:121
15:25:20: E13B  8D 06 20  STA $2006 = 00                 A:00 X:DB Y:00 P:27 SP:F6 CYC:  5 SL:122
15:25:20: E13E  68        PLA                            A:00 X:DB Y:00 P:27 SP:F6 CYC: 17 SL:122
15:25:20: E13F  60        RTS                            A:7B X:DB Y:00 P:25 SP:F7 CYC: 29 SL:122
15:25:20: E121  CA        DEX                            A:7B X:DB Y:00 P:25 SP:F9 CYC: 47 SL:122
15:25:20: E122  D0 FA     BNE $E11E                      A:7B X:DA Y:00 P:A5 SP:F9 CYC: 53 SL:122
15:25:20: E11E  20 25 E1  JSR $E125                      A:7B X:DA Y:00 P:A5 SP:F9 CYC: 62 SL:122
15:25:20: E125  48        PHA                            A:7B X:DA Y:00 P:A5 SP:F7 CYC: 80 SL:122
15:25:20: E126  A9 00     LDA #$00                       A:7B X:DA Y:00 P:A5 SP:F6 CYC: 89 SL:122
15:25:20: E128  8D 06 20  STA $2006 = 00                 A:00 X:DA Y:00 P:27 SP:F6 CYC: 95 SL:122
15:25:20: E12B  8D 06 20  STA $2006 = 00                 A:00 X:DA Y:00 P:27 SP:F6 CYC:107 SL:122
15:25:20: E12E  A9 10     LDA #$10                       A:00 X:DA Y:00 P:27 SP:F6 CYC:119 SL:122
15:25:20: E130  8D 06 20  STA $2006 = 00                 A:10 X:DA Y:00 P:25 SP:F6 CYC:125 SL:122
15:25:20: E133  8D 06 20  STA $2006 = 00                 A:10 X:DA Y:00 P:25 SP:F6 CYC:137 SL:122
15:25:20: E136  A9 00     LDA #$00                       A:10 X:DA Y:00 P:25 SP:F6 CYC:149 SL:122
15:25:20: E138  8D 06 20  STA $2006 = 00                 A:00 X:DA Y:00 P:27 SP:F6 CYC:155 SL:122
15:25:20: E13B  8D 06 20  STA $2006 = 00                 A:00 X:DA Y:00 P:27 SP:F6 CYC:167 SL:122
15:25:21: E13E  68        PLA                            A:00 X:DA Y:00 P:27 SP:F6 CYC:179 SL:122
15:25:21: E13F  60        RTS                            A:7B X:DA Y:00 P:25 SP:F7 CYC:191 SL:122
15:25:21: E121  CA        DEX                            A:7B X:DA Y:00 P:25 SP:F9 CYC:209 SL:122
15:25:21: E122  D0 FA     BNE $E11E                      A:7B X:D9 Y:00 P:A5 SP:F9 CYC:215 SL:122
15:25:21: E11E  20 25 E1  JSR $E125                      A:7B X:D9 Y:00 P:A5 SP:F9 CYC:224 SL:122
15:25:21: E125  48        PHA                            A:7B X:D9 Y:00 P:A5 SP:F7 CYC:242 SL:122
15:25:21: E126  A9 00     LDA #$00                       A:7B X:D9 Y:00 P:A5 SP:F6 CYC:251 SL:122
15:25:21: E128  8D 06 20  STA $2006 = 00                 A:00 X:D9 Y:00 P:27 SP:F6 CYC:257 SL:122
15:25:21: E12B  8D 06 20  STA $2006 = 00                 A:00 X:D9 Y:00 P:27 SP:F6 CYC:269 SL:122
15:25:21: E12E  A9 10     LDA #$10                       A:00 X:D9 Y:00 P:27 SP:F6 CYC:281 SL:122
15:25:21: E130  8D 06 20  STA $2006 = 00                 A:10 X:D9 Y:00 P:25 SP:F6 CYC:287 SL:122
15:25:21: E133  8D 06 20  STA $2006 = 00                 A:10 X:D9 Y:00 P:25 SP:F6 CYC:299 SL:122
15:25:21: E136  A9 00     LDA #$00                       A:10 X:D9 Y:00 P:25 SP:F6 CYC:311 SL:122
15:25:21: E138  8D 06 20  STA $2006 = 00                 A:00 X:D9 Y:00 P:27 SP:F6 CYC:317 SL:122
15:25:21: E13B  8D 06 20  STA $2006 = 00                 A:00 X:D9 Y:00 P:27 SP:F6 CYC:329 SL:122
15:25:21: E13E  68        PLA                            A:00 X:D9 Y:00 P:27 SP:F6 CYC:  0 SL:123
15:25:21: E13F  60        RTS                            A:7B X:D9 Y:00 P:25 SP:F7 CYC: 12 SL:123
15:25:21: E121  CA        DEX                            A:7B X:D9 Y:00 P:25 SP:F9 CYC: 30 SL:123
15:25:21: E122  D0 FA     BNE $E11E                      A:7B X:D8 Y:00 P:A5 SP:F9 CYC: 36 SL:123
15:25:21: E11E  20 25 E1  JSR $E125                      A:7B X:D8 Y:00 P:A5 SP:F9 CYC: 45 SL:123
15:25:21: E125  48        PHA                            A:7B X:D8 Y:00 P:A5 SP:F7 CYC: 63 SL:123
15:25:21: E126  A9 00     LDA #$00                       A:7B X:D8 Y:00 P:A5 SP:F6 CYC: 72 SL:123
15:25:21: E128  8D 06 20  STA $2006 = 00                 A:00 X:D8 Y:00 P:27 SP:F6 CYC: 78 SL:123
15:25:21: E12B  8D 06 20  STA $2006 = 00                 A:00 X:D8 Y:00 P:27 SP:F6 CYC: 90 SL:123
15:25:21: E12E  A9 10     LDA #$10                       A:00 X:D8 Y:00 P:27 SP:F6 CYC:102 SL:123
15:25:21: E130  8D 06 20  STA $2006 = 00                 A:10 X:D8 Y:00 P:25 SP:F6 CYC:108 SL:123
15:25:21: E133  8D 06 20  STA $2006 = 00                 A:10 X:D8 Y:00 P:25 SP:F6 CYC:120 SL:123
15:25:21: E136  A9 00     LDA #$00                       A:10 X:D8 Y:00 P:25 SP:F6 CYC:132 SL:123
15:25:21: E138  8D 06 20  STA $2006 = 00                 A:00 X:D8 Y:00 P:27 SP:F6 CYC:138 SL:123
15:25:21: E13B  8D 06 20  STA $2006 = 00                 A:00 X:D8 Y:00 P:27 SP:F6 CYC:150 SL:123
15:25:21: E13E  68        PLA                            A:00 X:D8 Y:00 P:27 SP:F6 CYC:162 SL:123
15:25:21: E13F  60        RTS                            A:7B X:D8 Y:00 P:25 SP:F7 CYC:174 SL:123
15:25:21: E121  CA        DEX                            A:7B X:D8 Y:00 P:25 SP:F9 CYC:192 SL:123
15:25:21: E122  D0 FA     BNE $E11E                      A:7B X:D7 Y:00 P:A5 SP:F9 CYC:198 SL:123
15:25:21: E11E  20 25 E1  JSR $E125                      A:7B X:D7 Y:00 P:A5 SP:F9 CYC:207 SL:123
15:25:21: E125  48        PHA                            A:7B X:D7 Y:00 P:A5 SP:F7 CYC:225 SL:123
15:25:21: E126  A9 00     LDA #$00                       A:7B X:D7 Y:00 P:A5 SP:F6 CYC:234 SL:123
15:25:21: E128  8D 06 20  STA $2006 = 00                 A:00 X:D7 Y:00 P:27 SP:F6 CYC:240 SL:123
15:25:21: E12B  8D 06 20  STA $2006 = 00                 A:00 X:D7 Y:00 P:27 SP:F6 CYC:252 SL:123
15:25:21: E12E  A9 10     LDA #$10                       A:00 X:D7 Y:00 P:27 SP:F6 CYC:264 SL:123
15:25:21: E130  8D 06 20  STA $2006 = 00                 A:10 X:D7 Y:00 P:25 SP:F6 CYC:270 SL:123
15:25:21: E133  8D 06 20  STA $2006 = 00                 A:10 X:D7 Y:00 P:25 SP:F6 CYC:282 SL:123
15:25:21: E136  A9 00     LDA #$00                       A:10 X:D7 Y:00 P:25 SP:F6 CYC:294 SL:123
15:25:21: E138  8D 06 20  STA $2006 = 00                 A:00 X:D7 Y:00 P:27 SP:F6 CYC:300 SL:123
15:25:21: E13B  8D 06 20  STA $2006 = 00                 A:00 X:D7 Y:00 P:27 SP:F6 CYC:312 SL:123
15:25:21: E13E  68        PLA                            A:00 X:D7 Y:00 P:27 SP:F6 CYC:324 SL:123
15:25:21: E13F  60        RTS                            A:7B X:D7 Y:00 P:25 SP:F7 CYC:336 SL:123
15:25:21: E121  CA        DEX                            A:7B X:D7 Y:00 P:25 SP:F9 CYC: 13 SL:124
15:25:21: E122  D0 FA     BNE $E11E                      A:7B X:D6 Y:00 P:A5 SP:F9 CYC: 19 SL:124
15:25:21: E11E  20 25 E1  JSR $E125                      A:7B X:D6 Y:00 P:A5 SP:F9 CYC: 28 SL:124
15:25:21: E125  48        PHA                            A:7B X:D6 Y:00 P:A5 SP:F7 CYC: 46 SL:124
15:25:21: E126  A9 00     LDA #$00                       A:7B X:D6 Y:00 P:A5 SP:F6 CYC: 55 SL:124
15:25:21: E128  8D 06 20  STA $2006 = 00                 A:00 X:D6 Y:00 P:27 SP:F6 CYC: 61 SL:124
15:25:21: E12B  8D 06 20  STA $2006 = 00                 A:00 X:D6 Y:00 P:27 SP:F6 CYC: 73 SL:124
15:25:21: E12E  A9 10     LDA #$10                       A:00 X:D6 Y:00 P:27 SP:F6 CYC: 85 SL:124
15:25:21: E130  8D 06 20  STA $2006 = 00                 A:10 X:D6 Y:00 P:25 SP:F6 CYC: 91 SL:124
15:25:21: E133  8D 06 20  STA $2006 = 00                 A:10 X:D6 Y:00 P:25 SP:F6 CYC:103 SL:124
15:25:21: E136  A9 00     LDA #$00                       A:10 X:D6 Y:00 P:25 SP:F6 CYC:115 SL:124
15:25:21: E138  8D 06 20  STA $2006 = 00                 A:00 X:D6 Y:00 P:27 SP:F6 CYC:121 SL:124
15:25:21: E13B  8D 06 20  STA $2006 = 00                 A:00 X:D6 Y:00 P:27 SP:F6 CYC:133 SL:124
15:25:21: E13E  68        PLA                            A:00 X:D6 Y:00 P:27 SP:F6 CYC:145 SL:124
15:25:21: E13F  60        RTS                            A:7B X:D6 Y:00 P:25 SP:F7 CYC:157 SL:124
15:25:21: E121  CA        DEX                            A:7B X:D6 Y:00 P:25 SP:F9 CYC:175 SL:124
15:25:21: E122  D0 FA     BNE $E11E                      A:7B X:D5 Y:00 P:A5 SP:F9 CYC:181 SL:124
15:25:21: E11E  20 25 E1  JSR $E125                      A:7B X:D5 Y:00 P:A5 SP:F9 CYC:190 SL:124
15:25:21: E125  48        PHA                            A:7B X:D5 Y:00 P:A5 SP:F7 CYC:208 SL:124
15:25:21: E126  A9 00     LDA #$00                       A:7B X:D5 Y:00 P:A5 SP:F6 CYC:217 SL:124
15:25:21: E128  8D 06 20  STA $2006 = 00                 A:00 X:D5 Y:00 P:27 SP:F6 CYC:223 SL:124
15:25:21: E12B  8D 06 20  STA $2006 = 00                 A:00 X:D5 Y:00 P:27 SP:F6 CYC:235 SL:124
15:25:21: E12E  A9 10     LDA #$10                       A:00 X:D5 Y:00 P:27 SP:F6 CYC:247 SL:124
15:25:21: E130  8D 06 20  STA $2006 = 00                 A:10 X:D5 Y:00 P:25 SP:F6 CYC:253 SL:124
15:25:21: E133  8D 06 20  STA $2006 = 00                 A:10 X:D5 Y:00 P:25 SP:F6 CYC:265 SL:124
15:25:21: E136  A9 00     LDA #$00                       A:10 X:D5 Y:00 P:25 SP:F6 CYC:277 SL:124
15:25:21: E138  8D 06 20  STA $2006 = 00                 A:00 X:D5 Y:00 P:27 SP:F6 CYC:283 SL:124
15:25:21: E13B  8D 06 20  STA $2006 = 00                 A:00 X:D5 Y:00 P:27 SP:F6 CYC:295 SL:124
15:25:21: E13E  68        PLA                            A:00 X:D5 Y:00 P:27 SP:F6 CYC:307 SL:124
15:25:21: E13F  60        RTS                            A:7B X:D5 Y:00 P:25 SP:F7 CYC:319 SL:124
15:25:21: E121  CA        DEX                            A:7B X:D5 Y:00 P:25 SP:F9 CYC:337 SL:124
15:25:21: E122  D0 FA     BNE $E11E                      A:7B X:D4 Y:00 P:A5 SP:F9 CYC:  2 SL:125
15:25:21: E11E  20 25 E1  JSR $E125                      A:7B X:D4 Y:00 P:A5 SP:F9 CYC: 11 SL:125
15:25:21: E125  48        PHA                            A:7B X:D4 Y:00 P:A5 SP:F7 CYC: 29 SL:125
15:25:21: E126  A9 00     LDA #$00                       A:7B X:D4 Y:00 P:A5 SP:F6 CYC: 38 SL:125
15:25:21: E128  8D 06 20  STA $2006 = 00                 A:00 X:D4 Y:00 P:27 SP:F6 CYC: 44 SL:125
15:25:21: E12B  8D 06 20  STA $2006 = 00                 A:00 X:D4 Y:00 P:27 SP:F6 CYC: 56 SL:125
15:25:21: E12E  A9 10     LDA #$10                       A:00 X:D4 Y:00 P:27 SP:F6 CYC: 68 SL:125
15:25:21: E130  8D 06 20  STA $2006 = 00                 A:10 X:D4 Y:00 P:25 SP:F6 CYC: 74 SL:125
15:25:21: E133  8D 06 20  STA $2006 = 00                 A:10 X:D4 Y:00 P:25 SP:F6 CYC: 86 SL:125
15:25:21: E136  A9 00     LDA #$00                       A:10 X:D4 Y:00 P:25 SP:F6 CYC: 98 SL:125
15:25:21: E138  8D 06 20  STA $2006 = 00                 A:00 X:D4 Y:00 P:27 SP:F6 CYC:104 SL:125
15:25:21: E13B  8D 06 20  STA $2006 = 00                 A:00 X:D4 Y:00 P:27 SP:F6 CYC:116 SL:125
15:25:21: E13E  68        PLA                            A:00 X:D4 Y:00 P:27 SP:F6 CYC:128 SL:125
15:25:21: E13F  60        RTS                            A:7B X:D4 Y:00 P:25 SP:F7 CYC:140 SL:125
15:25:21: E121  CA        DEX                            A:7B X:D4 Y:00 P:25 SP:F9 CYC:158 SL:125
15:25:21: E122  D0 FA     BNE $E11E                      A:7B X:D3 Y:00 P:A5 SP:F9 CYC:164 SL:125
15:25:21: E11E  20 25 E1  JSR $E125                      A:7B X:D3 Y:00 P:A5 SP:F9 CYC:173 SL:125
15:25:21: E125  48        PHA                            A:7B X:D3 Y:00 P:A5 SP:F7 CYC:191 SL:125
15:25:21: E126  A9 00     LDA #$00                       A:7B X:D3 Y:00 P:A5 SP:F6 CYC:200 SL:125
15:25:21: E128  8D 06 20  STA $2006 = 00                 A:00 X:D3 Y:00 P:27 SP:F6 CYC:206 SL:125
15:25:21: E12B  8D 06 20  STA $2006 = 00                 A:00 X:D3 Y:00 P:27 SP:F6 CYC:218 SL:125
15:25:21: E12E  A9 10     LDA #$10                       A:00 X:D3 Y:00 P:27 SP:F6 CYC:230 SL:125
15:25:21: E130  8D 06 20  STA $2006 = 00                 A:10 X:D3 Y:00 P:25 SP:F6 CYC:236 SL:125
15:25:21: E133  8D 06 20  STA $2006 = 00                 A:10 X:D3 Y:00 P:25 SP:F6 CYC:248 SL:125
15:25:21: E136  A9 00     LDA #$00                       A:10 X:D3 Y:00 P:25 SP:F6 CYC:260 SL:125
15:25:21: E138  8D 06 20  STA $2006 = 00                 A:00 X:D3 Y:00 P:27 SP:F6 CYC:266 SL:125
15:25:21: E13B  8D 06 20  STA $2006 = 00                 A:00 X:D3 Y:00 P:27 SP:F6 CYC:278 SL:125
15:25:21: E13E  68        PLA                            A:00 X:D3 Y:00 P:27 SP:F6 CYC:290 SL:125
15:25:21: E13F  60        RTS                            A:7B X:D3 Y:00 P:25 SP:F7 CYC:302 SL:125
15:25:21: E121  CA        DEX                            A:7B X:D3 Y:00 P:25 SP:F9 CYC:320 SL:125
15:25:21: E122  D0 FA     BNE $E11E                      A:7B X:D2 Y:00 P:A5 SP:F9 CYC:326 SL:125
15:25:21: E11E  20 25 E1  JSR $E125                      A:7B X:D2 Y:00 P:A5 SP:F9 CYC:335 SL:125
15:25:21: E125  48        PHA                            A:7B X:D2 Y:00 P:A5 SP:F7 CYC: 12 SL:126
15:25:21: E126  A9 00     LDA #$00                       A:7B X:D2 Y:00 P:A5 SP:F6 CYC: 21 SL:126
15:25:21: E128  8D 06 20  STA $2006 = 00                 A:00 X:D2 Y:00 P:27 SP:F6 CYC: 27 SL:126
15:25:21: E12B  8D 06 20  STA $2006 = 00                 A:00 X:D2 Y:00 P:27 SP:F6 CYC: 39 SL:126
15:25:21: E12E  A9 10     LDA #$10                       A:00 X:D2 Y:00 P:27 SP:F6 CYC: 51 SL:126
15:25:21: E130  8D 06 20  STA $2006 = 00                 A:10 X:D2 Y:00 P:25 SP:F6 CYC: 57 SL:126
15:25:21: E133  8D 06 20  STA $2006 = 00                 A:10 X:D2 Y:00 P:25 SP:F6 CYC: 69 SL:126
15:25:21: E136  A9 00     LDA #$00                       A:10 X:D2 Y:00 P:25 SP:F6 CYC: 81 SL:126
15:25:21: E138  8D 06 20  STA $2006 = 00                 A:00 X:D2 Y:00 P:27 SP:F6 CYC: 87 SL:126
15:25:21: E13B  8D 06 20  STA $2006 = 00                 A:00 X:D2 Y:00 P:27 SP:F6 CYC: 99 SL:126
15:25:21: E13E  68        PLA                            A:00 X:D2 Y:00 P:27 SP:F6 CYC:111 SL:126
15:25:21: E13F  60        RTS                            A:7B X:D2 Y:00 P:25 SP:F7 CYC:123 SL:126
15:25:21: E121  CA        DEX                            A:7B X:D2 Y:00 P:25 SP:F9 CYC:141 SL:126
15:25:21: E122  D0 FA     BNE $E11E                      A:7B X:D1 Y:00 P:A5 SP:F9 CYC:147 SL:126
15:25:21: E11E  20 25 E1  JSR $E125                      A:7B X:D1 Y:00 P:A5 SP:F9 CYC:156 SL:126
15:25:21: E125  48        PHA                            A:7B X:D1 Y:00 P:A5 SP:F7 CYC:174 SL:126
15:25:21: E126  A9 00     LDA #$00                       A:7B X:D1 Y:00 P:A5 SP:F6 CYC:183 SL:126
15:25:21: E128  8D 06 20  STA $2006 = 00                 A:00 X:D1 Y:00 P:27 SP:F6 CYC:189 SL:126
15:25:21: E12B  8D 06 20  STA $2006 = 00                 A:00 X:D1 Y:00 P:27 SP:F6 CYC:201 SL:126
15:25:21: E12E  A9 10     LDA #$10                       A:00 X:D1 Y:00 P:27 SP:F6 CYC:213 SL:126
15:25:21: E130  8D 06 20  STA $2006 = 00                 A:10 X:D1 Y:00 P:25 SP:F6 CYC:219 SL:126
15:25:21: E133  8D 06 20  STA $2006 = 00                 A:10 X:D1 Y:00 P:25 SP:F6 CYC:231 SL:126
15:25:21: E136  A9 00     LDA #$00                       A:10 X:D1 Y:00 P:25 SP:F6 CYC:243 SL:126
15:25:21: E138  8D 06 20  STA $2006 = 00                 A:00 X:D1 Y:00 P:27 SP:F6 CYC:249 SL:126
15:25:21: E13B  8D 06 20  STA $2006 = 00                 A:00 X:D1 Y:00 P:27 SP:F6 CYC:261 SL:126
15:25:21: E13E  68        PLA                            A:00 X:D1 Y:00 P:27 SP:F6 CYC:273 SL:126
15:25:21: E13F  60        RTS                            A:7B X:D1 Y:00 P:25 SP:F7 CYC:285 SL:126
15:25:21: E121  CA        DEX                            A:7B X:D1 Y:00 P:25 SP:F9 CYC:303 SL:126
15:25:21: E122  D0 FA     BNE $E11E                      A:7B X:D0 Y:00 P:A5 SP:F9 CYC:309 SL:126
15:25:21: E11E  20 25 E1  JSR $E125                      A:7B X:D0 Y:00 P:A5 SP:F9 CYC:318 SL:126
15:25:21: E125  48        PHA                            A:7B X:D0 Y:00 P:A5 SP:F7 CYC:336 SL:126
15:25:21: E126  A9 00     LDA #$00                       A:7B X:D0 Y:00 P:A5 SP:F6 CYC:  4 SL:127
15:25:21: E128  8D 06 20  STA $2006 = 00                 A:00 X:D0 Y:00 P:27 SP:F6 CYC: 10 SL:127
15:25:21: E12B  8D 06 20  STA $2006 = 00                 A:00 X:D0 Y:00 P:27 SP:F6 CYC: 22 SL:127
15:25:21: E12E  A9 10     LDA #$10                       A:00 X:D0 Y:00 P:27 SP:F6 CYC: 34 SL:127
15:25:21: E130  8D 06 20  STA $2006 = 00                 A:10 X:D0 Y:00 P:25 SP:F6 CYC: 40 SL:127
15:25:21: E133  8D 06 20  STA $2006 = 00                 A:10 X:D0 Y:00 P:25 SP:F6 CYC: 52 SL:127
15:25:21: E136  A9 00     LDA #$00                       A:10 X:D0 Y:00 P:25 SP:F6 CYC: 64 SL:127
15:25:21: E138  8D 06 20  STA $2006 = 00                 A:00 X:D0 Y:00 P:27 SP:F6 CYC: 70 SL:127
15:25:21: E13B  8D 06 20  STA $2006 = 00                 A:00 X:D0 Y:00 P:27 SP:F6 CYC: 82 SL:127
15:25:21: E13E  68        PLA                            A:00 X:D0 Y:00 P:27 SP:F6 CYC: 94 SL:127
15:25:21: E13F  60        RTS                            A:7B X:D0 Y:00 P:25 SP:F7 CYC:106 SL:127
15:25:21: E121  CA        DEX                            A:7B X:D0 Y:00 P:25 SP:F9 CYC:124 SL:127
15:25:21: E122  D0 FA     BNE $E11E                      A:7B X:CF Y:00 P:A5 SP:F9 CYC:130 SL:127
15:25:21: E11E  20 25 E1  JSR $E125                      A:7B X:CF Y:00 P:A5 SP:F9 CYC:139 SL:127
15:25:21: E125  48        PHA                            A:7B X:CF Y:00 P:A5 SP:F7 CYC:157 SL:127
15:25:21: E126  A9 00     LDA #$00                       A:7B X:CF Y:00 P:A5 SP:F6 CYC:166 SL:127
15:25:21: E128  8D 06 20  STA $2006 = 00                 A:00 X:CF Y:00 P:27 SP:F6 CYC:172 SL:127
15:25:21: E12B  8D 06 20  STA $2006 = 00                 A:00 X:CF Y:00 P:27 SP:F6 CYC:184 SL:127
15:25:21: E12E  A9 10     LDA #$10                       A:00 X:CF Y:00 P:27 SP:F6 CYC:196 SL:127
15:25:21: E130  8D 06 20  STA $2006 = 00                 A:10 X:CF Y:00 P:25 SP:F6 CYC:202 SL:127
15:25:21: E133  8D 06 20  STA $2006 = 00                 A:10 X:CF Y:00 P:25 SP:F6 CYC:214 SL:127
15:25:21: E136  A9 00     LDA #$00                       A:10 X:CF Y:00 P:25 SP:F6 CYC:226 SL:127
15:25:21: E138  8D 06 20  STA $2006 = 00                 A:00 X:CF Y:00 P:27 SP:F6 CYC:232 SL:127
15:25:21: E13B  8D 06 20  STA $2006 = 00                 A:00 X:CF Y:00 P:27 SP:F6 CYC:244 SL:127
15:25:21: E13E  68        PLA                            A:00 X:CF Y:00 P:27 SP:F6 CYC:256 SL:127
15:25:21: E13F  60        RTS                            A:7B X:CF Y:00 P:25 SP:F7 CYC:268 SL:127
15:25:21: E121  CA        DEX                            A:7B X:CF Y:00 P:25 SP:F9 CYC:286 SL:127
15:25:21: E122  D0 FA     BNE $E11E                      A:7B X:CE Y:00 P:A5 SP:F9 CYC:292 SL:127
15:25:21: E11E  20 25 E1  JSR $E125                      A:7B X:CE Y:00 P:A5 SP:F9 CYC:301 SL:127
15:25:21: E125  48        PHA                            A:7B X:CE Y:00 P:A5 SP:F7 CYC:319 SL:127
15:25:21: E126  A9 00     LDA #$00                       A:7B X:CE Y:00 P:A5 SP:F6 CYC:328 SL:127
15:25:21: E128  8D 06 20  STA $2006 = 00                 A:00 X:CE Y:00 P:27 SP:F6 CYC:334 SL:127
15:25:21: E12B  8D 06 20  STA $2006 = 00                 A:00 X:CE Y:00 P:27 SP:F6 CYC:  5 SL:128
15:25:21: E12E  A9 10     LDA #$10                       A:00 X:CE Y:00 P:27 SP:F6 CYC: 17 SL:128
15:25:21: E130  8D 06 20  STA $2006 = 00                 A:10 X:CE Y:00 P:25 SP:F6 CYC: 23 SL:128
15:25:21: E133  8D 06 20  STA $2006 = 00                 A:10 X:CE Y:00 P:25 SP:F6 CYC: 35 SL:128
15:25:21: E136  A9 00     LDA #$00                       A:10 X:CE Y:00 P:25 SP:F6 CYC: 47 SL:128
15:25:21: E138  8D 06 20  STA $2006 = 00                 A:00 X:CE Y:00 P:27 SP:F6 CYC: 53 SL:128
15:25:21: E13B  8D 06 20  STA $2006 = 00                 A:00 X:CE Y:00 P:27 SP:F6 CYC: 65 SL:128
15:25:21: E13E  68        PLA                            A:00 X:CE Y:00 P:27 SP:F6 CYC: 77 SL:128
15:25:21: E13F  60        RTS                            A:7B X:CE Y:00 P:25 SP:F7 CYC: 89 SL:128
15:25:21: E121  CA        DEX                            A:7B X:CE Y:00 P:25 SP:F9 CYC:107 SL:128
15:25:21: E122  D0 FA     BNE $E11E                      A:7B X:CD Y:00 P:A5 SP:F9 CYC:113 SL:128
15:25:21: E11E  20 25 E1  JSR $E125                      A:7B X:CD Y:00 P:A5 SP:F9 CYC:122 SL:128
15:25:21: E125  48        PHA                            A:7B X:CD Y:00 P:A5 SP:F7 CYC:140 SL:128
15:25:21: E126  A9 00     LDA #$00                       A:7B X:CD Y:00 P:A5 SP:F6 CYC:149 SL:128
15:25:21: E128  8D 06 20  STA $2006 = 00                 A:00 X:CD Y:00 P:27 SP:F6 CYC:155 SL:128
15:25:21: E12B  8D 06 20  STA $2006 = 00                 A:00 X:CD Y:00 P:27 SP:F6 CYC:167 SL:128
15:25:21: E12E  A9 10     LDA #$10                       A:00 X:CD Y:00 P:27 SP:F6 CYC:179 SL:128
15:25:21: E130  8D 06 20  STA $2006 = 00                 A:10 X:CD Y:00 P:25 SP:F6 CYC:185 SL:128
15:25:21: E133  8D 06 20  STA $2006 = 00                 A:10 X:CD Y:00 P:25 SP:F6 CYC:197 SL:128
15:25:21: E136  A9 00     LDA #$00                       A:10 X:CD Y:00 P:25 SP:F6 CYC:209 SL:128
15:25:21: E138  8D 06 20  STA $2006 = 00                 A:00 X:CD Y:00 P:27 SP:F6 CYC:215 SL:128
15:25:21: E13B  8D 06 20  STA $2006 = 00                 A:00 X:CD Y:00 P:27 SP:F6 CYC:227 SL:128
15:25:21: E13E  68        PLA                            A:00 X:CD Y:00 P:27 SP:F6 CYC:239 SL:128
15:25:21: E13F  60        RTS                            A:7B X:CD Y:00 P:25 SP:F7 CYC:251 SL:128
15:25:21: E121  CA        DEX                            A:7B X:CD Y:00 P:25 SP:F9 CYC:269 SL:128
15:25:21: E122  D0 FA     BNE $E11E                      A:7B X:CC Y:00 P:A5 SP:F9 CYC:275 SL:128
15:25:21: E11E  20 25 E1  JSR $E125                      A:7B X:CC Y:00 P:A5 SP:F9 CYC:284 SL:128
15:25:21: E125  48        PHA                            A:7B X:CC Y:00 P:A5 SP:F7 CYC:302 SL:128
15:25:21: E126  A9 00     LDA #$00                       A:7B X:CC Y:00 P:A5 SP:F6 CYC:311 SL:128
15:25:21: E128  8D 06 20  STA $2006 = 00                 A:00 X:CC Y:00 P:27 SP:F6 CYC:317 SL:128
15:25:21: E12B  8D 06 20  STA $2006 = 00                 A:00 X:CC Y:00 P:27 SP:F6 CYC:329 SL:128
15:25:21: E12E  A9 10     LDA #$10                       A:00 X:CC Y:00 P:27 SP:F6 CYC:  0 SL:129
15:25:21: E130  8D 06 20  STA $2006 = 00                 A:10 X:CC Y:00 P:25 SP:F6 CYC:  6 SL:129
15:25:21: E133  8D 06 20  STA $2006 = 00                 A:10 X:CC Y:00 P:25 SP:F6 CYC: 18 SL:129
15:25:21: E136  A9 00     LDA #$00                       A:10 X:CC Y:00 P:25 SP:F6 CYC: 30 SL:129
15:25:21: E138  8D 06 20  STA $2006 = 00                 A:00 X:CC Y:00 P:27 SP:F6 CYC: 36 SL:129
15:25:21: E13B  8D 06 20  STA $2006 = 00                 A:00 X:CC Y:00 P:27 SP:F6 CYC: 48 SL:129
15:25:21: E13E  68        PLA                            A:00 X:CC Y:00 P:27 SP:F6 CYC: 60 SL:129
15:25:21: E13F  60        RTS                            A:7B X:CC Y:00 P:25 SP:F7 CYC: 72 SL:129
15:25:21: E121  CA        DEX                            A:7B X:CC Y:00 P:25 SP:F9 CYC: 90 SL:129
15:25:21: E122  D0 FA     BNE $E11E                      A:7B X:CB Y:00 P:A5 SP:F9 CYC: 96 SL:129
15:25:21: E11E  20 25 E1  JSR $E125                      A:7B X:CB Y:00 P:A5 SP:F9 CYC:105 SL:129
15:25:21: E125  48        PHA                            A:7B X:CB Y:00 P:A5 SP:F7 CYC:123 SL:129
15:25:21: E126  A9 00     LDA #$00                       A:7B X:CB Y:00 P:A5 SP:F6 CYC:132 SL:129
15:25:21: E128  8D 06 20  STA $2006 = 00                 A:00 X:CB Y:00 P:27 SP:F6 CYC:138 SL:129
15:25:21: E12B  8D 06 20  STA $2006 = 00                 A:00 X:CB Y:00 P:27 SP:F6 CYC:150 SL:129
15:25:21: E12E  A9 10     LDA #$10                       A:00 X:CB Y:00 P:27 SP:F6 CYC:162 SL:129
15:25:21: E130  8D 06 20  STA $2006 = 00                 A:10 X:CB Y:00 P:25 SP:F6 CYC:168 SL:129
15:25:21: E133  8D 06 20  STA $2006 = 00                 A:10 X:CB Y:00 P:25 SP:F6 CYC:180 SL:129
15:25:21: E136  A9 00     LDA #$00                       A:10 X:CB Y:00 P:25 SP:F6 CYC:192 SL:129
15:25:21: E138  8D 06 20  STA $2006 = 00                 A:00 X:CB Y:00 P:27 SP:F6 CYC:198 SL:129
15:25:21: E13B  8D 06 20  STA $2006 = 00                 A:00 X:CB Y:00 P:27 SP:F6 CYC:210 SL:129
15:25:21: E13E  68        PLA                            A:00 X:CB Y:00 P:27 SP:F6 CYC:222 SL:129
15:25:21: E13F  60        RTS                            A:7B X:CB Y:00 P:25 SP:F7 CYC:234 SL:129
15:25:21: E121  CA        DEX                            A:7B X:CB Y:00 P:25 SP:F9 CYC:252 SL:129
15:25:21: E122  D0 FA     BNE $E11E                      A:7B X:CA Y:00 P:A5 SP:F9 CYC:258 SL:129
15:25:21: E11E  20 25 E1  JSR $E125                      A:7B X:CA Y:00 P:A5 SP:F9 CYC:267 SL:129
15:25:21: E125  48        PHA                            A:7B X:CA Y:00 P:A5 SP:F7 CYC:285 SL:129
15:25:21: E126  A9 00     LDA #$00                       A:7B X:CA Y:00 P:A5 SP:F6 CYC:294 SL:129
15:25:21: E128  8D 06 20  STA $2006 = 00                 A:00 X:CA Y:00 P:27 SP:F6 CYC:300 SL:129
15:25:21: E12B  8D 06 20  STA $2006 = 00                 A:00 X:CA Y:00 P:27 SP:F6 CYC:312 SL:129
15:25:21: E12E  A9 10     LDA #$10                       A:00 X:CA Y:00 P:27 SP:F6 CYC:324 SL:129
15:25:21: E130  8D 06 20  STA $2006 = 00                 A:10 X:CA Y:00 P:25 SP:F6 CYC:330 SL:129
15:25:21: E133  8D 06 20  STA $2006 = 00                 A:10 X:CA Y:00 P:25 SP:F6 CYC:  1 SL:130
15:25:21: E136  A9 00     LDA #$00                       A:10 X:CA Y:00 P:25 SP:F6 CYC: 13 SL:130
15:25:21: E138  8D 06 20  STA $2006 = 00                 A:00 X:CA Y:00 P:27 SP:F6 CYC: 19 SL:130
15:25:21: E13B  8D 06 20  STA $2006 = 00                 A:00 X:CA Y:00 P:27 SP:F6 CYC: 31 SL:130
15:25:21: E13E  68        PLA                            A:00 X:CA Y:00 P:27 SP:F6 CYC: 43 SL:130
15:25:21: E13F  60        RTS                            A:7B X:CA Y:00 P:25 SP:F7 CYC: 55 SL:130
15:25:21: E121  CA        DEX                            A:7B X:CA Y:00 P:25 SP:F9 CYC: 73 SL:130
15:25:21: E122  D0 FA     BNE $E11E                      A:7B X:C9 Y:00 P:A5 SP:F9 CYC: 79 SL:130
15:25:21: E11E  20 25 E1  JSR $E125                      A:7B X:C9 Y:00 P:A5 SP:F9 CYC: 88 SL:130
15:25:21: E125  48        PHA                            A:7B X:C9 Y:00 P:A5 SP:F7 CYC:106 SL:130
15:25:21: E126  A9 00     LDA #$00                       A:7B X:C9 Y:00 P:A5 SP:F6 CYC:115 SL:130
15:25:21: E128  8D 06 20  STA $2006 = 00                 A:00 X:C9 Y:00 P:27 SP:F6 CYC:121 SL:130
15:25:21: E12B  8D 06 20  STA $2006 = 00                 A:00 X:C9 Y:00 P:27 SP:F6 CYC:133 SL:130
15:25:21: E12E  A9 10     LDA #$10                       A:00 X:C9 Y:00 P:27 SP:F6 CYC:145 SL:130
15:25:21: E130  8D 06 20  STA $2006 = 00                 A:10 X:C9 Y:00 P:25 SP:F6 CYC:151 SL:130
15:25:21: E133  8D 06 20  STA $2006 = 00                 A:10 X:C9 Y:00 P:25 SP:F6 CYC:163 SL:130
15:25:21: E136  A9 00     LDA #$00                       A:10 X:C9 Y:00 P:25 SP:F6 CYC:175 SL:130
15:25:21: E138  8D 06 20  STA $2006 = 00                 A:00 X:C9 Y:00 P:27 SP:F6 CYC:181 SL:130
15:25:21: E13B  8D 06 20  STA $2006 = 00                 A:00 X:C9 Y:00 P:27 SP:F6 CYC:193 SL:130
15:25:21: E13E  68        PLA                            A:00 X:C9 Y:00 P:27 SP:F6 CYC:205 SL:130
15:25:21: E13F  60        RTS                            A:7B X:C9 Y:00 P:25 SP:F7 CYC:217 SL:130
15:25:21: E121  CA        DEX                            A:7B X:C9 Y:00 P:25 SP:F9 CYC:235 SL:130
15:25:21: E122  D0 FA     BNE $E11E                      A:7B X:C8 Y:00 P:A5 SP:F9 CYC:241 SL:130
15:25:21: E11E  20 25 E1  JSR $E125                      A:7B X:C8 Y:00 P:A5 SP:F9 CYC:250 SL:130
15:25:21: E125  48        PHA                            A:7B X:C8 Y:00 P:A5 SP:F7 CYC:268 SL:130
15:25:21: E126  A9 00     LDA #$00                       A:7B X:C8 Y:00 P:A5 SP:F6 CYC:277 SL:130
15:25:21: E128  8D 06 20  STA $2006 = 00                 A:00 X:C8 Y:00 P:27 SP:F6 CYC:283 SL:130
15:25:21: E12B  8D 06 20  STA $2006 = 00                 A:00 X:C8 Y:00 P:27 SP:F6 CYC:295 SL:130
15:25:21: E12E  A9 10     LDA #$10                       A:00 X:C8 Y:00 P:27 SP:F6 CYC:307 SL:130
15:25:21: E130  8D 06 20  STA $2006 = 00                 A:10 X:C8 Y:00 P:25 SP:F6 CYC:313 SL:130
15:25:21: E133  8D 06 20  STA $2006 = 00                 A:10 X:C8 Y:00 P:25 SP:F6 CYC:325 SL:130
15:25:21: E136  A9 00     LDA #$00                       A:10 X:C8 Y:00 P:25 SP:F6 CYC:337 SL:130
15:25:21: E138  8D 06 20  STA $2006 = 00                 A:00 X:C8 Y:00 P:27 SP:F6 CYC:  2 SL:131
15:25:21: E13B  8D 06 20  STA $2006 = 00                 A:00 X:C8 Y:00 P:27 SP:F6 CYC: 14 SL:131
15:25:21: E13E  68        PLA                            A:00 X:C8 Y:00 P:27 SP:F6 CYC: 26 SL:131
15:25:21: E13F  60        RTS                            A:7B X:C8 Y:00 P:25 SP:F7 CYC: 38 SL:131
15:25:21: E121  CA        DEX                            A:7B X:C8 Y:00 P:25 SP:F9 CYC: 56 SL:131
15:25:21: E122  D0 FA     BNE $E11E                      A:7B X:C7 Y:00 P:A5 SP:F9 CYC: 62 SL:131
15:25:21: E11E  20 25 E1  JSR $E125                      A:7B X:C7 Y:00 P:A5 SP:F9 CYC: 71 SL:131
15:25:21: E125  48        PHA                            A:7B X:C7 Y:00 P:A5 SP:F7 CYC: 89 SL:131
15:25:21: E126  A9 00     LDA #$00                       A:7B X:C7 Y:00 P:A5 SP:F6 CYC: 98 SL:131
15:25:21: E128  8D 06 20  STA $2006 = 00                 A:00 X:C7 Y:00 P:27 SP:F6 CYC:104 SL:131
15:25:21: E12B  8D 06 20  STA $2006 = 00                 A:00 X:C7 Y:00 P:27 SP:F6 CYC:116 SL:131
15:25:21: E12E  A9 10     LDA #$10                       A:00 X:C7 Y:00 P:27 SP:F6 CYC:128 SL:131
15:25:21: E130  8D 06 20  STA $2006 = 00                 A:10 X:C7 Y:00 P:25 SP:F6 CYC:134 SL:131
15:25:21: E133  8D 06 20  STA $2006 = 00                 A:10 X:C7 Y:00 P:25 SP:F6 CYC:146 SL:131
15:25:21: E136  A9 00     LDA #$00                       A:10 X:C7 Y:00 P:25 SP:F6 CYC:158 SL:131
15:25:21: E138  8D 06 20  STA $2006 = 00                 A:00 X:C7 Y:00 P:27 SP:F6 CYC:164 SL:131
15:25:21: E13B  8D 06 20  STA $2006 = 00                 A:00 X:C7 Y:00 P:27 SP:F6 CYC:176 SL:131
15:25:21: E13E  68        PLA                            A:00 X:C7 Y:00 P:27 SP:F6 CYC:188 SL:131
15:25:21: E13F  60        RTS                            A:7B X:C7 Y:00 P:25 SP:F7 CYC:200 SL:131
15:25:21: E121  CA        DEX                            A:7B X:C7 Y:00 P:25 SP:F9 CYC:218 SL:131
15:25:21: E122  D0 FA     BNE $E11E                      A:7B X:C6 Y:00 P:A5 SP:F9 CYC:224 SL:131
15:25:21: E11E  20 25 E1  JSR $E125                      A:7B X:C6 Y:00 P:A5 SP:F9 CYC:233 SL:131
15:25:21: E125  48        PHA                            A:7B X:C6 Y:00 P:A5 SP:F7 CYC:251 SL:131
15:25:21: E126  A9 00     LDA #$00                       A:7B X:C6 Y:00 P:A5 SP:F6 CYC:260 SL:131
15:25:21: E128  8D 06 20  STA $2006 = 00                 A:00 X:C6 Y:00 P:27 SP:F6 CYC:266 SL:131
15:25:21: E12B  8D 06 20  STA $2006 = 00                 A:00 X:C6 Y:00 P:27 SP:F6 CYC:278 SL:131
15:25:21: E12E  A9 10     LDA #$10                       A:00 X:C6 Y:00 P:27 SP:F6 CYC:290 SL:131
15:25:21: E130  8D 06 20  STA $2006 = 00                 A:10 X:C6 Y:00 P:25 SP:F6 CYC:296 SL:131
15:25:21: E133  8D 06 20  STA $2006 = 00                 A:10 X:C6 Y:00 P:25 SP:F6 CYC:308 SL:131
15:25:21: E136  A9 00     LDA #$00                       A:10 X:C6 Y:00 P:25 SP:F6 CYC:320 SL:131
15:25:21: E138  8D 06 20  STA $2006 = 00                 A:00 X:C6 Y:00 P:27 SP:F6 CYC:326 SL:131
15:25:21: E13B  8D 06 20  STA $2006 = 00                 A:00 X:C6 Y:00 P:27 SP:F6 CYC:338 SL:131
15:25:21: E13E  68        PLA                            A:00 X:C6 Y:00 P:27 SP:F6 CYC:  9 SL:132
15:25:21: E13F  60        RTS                            A:7B X:C6 Y:00 P:25 SP:F7 CYC: 21 SL:132
15:25:21: E121  CA        DEX                            A:7B X:C6 Y:00 P:25 SP:F9 CYC: 39 SL:132
15:25:21: E122  D0 FA     BNE $E11E                      A:7B X:C5 Y:00 P:A5 SP:F9 CYC: 45 SL:132
15:25:21: E11E  20 25 E1  JSR $E125                      A:7B X:C5 Y:00 P:A5 SP:F9 CYC: 54 SL:132
15:25:21: E125  48        PHA                            A:7B X:C5 Y:00 P:A5 SP:F7 CYC: 72 SL:132
15:25:21: E126  A9 00     LDA #$00                       A:7B X:C5 Y:00 P:A5 SP:F6 CYC: 81 SL:132
15:25:21: E128  8D 06 20  STA $2006 = 00                 A:00 X:C5 Y:00 P:27 SP:F6 CYC: 87 SL:132
15:25:21: E12B  8D 06 20  STA $2006 = 00                 A:00 X:C5 Y:00 P:27 SP:F6 CYC: 99 SL:132
15:25:21: E12E  A9 10     LDA #$10                       A:00 X:C5 Y:00 P:27 SP:F6 CYC:111 SL:132
15:25:21: E130  8D 06 20  STA $2006 = 00                 A:10 X:C5 Y:00 P:25 SP:F6 CYC:117 SL:132
15:25:21: E133  8D 06 20  STA $2006 = 00                 A:10 X:C5 Y:00 P:25 SP:F6 CYC:129 SL:132
15:25:21: E136  A9 00     LDA #$00                       A:10 X:C5 Y:00 P:25 SP:F6 CYC:141 SL:132
15:25:21: E138  8D 06 20  STA $2006 = 00                 A:00 X:C5 Y:00 P:27 SP:F6 CYC:147 SL:132
15:25:21: E13B  8D 06 20  STA $2006 = 00                 A:00 X:C5 Y:00 P:27 SP:F6 CYC:159 SL:132
15:25:21: E13E  68        PLA                            A:00 X:C5 Y:00 P:27 SP:F6 CYC:171 SL:132
15:25:21: E13F  60        RTS                            A:7B X:C5 Y:00 P:25 SP:F7 CYC:183 SL:132
15:25:21: E121  CA        DEX                            A:7B X:C5 Y:00 P:25 SP:F9 CYC:201 SL:132
15:25:21: E122  D0 FA     BNE $E11E                      A:7B X:C4 Y:00 P:A5 SP:F9 CYC:207 SL:132
15:25:21: E11E  20 25 E1  JSR $E125                      A:7B X:C4 Y:00 P:A5 SP:F9 CYC:216 SL:132
15:25:21: E125  48        PHA                            A:7B X:C4 Y:00 P:A5 SP:F7 CYC:234 SL:132
15:25:21: E126  A9 00     LDA #$00                       A:7B X:C4 Y:00 P:A5 SP:F6 CYC:243 SL:132
15:25:21: E128  8D 06 20  STA $2006 = 00                 A:00 X:C4 Y:00 P:27 SP:F6 CYC:249 SL:132
15:25:21: E12B  8D 06 20  STA $2006 = 00                 A:00 X:C4 Y:00 P:27 SP:F6 CYC:261 SL:132
15:25:21: E12E  A9 10     LDA #$10                       A:00 X:C4 Y:00 P:27 SP:F6 CYC:273 SL:132
15:25:21: E130  8D 06 20  STA $2006 = 00                 A:10 X:C4 Y:00 P:25 SP:F6 CYC:279 SL:132
15:25:21: E133  8D 06 20  STA $2006 = 00                 A:10 X:C4 Y:00 P:25 SP:F6 CYC:291 SL:132
15:25:21: E136  A9 00     LDA #$00                       A:10 X:C4 Y:00 P:25 SP:F6 CYC:303 SL:132
15:25:21: E138  8D 06 20  STA $2006 = 00                 A:00 X:C4 Y:00 P:27 SP:F6 CYC:309 SL:132
15:25:21: E13B  8D 06 20  STA $2006 = 00                 A:00 X:C4 Y:00 P:27 SP:F6 CYC:321 SL:132
15:25:21: E13E  68        PLA                            A:00 X:C4 Y:00 P:27 SP:F6 CYC:333 SL:132
15:25:21: E13F  60        RTS                            A:7B X:C4 Y:00 P:25 SP:F7 CYC:  4 SL:133
15:25:21: E121  CA        DEX                            A:7B X:C4 Y:00 P:25 SP:F9 CYC: 22 SL:133
15:25:21: E122  D0 FA     BNE $E11E                      A:7B X:C3 Y:00 P:A5 SP:F9 CYC: 28 SL:133
15:25:21: E11E  20 25 E1  JSR $E125                      A:7B X:C3 Y:00 P:A5 SP:F9 CYC: 37 SL:133
15:25:21: E125  48        PHA                            A:7B X:C3 Y:00 P:A5 SP:F7 CYC: 55 SL:133
15:25:21: E126  A9 00     LDA #$00                       A:7B X:C3 Y:00 P:A5 SP:F6 CYC: 64 SL:133
15:25:21: E128  8D 06 20  STA $2006 = 00                 A:00 X:C3 Y:00 P:27 SP:F6 CYC: 70 SL:133
15:25:21: E12B  8D 06 20  STA $2006 = 00                 A:00 X:C3 Y:00 P:27 SP:F6 CYC: 82 SL:133
15:25:21: E12E  A9 10     LDA #$10                       A:00 X:C3 Y:00 P:27 SP:F6 CYC: 94 SL:133
15:25:21: E130  8D 06 20  STA $2006 = 00                 A:10 X:C3 Y:00 P:25 SP:F6 CYC:100 SL:133
15:25:21: E133  8D 06 20  STA $2006 = 00                 A:10 X:C3 Y:00 P:25 SP:F6 CYC:112 SL:133
15:25:21: E136  A9 00     LDA #$00                       A:10 X:C3 Y:00 P:25 SP:F6 CYC:124 SL:133
15:25:21: E138  8D 06 20  STA $2006 = 00                 A:00 X:C3 Y:00 P:27 SP:F6 CYC:130 SL:133
15:25:21: E13B  8D 06 20  STA $2006 = 00                 A:00 X:C3 Y:00 P:27 SP:F6 CYC:142 SL:133
15:25:21: E13E  68        PLA                            A:00 X:C3 Y:00 P:27 SP:F6 CYC:154 SL:133
15:25:21: E13F  60        RTS                            A:7B X:C3 Y:00 P:25 SP:F7 CYC:166 SL:133
15:25:21: E121  CA        DEX                            A:7B X:C3 Y:00 P:25 SP:F9 CYC:184 SL:133
15:25:21: E122  D0 FA     BNE $E11E                      A:7B X:C2 Y:00 P:A5 SP:F9 CYC:190 SL:133
15:25:21: E11E  20 25 E1  JSR $E125                      A:7B X:C2 Y:00 P:A5 SP:F9 CYC:199 SL:133
15:25:21: E125  48        PHA                            A:7B X:C2 Y:00 P:A5 SP:F7 CYC:217 SL:133
15:25:21: E126  A9 00     LDA #$00                       A:7B X:C2 Y:00 P:A5 SP:F6 CYC:226 SL:133
15:25:21: E128  8D 06 20  STA $2006 = 00                 A:00 X:C2 Y:00 P:27 SP:F6 CYC:232 SL:133
15:25:21: E12B  8D 06 20  STA $2006 = 00                 A:00 X:C2 Y:00 P:27 SP:F6 CYC:244 SL:133
15:25:21: E12E  A9 10     LDA #$10                       A:00 X:C2 Y:00 P:27 SP:F6 CYC:256 SL:133
15:25:21: E130  8D 06 20  STA $2006 = 00                 A:10 X:C2 Y:00 P:25 SP:F6 CYC:262 SL:133
15:25:21: E133  8D 06 20  STA $2006 = 00                 A:10 X:C2 Y:00 P:25 SP:F6 CYC:274 SL:133
15:25:21: E136  A9 00     LDA #$00                       A:10 X:C2 Y:00 P:25 SP:F6 CYC:286 SL:133
15:25:21: E138  8D 06 20  STA $2006 = 00                 A:00 X:C2 Y:00 P:27 SP:F6 CYC:292 SL:133
15:25:21: E13B  8D 06 20  STA $2006 = 00                 A:00 X:C2 Y:00 P:27 SP:F6 CYC:304 SL:133
15:25:21: E13E  68        PLA                            A:00 X:C2 Y:00 P:27 SP:F6 CYC:316 SL:133
15:25:21: E13F  60        RTS                            A:7B X:C2 Y:00 P:25 SP:F7 CYC:328 SL:133
15:25:21: E121  CA        DEX                            A:7B X:C2 Y:00 P:25 SP:F9 CYC:  5 SL:134
15:25:21: E122  D0 FA     BNE $E11E                      A:7B X:C1 Y:00 P:A5 SP:F9 CYC: 11 SL:134
15:25:21: E11E  20 25 E1  JSR $E125                      A:7B X:C1 Y:00 P:A5 SP:F9 CYC: 20 SL:134
15:25:21: E125  48        PHA                            A:7B X:C1 Y:00 P:A5 SP:F7 CYC: 38 SL:134
15:25:21: E126  A9 00     LDA #$00                       A:7B X:C1 Y:00 P:A5 SP:F6 CYC: 47 SL:134
15:25:21: E128  8D 06 20  STA $2006 = 00                 A:00 X:C1 Y:00 P:27 SP:F6 CYC: 53 SL:134
15:25:21: E12B  8D 06 20  STA $2006 = 00                 A:00 X:C1 Y:00 P:27 SP:F6 CYC: 65 SL:134
15:25:21: E12E  A9 10     LDA #$10                       A:00 X:C1 Y:00 P:27 SP:F6 CYC: 77 SL:134
15:25:21: E130  8D 06 20  STA $2006 = 00                 A:10 X:C1 Y:00 P:25 SP:F6 CYC: 83 SL:134
15:25:21: E133  8D 06 20  STA $2006 = 00                 A:10 X:C1 Y:00 P:25 SP:F6 CYC: 95 SL:134
15:25:21: E136  A9 00     LDA #$00                       A:10 X:C1 Y:00 P:25 SP:F6 CYC:107 SL:134
15:25:21: E138  8D 06 20  STA $2006 = 00                 A:00 X:C1 Y:00 P:27 SP:F6 CYC:113 SL:134
15:25:21: E13B  8D 06 20  STA $2006 = 00                 A:00 X:C1 Y:00 P:27 SP:F6 CYC:125 SL:134
15:25:21: E13E  68        PLA                            A:00 X:C1 Y:00 P:27 SP:F6 CYC:137 SL:134
15:25:21: E13F  60        RTS                            A:7B X:C1 Y:00 P:25 SP:F7 CYC:149 SL:134
15:25:21: E121  CA        DEX                            A:7B X:C1 Y:00 P:25 SP:F9 CYC:167 SL:134
15:25:21: E122  D0 FA     BNE $E11E                      A:7B X:C0 Y:00 P:A5 SP:F9 CYC:173 SL:134
15:25:21: E11E  20 25 E1  JSR $E125                      A:7B X:C0 Y:00 P:A5 SP:F9 CYC:182 SL:134
15:25:21: E125  48        PHA                            A:7B X:C0 Y:00 P:A5 SP:F7 CYC:200 SL:134
15:25:21: E126  A9 00     LDA #$00                       A:7B X:C0 Y:00 P:A5 SP:F6 CYC:209 SL:134
15:25:21: E128  8D 06 20  STA $2006 = 00                 A:00 X:C0 Y:00 P:27 SP:F6 CYC:215 SL:134
15:25:21: E12B  8D 06 20  STA $2006 = 00                 A:00 X:C0 Y:00 P:27 SP:F6 CYC:227 SL:134
15:25:21: E12E  A9 10     LDA #$10                       A:00 X:C0 Y:00 P:27 SP:F6 CYC:239 SL:134
15:25:21: E130  8D 06 20  STA $2006 = 00                 A:10 X:C0 Y:00 P:25 SP:F6 CYC:245 SL:134
15:25:21: E133  8D 06 20  STA $2006 = 00                 A:10 X:C0 Y:00 P:25 SP:F6 CYC:257 SL:134
15:25:21: E136  A9 00     LDA #$00                       A:10 X:C0 Y:00 P:25 SP:F6 CYC:269 SL:134
15:25:21: E138  8D 06 20  STA $2006 = 00                 A:00 X:C0 Y:00 P:27 SP:F6 CYC:275 SL:134
15:25:21: E13B  8D 06 20  STA $2006 = 00                 A:00 X:C0 Y:00 P:27 SP:F6 CYC:287 SL:134
15:25:21: E13E  68        PLA                            A:00 X:C0 Y:00 P:27 SP:F6 CYC:299 SL:134
15:25:21: E13F  60        RTS                            A:7B X:C0 Y:00 P:25 SP:F7 CYC:311 SL:134
15:25:21: E121  CA        DEX                            A:7B X:C0 Y:00 P:25 SP:F9 CYC:329 SL:134
15:25:21: E122  D0 FA     BNE $E11E                      A:7B X:BF Y:00 P:A5 SP:F9 CYC:335 SL:134
15:25:21: E11E  20 25 E1  JSR $E125                      A:7B X:BF Y:00 P:A5 SP:F9 CYC:  3 SL:135
15:25:21: E125  48        PHA                            A:7B X:BF Y:00 P:A5 SP:F7 CYC: 21 SL:135
15:25:21: E126  A9 00     LDA #$00                       A:7B X:BF Y:00 P:A5 SP:F6 CYC: 30 SL:135
15:25:21: E128  8D 06 20  STA $2006 = 00                 A:00 X:BF Y:00 P:27 SP:F6 CYC: 36 SL:135
15:25:21: E12B  8D 06 20  STA $2006 = 00                 A:00 X:BF Y:00 P:27 SP:F6 CYC: 48 SL:135
15:25:21: E12E  A9 10     LDA #$10                       A:00 X:BF Y:00 P:27 SP:F6 CYC: 60 SL:135
15:25:21: E130  8D 06 20  STA $2006 = 00                 A:10 X:BF Y:00 P:25 SP:F6 CYC: 66 SL:135
15:25:21: E133  8D 06 20  STA $2006 = 00                 A:10 X:BF Y:00 P:25 SP:F6 CYC: 78 SL:135
15:25:21: E136  A9 00     LDA #$00                       A:10 X:BF Y:00 P:25 SP:F6 CYC: 90 SL:135
15:25:21: E138  8D 06 20  STA $2006 = 00                 A:00 X:BF Y:00 P:27 SP:F6 CYC: 96 SL:135
15:25:21: E13B  8D 06 20  STA $2006 = 00                 A:00 X:BF Y:00 P:27 SP:F6 CYC:108 SL:135
15:25:21: E13E  68        PLA                            A:00 X:BF Y:00 P:27 SP:F6 CYC:120 SL:135
15:25:21: E13F  60        RTS                            A:7B X:BF Y:00 P:25 SP:F7 CYC:132 SL:135
15:25:21: E121  CA        DEX                            A:7B X:BF Y:00 P:25 SP:F9 CYC:150 SL:135
15:25:21: E122  D0 FA     BNE $E11E                      A:7B X:BE Y:00 P:A5 SP:F9 CYC:156 SL:135
15:25:21: E11E  20 25 E1  JSR $E125                      A:7B X:BE Y:00 P:A5 SP:F9 CYC:165 SL:135
15:25:21: E125  48        PHA                            A:7B X:BE Y:00 P:A5 SP:F7 CYC:183 SL:135
15:25:21: E126  A9 00     LDA #$00                       A:7B X:BE Y:00 P:A5 SP:F6 CYC:192 SL:135
15:25:21: E128  8D 06 20  STA $2006 = 00                 A:00 X:BE Y:00 P:27 SP:F6 CYC:198 SL:135
15:25:21: E12B  8D 06 20  STA $2006 = 00                 A:00 X:BE Y:00 P:27 SP:F6 CYC:210 SL:135
15:25:21: E12E  A9 10     LDA #$10                       A:00 X:BE Y:00 P:27 SP:F6 CYC:222 SL:135
15:25:21: E130  8D 06 20  STA $2006 = 00                 A:10 X:BE Y:00 P:25 SP:F6 CYC:228 SL:135
15:25:21: E133  8D 06 20  STA $2006 = 00                 A:10 X:BE Y:00 P:25 SP:F6 CYC:240 SL:135
15:25:21: E136  A9 00     LDA #$00                       A:10 X:BE Y:00 P:25 SP:F6 CYC:252 SL:135
15:25:21: E138  8D 06 20  STA $2006 = 00                 A:00 X:BE Y:00 P:27 SP:F6 CYC:258 SL:135
15:25:21: E13B  8D 06 20  STA $2006 = 00                 A:00 X:BE Y:00 P:27 SP:F6 CYC:270 SL:135
15:25:21: E13E  68        PLA                            A:00 X:BE Y:00 P:27 SP:F6 CYC:282 SL:135
15:25:21: E13F  60        RTS                            A:7B X:BE Y:00 P:25 SP:F7 CYC:294 SL:135
15:25:21: E121  CA        DEX                            A:7B X:BE Y:00 P:25 SP:F9 CYC:312 SL:135
15:25:21: E122  D0 FA     BNE $E11E                      A:7B X:BD Y:00 P:A5 SP:F9 CYC:318 SL:135
15:25:21: E11E  20 25 E1  JSR $E125                      A:7B X:BD Y:00 P:A5 SP:F9 CYC:327 SL:135
15:25:21: E125  48        PHA                            A:7B X:BD Y:00 P:A5 SP:F7 CYC:  4 SL:136
15:25:21: E126  A9 00     LDA #$00                       A:7B X:BD Y:00 P:A5 SP:F6 CYC: 13 SL:136
15:25:21: E128  8D 06 20  STA $2006 = 00                 A:00 X:BD Y:00 P:27 SP:F6 CYC: 19 SL:136
15:25:21: E12B  8D 06 20  STA $2006 = 00                 A:00 X:BD Y:00 P:27 SP:F6 CYC: 31 SL:136
15:25:21: E12E  A9 10     LDA #$10                       A:00 X:BD Y:00 P:27 SP:F6 CYC: 43 SL:136
15:25:21: E130  8D 06 20  STA $2006 = 00                 A:10 X:BD Y:00 P:25 SP:F6 CYC: 49 SL:136
15:25:21: E133  8D 06 20  STA $2006 = 00                 A:10 X:BD Y:00 P:25 SP:F6 CYC: 61 SL:136
15:25:21: E136  A9 00     LDA #$00                       A:10 X:BD Y:00 P:25 SP:F6 CYC: 73 SL:136
15:25:21: E138  8D 06 20  STA $2006 = 00                 A:00 X:BD Y:00 P:27 SP:F6 CYC: 79 SL:136
15:25:21: E13B  8D 06 20  STA $2006 = 00                 A:00 X:BD Y:00 P:27 SP:F6 CYC: 91 SL:136
15:25:21: E13E  68        PLA                            A:00 X:BD Y:00 P:27 SP:F6 CYC:103 SL:136
15:25:21: E13F  60        RTS                            A:7B X:BD Y:00 P:25 SP:F7 CYC:115 SL:136
15:25:21: E121  CA        DEX                            A:7B X:BD Y:00 P:25 SP:F9 CYC:133 SL:136
15:25:21: E122  D0 FA     BNE $E11E                      A:7B X:BC Y:00 P:A5 SP:F9 CYC:139 SL:136
15:25:21: E11E  20 25 E1  JSR $E125                      A:7B X:BC Y:00 P:A5 SP:F9 CYC:148 SL:136
15:25:21: E125  48        PHA                            A:7B X:BC Y:00 P:A5 SP:F7 CYC:166 SL:136
15:25:21: E126  A9 00     LDA #$00                       A:7B X:BC Y:00 P:A5 SP:F6 CYC:175 SL:136
15:25:21: E128  8D 06 20  STA $2006 = 00                 A:00 X:BC Y:00 P:27 SP:F6 CYC:181 SL:136
15:25:21: E12B  8D 06 20  STA $2006 = 00                 A:00 X:BC Y:00 P:27 SP:F6 CYC:193 SL:136
15:25:21: E12E  A9 10     LDA #$10                       A:00 X:BC Y:00 P:27 SP:F6 CYC:205 SL:136
15:25:21: E130  8D 06 20  STA $2006 = 00                 A:10 X:BC Y:00 P:25 SP:F6 CYC:211 SL:136
15:25:21: E133  8D 06 20  STA $2006 = 00                 A:10 X:BC Y:00 P:25 SP:F6 CYC:223 SL:136
15:25:21: E136  A9 00     LDA #$00                       A:10 X:BC Y:00 P:25 SP:F6 CYC:235 SL:136
15:25:21: E138  8D 06 20  STA $2006 = 00                 A:00 X:BC Y:00 P:27 SP:F6 CYC:241 SL:136
15:25:21: E13B  8D 06 20  STA $2006 = 00                 A:00 X:BC Y:00 P:27 SP:F6 CYC:253 SL:136
15:25:21: E13E  68        PLA                            A:00 X:BC Y:00 P:27 SP:F6 CYC:265 SL:136
15:25:21: E13F  60        RTS                            A:7B X:BC Y:00 P:25 SP:F7 CYC:277 SL:136
15:25:21: E121  CA        DEX                            A:7B X:BC Y:00 P:25 SP:F9 CYC:295 SL:136
15:25:21: E122  D0 FA     BNE $E11E                      A:7B X:BB Y:00 P:A5 SP:F9 CYC:301 SL:136
15:25:21: E11E  20 25 E1  JSR $E125                      A:7B X:BB Y:00 P:A5 SP:F9 CYC:310 SL:136
15:25:21: E125  48        PHA                            A:7B X:BB Y:00 P:A5 SP:F7 CYC:328 SL:136
15:25:21: E126  A9 00     LDA #$00                       A:7B X:BB Y:00 P:A5 SP:F6 CYC:337 SL:136
15:25:21: E128  8D 06 20  STA $2006 = 00                 A:00 X:BB Y:00 P:27 SP:F6 CYC:  2 SL:137
15:25:21: E12B  8D 06 20  STA $2006 = 00                 A:00 X:BB Y:00 P:27 SP:F6 CYC: 14 SL:137
15:25:21: E12E  A9 10     LDA #$10                       A:00 X:BB Y:00 P:27 SP:F6 CYC: 26 SL:137
15:25:21: E130  8D 06 20  STA $2006 = 00                 A:10 X:BB Y:00 P:25 SP:F6 CYC: 32 SL:137
15:25:21: E133  8D 06 20  STA $2006 = 00                 A:10 X:BB Y:00 P:25 SP:F6 CYC: 44 SL:137
15:25:21: E136  A9 00     LDA #$00                       A:10 X:BB Y:00 P:25 SP:F6 CYC: 56 SL:137
15:25:21: E138  8D 06 20  STA $2006 = 00                 A:00 X:BB Y:00 P:27 SP:F6 CYC: 62 SL:137
15:25:21: E13B  8D 06 20  STA $2006 = 00                 A:00 X:BB Y:00 P:27 SP:F6 CYC: 74 SL:137
15:25:21: E13E  68        PLA                            A:00 X:BB Y:00 P:27 SP:F6 CYC: 86 SL:137
15:25:21: E13F  60        RTS                            A:7B X:BB Y:00 P:25 SP:F7 CYC: 98 SL:137
15:25:21: E121  CA        DEX                            A:7B X:BB Y:00 P:25 SP:F9 CYC:116 SL:137
15:25:21: E122  D0 FA     BNE $E11E                      A:7B X:BA Y:00 P:A5 SP:F9 CYC:122 SL:137
15:25:21: E11E  20 25 E1  JSR $E125                      A:7B X:BA Y:00 P:A5 SP:F9 CYC:131 SL:137
15:25:21: E125  48        PHA                            A:7B X:BA Y:00 P:A5 SP:F7 CYC:149 SL:137
15:25:21: E126  A9 00     LDA #$00                       A:7B X:BA Y:00 P:A5 SP:F6 CYC:158 SL:137
15:25:21: E128  8D 06 20  STA $2006 = 00                 A:00 X:BA Y:00 P:27 SP:F6 CYC:164 SL:137
15:25:21: E12B  8D 06 20  STA $2006 = 00                 A:00 X:BA Y:00 P:27 SP:F6 CYC:176 SL:137
15:25:21: E12E  A9 10     LDA #$10                       A:00 X:BA Y:00 P:27 SP:F6 CYC:188 SL:137
15:25:21: E130  8D 06 20  STA $2006 = 00                 A:10 X:BA Y:00 P:25 SP:F6 CYC:194 SL:137
15:25:21: E133  8D 06 20  STA $2006 = 00                 A:10 X:BA Y:00 P:25 SP:F6 CYC:206 SL:137
15:25:21: E136  A9 00     LDA #$00                       A:10 X:BA Y:00 P:25 SP:F6 CYC:218 SL:137
15:25:21: E138  8D 06 20  STA $2006 = 00                 A:00 X:BA Y:00 P:27 SP:F6 CYC:224 SL:137
15:25:21: E13B  8D 06 20  STA $2006 = 00                 A:00 X:BA Y:00 P:27 SP:F6 CYC:236 SL:137
15:25:21: E13E  68        PLA                            A:00 X:BA Y:00 P:27 SP:F6 CYC:248 SL:137
15:25:21: E13F  60        RTS                            A:7B X:BA Y:00 P:25 SP:F7 CYC:260 SL:137
15:25:21: E121  CA        DEX                            A:7B X:BA Y:00 P:25 SP:F9 CYC:278 SL:137
15:25:21: E122  D0 FA     BNE $E11E                      A:7B X:B9 Y:00 P:A5 SP:F9 CYC:284 SL:137
15:25:21: E11E  20 25 E1  JSR $E125                      A:7B X:B9 Y:00 P:A5 SP:F9 CYC:293 SL:137
15:25:21: E125  48        PHA                            A:7B X:B9 Y:00 P:A5 SP:F7 CYC:311 SL:137
15:25:21: E126  A9 00     LDA #$00                       A:7B X:B9 Y:00 P:A5 SP:F6 CYC:320 SL:137
15:25:21: E128  8D 06 20  STA $2006 = 00                 A:00 X:B9 Y:00 P:27 SP:F6 CYC:326 SL:137
15:25:21: E12B  8D 06 20  STA $2006 = 00                 A:00 X:B9 Y:00 P:27 SP:F6 CYC:338 SL:137
15:25:21: E12E  A9 10     LDA #$10                       A:00 X:B9 Y:00 P:27 SP:F6 CYC:  9 SL:138
15:25:21: E130  8D 06 20  STA $2006 = 00                 A:10 X:B9 Y:00 P:25 SP:F6 CYC: 15 SL:138
15:25:21: E133  8D 06 20  STA $2006 = 00                 A:10 X:B9 Y:00 P:25 SP:F6 CYC: 27 SL:138
15:25:21: E136  A9 00     LDA #$00                       A:10 X:B9 Y:00 P:25 SP:F6 CYC: 39 SL:138
15:25:21: E138  8D 06 20  STA $2006 = 00                 A:00 X:B9 Y:00 P:27 SP:F6 CYC: 45 SL:138
15:25:21: E13B  8D 06 20  STA $2006 = 00                 A:00 X:B9 Y:00 P:27 SP:F6 CYC: 57 SL:138
15:25:21: E13E  68        PLA                            A:00 X:B9 Y:00 P:27 SP:F6 CYC: 69 SL:138
15:25:21: E13F  60        RTS                            A:7B X:B9 Y:00 P:25 SP:F7 CYC: 81 SL:138
15:25:21: E121  CA        DEX                            A:7B X:B9 Y:00 P:25 SP:F9 CYC: 99 SL:138
15:25:21: E122  D0 FA     BNE $E11E                      A:7B X:B8 Y:00 P:A5 SP:F9 CYC:105 SL:138
15:25:21: E11E  20 25 E1  JSR $E125                      A:7B X:B8 Y:00 P:A5 SP:F9 CYC:114 SL:138
15:25:21: E125  48        PHA                            A:7B X:B8 Y:00 P:A5 SP:F7 CYC:132 SL:138
15:25:21: E126  A9 00     LDA #$00                       A:7B X:B8 Y:00 P:A5 SP:F6 CYC:141 SL:138
15:25:21: E128  8D 06 20  STA $2006 = 00                 A:00 X:B8 Y:00 P:27 SP:F6 CYC:147 SL:138
15:25:21: E12B  8D 06 20  STA $2006 = 00                 A:00 X:B8 Y:00 P:27 SP:F6 CYC:159 SL:138
15:25:21: E12E  A9 10     LDA #$10                       A:00 X:B8 Y:00 P:27 SP:F6 CYC:171 SL:138
15:25:21: E130  8D 06 20  STA $2006 = 00                 A:10 X:B8 Y:00 P:25 SP:F6 CYC:177 SL:138
15:25:21: E133  8D 06 20  STA $2006 = 00                 A:10 X:B8 Y:00 P:25 SP:F6 CYC:189 SL:138
15:25:21: E136  A9 00     LDA #$00                       A:10 X:B8 Y:00 P:25 SP:F6 CYC:201 SL:138
15:25:21: E138  8D 06 20  STA $2006 = 00                 A:00 X:B8 Y:00 P:27 SP:F6 CYC:207 SL:138
15:25:21: E13B  8D 06 20  STA $2006 = 00                 A:00 X:B8 Y:00 P:27 SP:F6 CYC:219 SL:138
15:25:21: E13E  68        PLA                            A:00 X:B8 Y:00 P:27 SP:F6 CYC:231 SL:138
15:25:21: E13F  60        RTS                            A:7B X:B8 Y:00 P:25 SP:F7 CYC:243 SL:138
15:25:21: E121  CA        DEX                            A:7B X:B8 Y:00 P:25 SP:F9 CYC:261 SL:138
15:25:21: E122  D0 FA     BNE $E11E                      A:7B X:B7 Y:00 P:A5 SP:F9 CYC:267 SL:138
15:25:21: E11E  20 25 E1  JSR $E125                      A:7B X:B7 Y:00 P:A5 SP:F9 CYC:276 SL:138
15:25:21: E125  48        PHA                            A:7B X:B7 Y:00 P:A5 SP:F7 CYC:294 SL:138
15:25:21: E126  A9 00     LDA #$00                       A:7B X:B7 Y:00 P:A5 SP:F6 CYC:303 SL:138
15:25:21: E128  8D 06 20  STA $2006 = 00                 A:00 X:B7 Y:00 P:27 SP:F6 CYC:309 SL:138
15:25:21: E12B  8D 06 20  STA $2006 = 00                 A:00 X:B7 Y:00 P:27 SP:F6 CYC:321 SL:138
15:25:21: E12E  A9 10     LDA #$10                       A:00 X:B7 Y:00 P:27 SP:F6 CYC:333 SL:138
15:25:21: E130  8D 06 20  STA $2006 = 00                 A:10 X:B7 Y:00 P:25 SP:F6 CYC:339 SL:138
15:25:21: E133  8D 06 20  STA $2006 = 00                 A:10 X:B7 Y:00 P:25 SP:F6 CYC: 10 SL:139
15:25:21: E136  A9 00     LDA #$00                       A:10 X:B7 Y:00 P:25 SP:F6 CYC: 22 SL:139
15:25:21: E138  8D 06 20  STA $2006 = 00                 A:00 X:B7 Y:00 P:27 SP:F6 CYC: 28 SL:139
15:25:21: E13B  8D 06 20  STA $2006 = 00                 A:00 X:B7 Y:00 P:27 SP:F6 CYC: 40 SL:139
15:25:21: E13E  68        PLA                            A:00 X:B7 Y:00 P:27 SP:F6 CYC: 52 SL:139
15:25:21: E13F  60        RTS                            A:7B X:B7 Y:00 P:25 SP:F7 CYC: 64 SL:139
15:25:21: E121  CA        DEX                            A:7B X:B7 Y:00 P:25 SP:F9 CYC: 82 SL:139
15:25:21: E122  D0 FA     BNE $E11E                      A:7B X:B6 Y:00 P:A5 SP:F9 CYC: 88 SL:139
15:25:21: E11E  20 25 E1  JSR $E125                      A:7B X:B6 Y:00 P:A5 SP:F9 CYC: 97 SL:139
15:25:21: E125  48        PHA                            A:7B X:B6 Y:00 P:A5 SP:F7 CYC:115 SL:139
15:25:21: E126  A9 00     LDA #$00                       A:7B X:B6 Y:00 P:A5 SP:F6 CYC:124 SL:139
15:25:21: E128  8D 06 20  STA $2006 = 00                 A:00 X:B6 Y:00 P:27 SP:F6 CYC:130 SL:139
15:25:21: E12B  8D 06 20  STA $2006 = 00                 A:00 X:B6 Y:00 P:27 SP:F6 CYC:142 SL:139
15:25:21: E12E  A9 10     LDA #$10                       A:00 X:B6 Y:00 P:27 SP:F6 CYC:154 SL:139
15:25:21: E130  8D 06 20  STA $2006 = 00                 A:10 X:B6 Y:00 P:25 SP:F6 CYC:160 SL:139
15:25:21: E133  8D 06 20  STA $2006 = 00                 A:10 X:B6 Y:00 P:25 SP:F6 CYC:172 SL:139
15:25:21: E136  A9 00     LDA #$00                       A:10 X:B6 Y:00 P:25 SP:F6 CYC:184 SL:139
15:25:21: E138  8D 06 20  STA $2006 = 00                 A:00 X:B6 Y:00 P:27 SP:F6 CYC:190 SL:139
15:25:21: E13B  8D 06 20  STA $2006 = 00                 A:00 X:B6 Y:00 P:27 SP:F6 CYC:202 SL:139
15:25:21: E13E  68        PLA                            A:00 X:B6 Y:00 P:27 SP:F6 CYC:214 SL:139
15:25:21: E13F  60        RTS                            A:7B X:B6 Y:00 P:25 SP:F7 CYC:226 SL:139
15:25:21: E121  CA        DEX                            A:7B X:B6 Y:00 P:25 SP:F9 CYC:244 SL:139
15:25:21: E122  D0 FA     BNE $E11E                      A:7B X:B5 Y:00 P:A5 SP:F9 CYC:250 SL:139
15:25:21: E11E  20 25 E1  JSR $E125                      A:7B X:B5 Y:00 P:A5 SP:F9 CYC:259 SL:139
15:25:21: E125  48        PHA                            A:7B X:B5 Y:00 P:A5 SP:F7 CYC:277 SL:139
15:25:21: E126  A9 00     LDA #$00                       A:7B X:B5 Y:00 P:A5 SP:F6 CYC:286 SL:139
15:25:21: E128  8D 06 20  STA $2006 = 00                 A:00 X:B5 Y:00 P:27 SP:F6 CYC:292 SL:139
15:25:21: E12B  8D 06 20  STA $2006 = 00                 A:00 X:B5 Y:00 P:27 SP:F6 CYC:304 SL:139
15:25:21: E12E  A9 10     LDA #$10                       A:00 X:B5 Y:00 P:27 SP:F6 CYC:316 SL:139
15:25:21: E130  8D 06 20  STA $2006 = 00                 A:10 X:B5 Y:00 P:25 SP:F6 CYC:322 SL:139
15:25:21: E133  8D 06 20  STA $2006 = 00                 A:10 X:B5 Y:00 P:25 SP:F6 CYC:334 SL:139
15:25:21: E136  A9 00     LDA #$00                       A:10 X:B5 Y:00 P:25 SP:F6 CYC:  5 SL:140
15:25:21: E138  8D 06 20  STA $2006 = 00                 A:00 X:B5 Y:00 P:27 SP:F6 CYC: 11 SL:140
15:25:21: E13B  8D 06 20  STA $2006 = 00                 A:00 X:B5 Y:00 P:27 SP:F6 CYC: 23 SL:140
15:25:21: E13E  68        PLA                            A:00 X:B5 Y:00 P:27 SP:F6 CYC: 35 SL:140
15:25:21: E13F  60        RTS                            A:7B X:B5 Y:00 P:25 SP:F7 CYC: 47 SL:140
15:25:21: E121  CA        DEX                            A:7B X:B5 Y:00 P:25 SP:F9 CYC: 65 SL:140
15:25:21: E122  D0 FA     BNE $E11E                      A:7B X:B4 Y:00 P:A5 SP:F9 CYC: 71 SL:140
15:25:21: E11E  20 25 E1  JSR $E125                      A:7B X:B4 Y:00 P:A5 SP:F9 CYC: 80 SL:140
15:25:21: E125  48        PHA                            A:7B X:B4 Y:00 P:A5 SP:F7 CYC: 98 SL:140
15:25:21: E126  A9 00     LDA #$00                       A:7B X:B4 Y:00 P:A5 SP:F6 CYC:107 SL:140
15:25:21: E128  8D 06 20  STA $2006 = 00                 A:00 X:B4 Y:00 P:27 SP:F6 CYC:113 SL:140
15:25:21: E12B  8D 06 20  STA $2006 = 00                 A:00 X:B4 Y:00 P:27 SP:F6 CYC:125 SL:140
15:25:21: E12E  A9 10     LDA #$10                       A:00 X:B4 Y:00 P:27 SP:F6 CYC:137 SL:140
15:25:21: E130  8D 06 20  STA $2006 = 00                 A:10 X:B4 Y:00 P:25 SP:F6 CYC:143 SL:140
15:25:21: E133  8D 06 20  STA $2006 = 00                 A:10 X:B4 Y:00 P:25 SP:F6 CYC:155 SL:140
15:25:21: E136  A9 00     LDA #$00                       A:10 X:B4 Y:00 P:25 SP:F6 CYC:167 SL:140
15:25:21: E138  8D 06 20  STA $2006 = 00                 A:00 X:B4 Y:00 P:27 SP:F6 CYC:173 SL:140
15:25:21: E13B  8D 06 20  STA $2006 = 00                 A:00 X:B4 Y:00 P:27 SP:F6 CYC:185 SL:140
15:25:21: E13E  68        PLA                            A:00 X:B4 Y:00 P:27 SP:F6 CYC:197 SL:140
15:25:21: E13F  60        RTS                            A:7B X:B4 Y:00 P:25 SP:F7 CYC:209 SL:140
15:25:21: E121  CA        DEX                            A:7B X:B4 Y:00 P:25 SP:F9 CYC:227 SL:140
15:25:21: E122  D0 FA     BNE $E11E                      A:7B X:B3 Y:00 P:A5 SP:F9 CYC:233 SL:140
15:25:21: E11E  20 25 E1  JSR $E125                      A:7B X:B3 Y:00 P:A5 SP:F9 CYC:242 SL:140
15:25:21: E125  48        PHA                            A:7B X:B3 Y:00 P:A5 SP:F7 CYC:260 SL:140
15:25:21: E126  A9 00     LDA #$00                       A:7B X:B3 Y:00 P:A5 SP:F6 CYC:269 SL:140
15:25:21: E128  8D 06 20  STA $2006 = 00                 A:00 X:B3 Y:00 P:27 SP:F6 CYC:275 SL:140
15:25:21: E12B  8D 06 20  STA $2006 = 00                 A:00 X:B3 Y:00 P:27 SP:F6 CYC:287 SL:140
15:25:21: E12E  A9 10     LDA #$10                       A:00 X:B3 Y:00 P:27 SP:F6 CYC:299 SL:140
15:25:21: E130  8D 06 20  STA $2006 = 00                 A:10 X:B3 Y:00 P:25 SP:F6 CYC:305 SL:140
15:25:21: E133  8D 06 20  STA $2006 = 00                 A:10 X:B3 Y:00 P:25 SP:F6 CYC:317 SL:140
15:25:21: E136  A9 00     LDA #$00                       A:10 X:B3 Y:00 P:25 SP:F6 CYC:329 SL:140
15:25:21: E138  8D 06 20  STA $2006 = 00                 A:00 X:B3 Y:00 P:27 SP:F6 CYC:335 SL:140
15:25:21: E13B  8D 06 20  STA $2006 = 00                 A:00 X:B3 Y:00 P:27 SP:F6 CYC:  6 SL:141
15:25:21: E13E  68        PLA                            A:00 X:B3 Y:00 P:27 SP:F6 CYC: 18 SL:141
15:25:21: E13F  60        RTS                            A:7B X:B3 Y:00 P:25 SP:F7 CYC: 30 SL:141
15:25:21: E121  CA        DEX                            A:7B X:B3 Y:00 P:25 SP:F9 CYC: 48 SL:141
15:25:21: E122  D0 FA     BNE $E11E                      A:7B X:B2 Y:00 P:A5 SP:F9 CYC: 54 SL:141
15:25:21: E11E  20 25 E1  JSR $E125                      A:7B X:B2 Y:00 P:A5 SP:F9 CYC: 63 SL:141
15:25:21: E125  48        PHA                            A:7B X:B2 Y:00 P:A5 SP:F7 CYC: 81 SL:141
15:25:21: E126  A9 00     LDA #$00                       A:7B X:B2 Y:00 P:A5 SP:F6 CYC: 90 SL:141
15:25:21: E128  8D 06 20  STA $2006 = 00                 A:00 X:B2 Y:00 P:27 SP:F6 CYC: 96 SL:141
15:25:21: E12B  8D 06 20  STA $2006 = 00                 A:00 X:B2 Y:00 P:27 SP:F6 CYC:108 SL:141
15:25:21: E12E  A9 10     LDA #$10                       A:00 X:B2 Y:00 P:27 SP:F6 CYC:120 SL:141
15:25:21: E130  8D 06 20  STA $2006 = 00                 A:10 X:B2 Y:00 P:25 SP:F6 CYC:126 SL:141
15:25:21: E133  8D 06 20  STA $2006 = 00                 A:10 X:B2 Y:00 P:25 SP:F6 CYC:138 SL:141
15:25:21: E136  A9 00     LDA #$00                       A:10 X:B2 Y:00 P:25 SP:F6 CYC:150 SL:141
15:25:21: E138  8D 06 20  STA $2006 = 00                 A:00 X:B2 Y:00 P:27 SP:F6 CYC:156 SL:141
15:25:21: E13B  8D 06 20  STA $2006 = 00                 A:00 X:B2 Y:00 P:27 SP:F6 CYC:168 SL:141
15:25:21: E13E  68        PLA                            A:00 X:B2 Y:00 P:27 SP:F6 CYC:180 SL:141
15:25:21: E13F  60        RTS                            A:7B X:B2 Y:00 P:25 SP:F7 CYC:192 SL:141
15:25:21: E121  CA        DEX                            A:7B X:B2 Y:00 P:25 SP:F9 CYC:210 SL:141
15:25:21: E122  D0 FA     BNE $E11E                      A:7B X:B1 Y:00 P:A5 SP:F9 CYC:216 SL:141
15:25:21: E11E  20 25 E1  JSR $E125                      A:7B X:B1 Y:00 P:A5 SP:F9 CYC:225 SL:141
15:25:21: E125  48        PHA                            A:7B X:B1 Y:00 P:A5 SP:F7 CYC:243 SL:141
15:25:21: E126  A9 00     LDA #$00                       A:7B X:B1 Y:00 P:A5 SP:F6 CYC:252 SL:141
15:25:21: E128  8D 06 20  STA $2006 = 00                 A:00 X:B1 Y:00 P:27 SP:F6 CYC:258 SL:141
15:25:21: E12B  8D 06 20  STA $2006 = 00                 A:00 X:B1 Y:00 P:27 SP:F6 CYC:270 SL:141
15:25:21: E12E  A9 10     LDA #$10                       A:00 X:B1 Y:00 P:27 SP:F6 CYC:282 SL:141
15:25:21: E130  8D 06 20  STA $2006 = 00                 A:10 X:B1 Y:00 P:25 SP:F6 CYC:288 SL:141
15:25:21: E133  8D 06 20  STA $2006 = 00                 A:10 X:B1 Y:00 P:25 SP:F6 CYC:300 SL:141
15:25:22: E136  A9 00     LDA #$00                       A:10 X:B1 Y:00 P:25 SP:F6 CYC:312 SL:141
15:25:22: E138  8D 06 20  STA $2006 = 00                 A:00 X:B1 Y:00 P:27 SP:F6 CYC:318 SL:141
15:25:22: E13B  8D 06 20  STA $2006 = 00                 A:00 X:B1 Y:00 P:27 SP:F6 CYC:330 SL:141
15:25:22: E13E  68        PLA                            A:00 X:B1 Y:00 P:27 SP:F6 CYC:  1 SL:142
15:25:22: E13F  60        RTS                            A:7B X:B1 Y:00 P:25 SP:F7 CYC: 13 SL:142
15:25:22: E121  CA        DEX                            A:7B X:B1 Y:00 P:25 SP:F9 CYC: 31 SL:142
15:25:22: E122  D0 FA     BNE $E11E                      A:7B X:B0 Y:00 P:A5 SP:F9 CYC: 37 SL:142
15:25:22: E11E  20 25 E1  JSR $E125                      A:7B X:B0 Y:00 P:A5 SP:F9 CYC: 46 SL:142
15:25:22: E125  48        PHA                            A:7B X:B0 Y:00 P:A5 SP:F7 CYC: 64 SL:142
15:25:22: E126  A9 00     LDA #$00                       A:7B X:B0 Y:00 P:A5 SP:F6 CYC: 73 SL:142
15:25:22: E128  8D 06 20  STA $2006 = 00                 A:00 X:B0 Y:00 P:27 SP:F6 CYC: 79 SL:142
15:25:22: E12B  8D 06 20  STA $2006 = 00                 A:00 X:B0 Y:00 P:27 SP:F6 CYC: 91 SL:142
15:25:22: E12E  A9 10     LDA #$10                       A:00 X:B0 Y:00 P:27 SP:F6 CYC:103 SL:142
15:25:22: E130  8D 06 20  STA $2006 = 00                 A:10 X:B0 Y:00 P:25 SP:F6 CYC:109 SL:142
15:25:22: E133  8D 06 20  STA $2006 = 00                 A:10 X:B0 Y:00 P:25 SP:F6 CYC:121 SL:142
15:25:22: E136  A9 00     LDA #$00                       A:10 X:B0 Y:00 P:25 SP:F6 CYC:133 SL:142
15:25:22: E138  8D 06 20  STA $2006 = 00                 A:00 X:B0 Y:00 P:27 SP:F6 CYC:139 SL:142
15:25:22: E13B  8D 06 20  STA $2006 = 00                 A:00 X:B0 Y:00 P:27 SP:F6 CYC:151 SL:142
15:25:22: E13E  68        PLA                            A:00 X:B0 Y:00 P:27 SP:F6 CYC:163 SL:142
15:25:22: E13F  60        RTS                            A:7B X:B0 Y:00 P:25 SP:F7 CYC:175 SL:142
15:25:22: E121  CA        DEX                            A:7B X:B0 Y:00 P:25 SP:F9 CYC:193 SL:142
15:25:22: E122  D0 FA     BNE $E11E                      A:7B X:AF Y:00 P:A5 SP:F9 CYC:199 SL:142
15:25:22: E11E  20 25 E1  JSR $E125                      A:7B X:AF Y:00 P:A5 SP:F9 CYC:208 SL:142
15:25:22: E125  48        PHA                            A:7B X:AF Y:00 P:A5 SP:F7 CYC:226 SL:142
15:25:22: E126  A9 00     LDA #$00                       A:7B X:AF Y:00 P:A5 SP:F6 CYC:235 SL:142
15:25:22: E128  8D 06 20  STA $2006 = 00                 A:00 X:AF Y:00 P:27 SP:F6 CYC:241 SL:142
15:25:22: E12B  8D 06 20  STA $2006 = 00                 A:00 X:AF Y:00 P:27 SP:F6 CYC:253 SL:142
15:25:22: E12E  A9 10     LDA #$10                       A:00 X:AF Y:00 P:27 SP:F6 CYC:265 SL:142
15:25:22: E130  8D 06 20  STA $2006 = 00                 A:10 X:AF Y:00 P:25 SP:F6 CYC:271 SL:142
15:25:22: E133  8D 06 20  STA $2006 = 00                 A:10 X:AF Y:00 P:25 SP:F6 CYC:283 SL:142
15:25:22: E136  A9 00     LDA #$00                       A:10 X:AF Y:00 P:25 SP:F6 CYC:295 SL:142
15:25:22: E138  8D 06 20  STA $2006 = 00                 A:00 X:AF Y:00 P:27 SP:F6 CYC:301 SL:142
15:25:22: E13B  8D 06 20  STA $2006 = 00                 A:00 X:AF Y:00 P:27 SP:F6 CYC:313 SL:142
15:25:22: E13E  68        PLA                            A:00 X:AF Y:00 P:27 SP:F6 CYC:325 SL:142
15:25:22: E13F  60        RTS                            A:7B X:AF Y:00 P:25 SP:F7 CYC:337 SL:142
15:25:22: E121  CA        DEX                            A:7B X:AF Y:00 P:25 SP:F9 CYC: 14 SL:143
15:25:22: E122  D0 FA     BNE $E11E                      A:7B X:AE Y:00 P:A5 SP:F9 CYC: 20 SL:143
15:25:22: E11E  20 25 E1  JSR $E125                      A:7B X:AE Y:00 P:A5 SP:F9 CYC: 29 SL:143
15:25:22: E125  48        PHA                            A:7B X:AE Y:00 P:A5 SP:F7 CYC: 47 SL:143
15:25:22: E126  A9 00     LDA #$00                       A:7B X:AE Y:00 P:A5 SP:F6 CYC: 56 SL:143
15:25:22: E128  8D 06 20  STA $2006 = 00                 A:00 X:AE Y:00 P:27 SP:F6 CYC: 62 SL:143
15:25:22: E12B  8D 06 20  STA $2006 = 00                 A:00 X:AE Y:00 P:27 SP:F6 CYC: 74 SL:143
15:25:22: E12E  A9 10     LDA #$10                       A:00 X:AE Y:00 P:27 SP:F6 CYC: 86 SL:143
15:25:22: E130  8D 06 20  STA $2006 = 00                 A:10 X:AE Y:00 P:25 SP:F6 CYC: 92 SL:143
15:25:22: E133  8D 06 20  STA $2006 = 00                 A:10 X:AE Y:00 P:25 SP:F6 CYC:104 SL:143
15:25:22: E136  A9 00     LDA #$00                       A:10 X:AE Y:00 P:25 SP:F6 CYC:116 SL:143
15:25:22: E138  8D 06 20  STA $2006 = 00                 A:00 X:AE Y:00 P:27 SP:F6 CYC:122 SL:143
15:25:22: E13B  8D 06 20  STA $2006 = 00                 A:00 X:AE Y:00 P:27 SP:F6 CYC:134 SL:143
15:25:22: E13E  68        PLA                            A:00 X:AE Y:00 P:27 SP:F6 CYC:146 SL:143
15:25:22: E13F  60        RTS                            A:7B X:AE Y:00 P:25 SP:F7 CYC:158 SL:143
15:25:22: E121  CA        DEX                            A:7B X:AE Y:00 P:25 SP:F9 CYC:176 SL:143
15:25:22: E122  D0 FA     BNE $E11E                      A:7B X:AD Y:00 P:A5 SP:F9 CYC:182 SL:143
15:25:22: E11E  20 25 E1  JSR $E125                      A:7B X:AD Y:00 P:A5 SP:F9 CYC:191 SL:143
15:25:22: E125  48        PHA                            A:7B X:AD Y:00 P:A5 SP:F7 CYC:209 SL:143
15:25:22: E126  A9 00     LDA #$00                       A:7B X:AD Y:00 P:A5 SP:F6 CYC:218 SL:143
15:25:22: E128  8D 06 20  STA $2006 = 00                 A:00 X:AD Y:00 P:27 SP:F6 CYC:224 SL:143
15:25:22: E12B  8D 06 20  STA $2006 = 00                 A:00 X:AD Y:00 P:27 SP:F6 CYC:236 SL:143
15:25:22: E12E  A9 10     LDA #$10                       A:00 X:AD Y:00 P:27 SP:F6 CYC:248 SL:143
15:25:22: E130  8D 06 20  STA $2006 = 00                 A:10 X:AD Y:00 P:25 SP:F6 CYC:254 SL:143
15:25:22: E133  8D 06 20  STA $2006 = 00                 A:10 X:AD Y:00 P:25 SP:F6 CYC:266 SL:143
15:25:22: E136  A9 00     LDA #$00                       A:10 X:AD Y:00 P:25 SP:F6 CYC:278 SL:143
15:25:22: E138  8D 06 20  STA $2006 = 00                 A:00 X:AD Y:00 P:27 SP:F6 CYC:284 SL:143
15:25:22: E13B  8D 06 20  STA $2006 = 00                 A:00 X:AD Y:00 P:27 SP:F6 CYC:296 SL:143
15:25:22: E13E  68        PLA                            A:00 X:AD Y:00 P:27 SP:F6 CYC:308 SL:143
15:25:22: E13F  60        RTS                            A:7B X:AD Y:00 P:25 SP:F7 CYC:320 SL:143
15:25:22: E121  CA        DEX                            A:7B X:AD Y:00 P:25 SP:F9 CYC:338 SL:143
15:25:22: E122  D0 FA     BNE $E11E                      A:7B X:AC Y:00 P:A5 SP:F9 CYC:  3 SL:144
15:25:22: E11E  20 25 E1  JSR $E125                      A:7B X:AC Y:00 P:A5 SP:F9 CYC: 12 SL:144
15:25:22: E125  48        PHA                            A:7B X:AC Y:00 P:A5 SP:F7 CYC: 30 SL:144
15:25:22: E126  A9 00     LDA #$00                       A:7B X:AC Y:00 P:A5 SP:F6 CYC: 39 SL:144
15:25:22: E128  8D 06 20  STA $2006 = 00                 A:00 X:AC Y:00 P:27 SP:F6 CYC: 45 SL:144
15:25:22: E12B  8D 06 20  STA $2006 = 00                 A:00 X:AC Y:00 P:27 SP:F6 CYC: 57 SL:144
15:25:22: E12E  A9 10     LDA #$10                       A:00 X:AC Y:00 P:27 SP:F6 CYC: 69 SL:144
15:25:22: E130  8D 06 20  STA $2006 = 00                 A:10 X:AC Y:00 P:25 SP:F6 CYC: 75 SL:144
15:25:22: E133  8D 06 20  STA $2006 = 00                 A:10 X:AC Y:00 P:25 SP:F6 CYC: 87 SL:144
15:25:22: E136  A9 00     LDA #$00                       A:10 X:AC Y:00 P:25 SP:F6 CYC: 99 SL:144
15:25:22: E138  8D 06 20  STA $2006 = 00                 A:00 X:AC Y:00 P:27 SP:F6 CYC:105 SL:144
15:25:22: E13B  8D 06 20  STA $2006 = 00                 A:00 X:AC Y:00 P:27 SP:F6 CYC:117 SL:144
15:25:22: E13E  68        PLA                            A:00 X:AC Y:00 P:27 SP:F6 CYC:129 SL:144
15:25:22: E13F  60        RTS                            A:7B X:AC Y:00 P:25 SP:F7 CYC:141 SL:144
15:25:22: E121  CA        DEX                            A:7B X:AC Y:00 P:25 SP:F9 CYC:159 SL:144
15:25:22: E122  D0 FA     BNE $E11E                      A:7B X:AB Y:00 P:A5 SP:F9 CYC:165 SL:144
15:25:22: E11E  20 25 E1  JSR $E125                      A:7B X:AB Y:00 P:A5 SP:F9 CYC:174 SL:144
15:25:22: E125  48        PHA                            A:7B X:AB Y:00 P:A5 SP:F7 CYC:192 SL:144
15:25:22: E126  A9 00     LDA #$00                       A:7B X:AB Y:00 P:A5 SP:F6 CYC:201 SL:144
15:25:22: E128  8D 06 20  STA $2006 = 00                 A:00 X:AB Y:00 P:27 SP:F6 CYC:207 SL:144
15:25:22: E12B  8D 06 20  STA $2006 = 00                 A:00 X:AB Y:00 P:27 SP:F6 CYC:219 SL:144
15:25:22: E12E  A9 10     LDA #$10                       A:00 X:AB Y:00 P:27 SP:F6 CYC:231 SL:144
15:25:22: E130  8D 06 20  STA $2006 = 00                 A:10 X:AB Y:00 P:25 SP:F6 CYC:237 SL:144
15:25:22: E133  8D 06 20  STA $2006 = 00                 A:10 X:AB Y:00 P:25 SP:F6 CYC:249 SL:144
15:25:22: E136  A9 00     LDA #$00                       A:10 X:AB Y:00 P:25 SP:F6 CYC:261 SL:144
15:25:22: E138  8D 06 20  STA $2006 = 00                 A:00 X:AB Y:00 P:27 SP:F6 CYC:267 SL:144
15:25:22: E13B  8D 06 20  STA $2006 = 00                 A:00 X:AB Y:00 P:27 SP:F6 CYC:279 SL:144
15:25:22: E13E  68        PLA                            A:00 X:AB Y:00 P:27 SP:F6 CYC:291 SL:144
15:25:22: E13F  60        RTS                            A:7B X:AB Y:00 P:25 SP:F7 CYC:303 SL:144
15:25:22: E121  CA        DEX                            A:7B X:AB Y:00 P:25 SP:F9 CYC:321 SL:144
15:25:22: E122  D0 FA     BNE $E11E                      A:7B X:AA Y:00 P:A5 SP:F9 CYC:327 SL:144
15:25:22: E11E  20 25 E1  JSR $E125                      A:7B X:AA Y:00 P:A5 SP:F9 CYC:336 SL:144
15:25:22: E125  48        PHA                            A:7B X:AA Y:00 P:A5 SP:F7 CYC: 13 SL:145
15:25:22: E126  A9 00     LDA #$00                       A:7B X:AA Y:00 P:A5 SP:F6 CYC: 22 SL:145
15:25:22: E128  8D 06 20  STA $2006 = 00                 A:00 X:AA Y:00 P:27 SP:F6 CYC: 28 SL:145
15:25:22: E12B  8D 06 20  STA $2006 = 00                 A:00 X:AA Y:00 P:27 SP:F6 CYC: 40 SL:145
15:25:22: E12E  A9 10     LDA #$10                       A:00 X:AA Y:00 P:27 SP:F6 CYC: 52 SL:145
15:25:22: E130  8D 06 20  STA $2006 = 00                 A:10 X:AA Y:00 P:25 SP:F6 CYC: 58 SL:145
15:25:22: E133  8D 06 20  STA $2006 = 00                 A:10 X:AA Y:00 P:25 SP:F6 CYC: 70 SL:145
15:25:22: E136  A9 00     LDA #$00                       A:10 X:AA Y:00 P:25 SP:F6 CYC: 82 SL:145
15:25:22: E138  8D 06 20  STA $2006 = 00                 A:00 X:AA Y:00 P:27 SP:F6 CYC: 88 SL:145
15:25:22: E13B  8D 06 20  STA $2006 = 00                 A:00 X:AA Y:00 P:27 SP:F6 CYC:100 SL:145
15:25:22: E13E  68        PLA                            A:00 X:AA Y:00 P:27 SP:F6 CYC:112 SL:145
15:25:22: E13F  60        RTS                            A:7B X:AA Y:00 P:25 SP:F7 CYC:124 SL:145
15:25:22: E121  CA        DEX                            A:7B X:AA Y:00 P:25 SP:F9 CYC:142 SL:145
15:25:22: E122  D0 FA     BNE $E11E                      A:7B X:A9 Y:00 P:A5 SP:F9 CYC:148 SL:145
15:25:22: E11E  20 25 E1  JSR $E125                      A:7B X:A9 Y:00 P:A5 SP:F9 CYC:157 SL:145
15:25:22: E125  48        PHA                            A:7B X:A9 Y:00 P:A5 SP:F7 CYC:175 SL:145
15:25:22: E126  A9 00     LDA #$00                       A:7B X:A9 Y:00 P:A5 SP:F6 CYC:184 SL:145
15:25:22: E128  8D 06 20  STA $2006 = 00                 A:00 X:A9 Y:00 P:27 SP:F6 CYC:190 SL:145
15:25:22: E12B  8D 06 20  STA $2006 = 00                 A:00 X:A9 Y:00 P:27 SP:F6 CYC:202 SL:145
15:25:22: E12E  A9 10     LDA #$10                       A:00 X:A9 Y:00 P:27 SP:F6 CYC:214 SL:145
15:25:22: E130  8D 06 20  STA $2006 = 00                 A:10 X:A9 Y:00 P:25 SP:F6 CYC:220 SL:145
15:25:22: E133  8D 06 20  STA $2006 = 00                 A:10 X:A9 Y:00 P:25 SP:F6 CYC:232 SL:145
15:25:22: E136  A9 00     LDA #$00                       A:10 X:A9 Y:00 P:25 SP:F6 CYC:244 SL:145
15:25:22: E138  8D 06 20  STA $2006 = 00                 A:00 X:A9 Y:00 P:27 SP:F6 CYC:250 SL:145
15:25:22: E13B  8D 06 20  STA $2006 = 00                 A:00 X:A9 Y:00 P:27 SP:F6 CYC:262 SL:145
15:25:22: E13E  68        PLA                            A:00 X:A9 Y:00 P:27 SP:F6 CYC:274 SL:145
15:25:22: E13F  60        RTS                            A:7B X:A9 Y:00 P:25 SP:F7 CYC:286 SL:145
15:25:22: E121  CA        DEX                            A:7B X:A9 Y:00 P:25 SP:F9 CYC:304 SL:145
15:25:22: E122  D0 FA     BNE $E11E                      A:7B X:A8 Y:00 P:A5 SP:F9 CYC:310 SL:145
15:25:22: E11E  20 25 E1  JSR $E125                      A:7B X:A8 Y:00 P:A5 SP:F9 CYC:319 SL:145
15:25:22: E125  48        PHA                            A:7B X:A8 Y:00 P:A5 SP:F7 CYC:337 SL:145
15:25:22: E126  A9 00     LDA #$00                       A:7B X:A8 Y:00 P:A5 SP:F6 CYC:  5 SL:146
15:25:22: E128  8D 06 20  STA $2006 = 00                 A:00 X:A8 Y:00 P:27 SP:F6 CYC: 11 SL:146
15:25:22: E12B  8D 06 20  STA $2006 = 00                 A:00 X:A8 Y:00 P:27 SP:F6 CYC: 23 SL:146
15:25:22: E12E  A9 10     LDA #$10                       A:00 X:A8 Y:00 P:27 SP:F6 CYC: 35 SL:146
15:25:22: E130  8D 06 20  STA $2006 = 00                 A:10 X:A8 Y:00 P:25 SP:F6 CYC: 41 SL:146
15:25:22: E133  8D 06 20  STA $2006 = 00                 A:10 X:A8 Y:00 P:25 SP:F6 CYC: 53 SL:146
15:25:22: E136  A9 00     LDA #$00                       A:10 X:A8 Y:00 P:25 SP:F6 CYC: 65 SL:146
15:25:22: E138  8D 06 20  STA $2006 = 00                 A:00 X:A8 Y:00 P:27 SP:F6 CYC: 71 SL:146
15:25:22: E13B  8D 06 20  STA $2006 = 00                 A:00 X:A8 Y:00 P:27 SP:F6 CYC: 83 SL:146
15:25:22: E13E  68        PLA                            A:00 X:A8 Y:00 P:27 SP:F6 CYC: 95 SL:146
15:25:22: E13F  60        RTS                            A:7B X:A8 Y:00 P:25 SP:F7 CYC:107 SL:146
15:25:22: E121  CA        DEX                            A:7B X:A8 Y:00 P:25 SP:F9 CYC:125 SL:146
15:25:22: E122  D0 FA     BNE $E11E                      A:7B X:A7 Y:00 P:A5 SP:F9 CYC:131 SL:146
15:25:22: E11E  20 25 E1  JSR $E125                      A:7B X:A7 Y:00 P:A5 SP:F9 CYC:140 SL:146
15:25:22: E125  48        PHA                            A:7B X:A7 Y:00 P:A5 SP:F7 CYC:158 SL:146
15:25:22: E126  A9 00     LDA #$00                       A:7B X:A7 Y:00 P:A5 SP:F6 CYC:167 SL:146
15:25:22: E128  8D 06 20  STA $2006 = 00                 A:00 X:A7 Y:00 P:27 SP:F6 CYC:173 SL:146
15:25:22: E12B  8D 06 20  STA $2006 = 00                 A:00 X:A7 Y:00 P:27 SP:F6 CYC:185 SL:146
15:25:22: E12E  A9 10     LDA #$10                       A:00 X:A7 Y:00 P:27 SP:F6 CYC:197 SL:146
15:25:22: E130  8D 06 20  STA $2006 = 00                 A:10 X:A7 Y:00 P:25 SP:F6 CYC:203 SL:146
15:25:22: E133  8D 06 20  STA $2006 = 00                 A:10 X:A7 Y:00 P:25 SP:F6 CYC:215 SL:146
15:25:22: E136  A9 00     LDA #$00                       A:10 X:A7 Y:00 P:25 SP:F6 CYC:227 SL:146
15:25:22: E138  8D 06 20  STA $2006 = 00                 A:00 X:A7 Y:00 P:27 SP:F6 CYC:233 SL:146
15:25:22: E13B  8D 06 20  STA $2006 = 00                 A:00 X:A7 Y:00 P:27 SP:F6 CYC:245 SL:146
15:25:22: E13E  68        PLA                            A:00 X:A7 Y:00 P:27 SP:F6 CYC:257 SL:146
15:25:22: E13F  60        RTS                            A:7B X:A7 Y:00 P:25 SP:F7 CYC:269 SL:146
15:25:22: E121  CA        DEX                            A:7B X:A7 Y:00 P:25 SP:F9 CYC:287 SL:146
15:25:22: E122  D0 FA     BNE $E11E                      A:7B X:A6 Y:00 P:A5 SP:F9 CYC:293 SL:146
15:25:22: E11E  20 25 E1  JSR $E125                      A:7B X:A6 Y:00 P:A5 SP:F9 CYC:302 SL:146
15:25:22: E125  48        PHA                            A:7B X:A6 Y:00 P:A5 SP:F7 CYC:320 SL:146
15:25:22: E126  A9 00     LDA #$00                       A:7B X:A6 Y:00 P:A5 SP:F6 CYC:329 SL:146
15:25:22: E128  8D 06 20  STA $2006 = 00                 A:00 X:A6 Y:00 P:27 SP:F6 CYC:335 SL:146
15:25:22: E12B  8D 06 20  STA $2006 = 00                 A:00 X:A6 Y:00 P:27 SP:F6 CYC:  6 SL:147
15:25:22: E12E  A9 10     LDA #$10                       A:00 X:A6 Y:00 P:27 SP:F6 CYC: 18 SL:147
15:25:22: E130  8D 06 20  STA $2006 = 00                 A:10 X:A6 Y:00 P:25 SP:F6 CYC: 24 SL:147
15:25:22: E133  8D 06 20  STA $2006 = 00                 A:10 X:A6 Y:00 P:25 SP:F6 CYC: 36 SL:147
15:25:22: E136  A9 00     LDA #$00                       A:10 X:A6 Y:00 P:25 SP:F6 CYC: 48 SL:147
15:25:22: E138  8D 06 20  STA $2006 = 00                 A:00 X:A6 Y:00 P:27 SP:F6 CYC: 54 SL:147
15:25:22: E13B  8D 06 20  STA $2006 = 00                 A:00 X:A6 Y:00 P:27 SP:F6 CYC: 66 SL:147
15:25:22: E13E  68        PLA                            A:00 X:A6 Y:00 P:27 SP:F6 CYC: 78 SL:147
15:25:22: E13F  60        RTS                            A:7B X:A6 Y:00 P:25 SP:F7 CYC: 90 SL:147
15:25:22: E121  CA        DEX                            A:7B X:A6 Y:00 P:25 SP:F9 CYC:108 SL:147
15:25:22: E122  D0 FA     BNE $E11E                      A:7B X:A5 Y:00 P:A5 SP:F9 CYC:114 SL:147
15:25:22: E11E  20 25 E1  JSR $E125                      A:7B X:A5 Y:00 P:A5 SP:F9 CYC:123 SL:147
15:25:22: E125  48        PHA                            A:7B X:A5 Y:00 P:A5 SP:F7 CYC:141 SL:147
15:25:22: E126  A9 00     LDA #$00                       A:7B X:A5 Y:00 P:A5 SP:F6 CYC:150 SL:147
15:25:22: E128  8D 06 20  STA $2006 = 00                 A:00 X:A5 Y:00 P:27 SP:F6 CYC:156 SL:147
15:25:22: E12B  8D 06 20  STA $2006 = 00                 A:00 X:A5 Y:00 P:27 SP:F6 CYC:168 SL:147
15:25:22: E12E  A9 10     LDA #$10                       A:00 X:A5 Y:00 P:27 SP:F6 CYC:180 SL:147
15:25:22: E130  8D 06 20  STA $2006 = 00                 A:10 X:A5 Y:00 P:25 SP:F6 CYC:186 SL:147
15:25:22: E133  8D 06 20  STA $2006 = 00                 A:10 X:A5 Y:00 P:25 SP:F6 CYC:198 SL:147
15:25:22: E136  A9 00     LDA #$00                       A:10 X:A5 Y:00 P:25 SP:F6 CYC:210 SL:147
15:25:22: E138  8D 06 20  STA $2006 = 00                 A:00 X:A5 Y:00 P:27 SP:F6 CYC:216 SL:147
15:25:22: E13B  8D 06 20  STA $2006 = 00                 A:00 X:A5 Y:00 P:27 SP:F6 CYC:228 SL:147
15:25:22: E13E  68        PLA                            A:00 X:A5 Y:00 P:27 SP:F6 CYC:240 SL:147
15:25:22: E13F  60        RTS                            A:7B X:A5 Y:00 P:25 SP:F7 CYC:252 SL:147
15:25:22: E121  CA        DEX                            A:7B X:A5 Y:00 P:25 SP:F9 CYC:270 SL:147
15:25:22: E122  D0 FA     BNE $E11E                      A:7B X:A4 Y:00 P:A5 SP:F9 CYC:276 SL:147
15:25:22: E11E  20 25 E1  JSR $E125                      A:7B X:A4 Y:00 P:A5 SP:F9 CYC:285 SL:147
15:25:22: E125  48        PHA                            A:7B X:A4 Y:00 P:A5 SP:F7 CYC:303 SL:147
15:25:22: E126  A9 00     LDA #$00                       A:7B X:A4 Y:00 P:A5 SP:F6 CYC:312 SL:147
15:25:22: E128  8D 06 20  STA $2006 = 00                 A:00 X:A4 Y:00 P:27 SP:F6 CYC:318 SL:147
15:25:22: E12B  8D 06 20  STA $2006 = 00                 A:00 X:A4 Y:00 P:27 SP:F6 CYC:330 SL:147
15:25:22: E12E  A9 10     LDA #$10                       A:00 X:A4 Y:00 P:27 SP:F6 CYC:  1 SL:148
15:25:22: E130  8D 06 20  STA $2006 = 00                 A:10 X:A4 Y:00 P:25 SP:F6 CYC:  7 SL:148
15:25:22: E133  8D 06 20  STA $2006 = 00                 A:10 X:A4 Y:00 P:25 SP:F6 CYC: 19 SL:148
15:25:22: E136  A9 00     LDA #$00                       A:10 X:A4 Y:00 P:25 SP:F6 CYC: 31 SL:148
15:25:22: E138  8D 06 20  STA $2006 = 00                 A:00 X:A4 Y:00 P:27 SP:F6 CYC: 37 SL:148
15:25:22: E13B  8D 06 20  STA $2006 = 00                 A:00 X:A4 Y:00 P:27 SP:F6 CYC: 49 SL:148
15:25:22: E13E  68        PLA                            A:00 X:A4 Y:00 P:27 SP:F6 CYC: 61 SL:148
15:25:22: E13F  60        RTS                            A:7B X:A4 Y:00 P:25 SP:F7 CYC: 73 SL:148
15:25:22: E121  CA        DEX                            A:7B X:A4 Y:00 P:25 SP:F9 CYC: 91 SL:148
15:25:22: E122  D0 FA     BNE $E11E                      A:7B X:A3 Y:00 P:A5 SP:F9 CYC: 97 SL:148
15:25:22: E11E  20 25 E1  JSR $E125                      A:7B X:A3 Y:00 P:A5 SP:F9 CYC:106 SL:148
15:25:22: E125  48        PHA                            A:7B X:A3 Y:00 P:A5 SP:F7 CYC:124 SL:148
15:25:22: E126  A9 00     LDA #$00                       A:7B X:A3 Y:00 P:A5 SP:F6 CYC:133 SL:148
15:25:22: E128  8D 06 20  STA $2006 = 00                 A:00 X:A3 Y:00 P:27 SP:F6 CYC:139 SL:148
15:25:22: E12B  8D 06 20  STA $2006 = 00                 A:00 X:A3 Y:00 P:27 SP:F6 CYC:151 SL:148
15:25:22: E12E  A9 10     LDA #$10                       A:00 X:A3 Y:00 P:27 SP:F6 CYC:163 SL:148
15:25:22: E130  8D 06 20  STA $2006 = 00                 A:10 X:A3 Y:00 P:25 SP:F6 CYC:169 SL:148
15:25:22: E133  8D 06 20  STA $2006 = 00                 A:10 X:A3 Y:00 P:25 SP:F6 CYC:181 SL:148
15:25:22: E136  A9 00     LDA #$00                       A:10 X:A3 Y:00 P:25 SP:F6 CYC:193 SL:148
15:25:22: E138  8D 06 20  STA $2006 = 00                 A:00 X:A3 Y:00 P:27 SP:F6 CYC:199 SL:148
15:25:22: E13B  8D 06 20  STA $2006 = 00                 A:00 X:A3 Y:00 P:27 SP:F6 CYC:211 SL:148
15:25:22: E13E  68        PLA                            A:00 X:A3 Y:00 P:27 SP:F6 CYC:223 SL:148
15:25:22: E13F  60        RTS                            A:7B X:A3 Y:00 P:25 SP:F7 CYC:235 SL:148
15:25:22: E121  CA        DEX                            A:7B X:A3 Y:00 P:25 SP:F9 CYC:253 SL:148
15:25:22: E122  D0 FA     BNE $E11E                      A:7B X:A2 Y:00 P:A5 SP:F9 CYC:259 SL:148
15:25:22: E11E  20 25 E1  JSR $E125                      A:7B X:A2 Y:00 P:A5 SP:F9 CYC:268 SL:148
15:25:22: E125  48        PHA                            A:7B X:A2 Y:00 P:A5 SP:F7 CYC:286 SL:148
15:25:22: E126  A9 00     LDA #$00                       A:7B X:A2 Y:00 P:A5 SP:F6 CYC:295 SL:148
15:25:22: E128  8D 06 20  STA $2006 = 00                 A:00 X:A2 Y:00 P:27 SP:F6 CYC:301 SL:148
15:25:22: E12B  8D 06 20  STA $2006 = 00                 A:00 X:A2 Y:00 P:27 SP:F6 CYC:313 SL:148
15:25:22: E12E  A9 10     LDA #$10                       A:00 X:A2 Y:00 P:27 SP:F6 CYC:325 SL:148
15:25:22: E130  8D 06 20  STA $2006 = 00                 A:10 X:A2 Y:00 P:25 SP:F6 CYC:331 SL:148
15:25:22: E133  8D 06 20  STA $2006 = 00                 A:10 X:A2 Y:00 P:25 SP:F6 CYC:  2 SL:149
15:25:22: E136  A9 00     LDA #$00                       A:10 X:A2 Y:00 P:25 SP:F6 CYC: 14 SL:149
15:25:22: E138  8D 06 20  STA $2006 = 00                 A:00 X:A2 Y:00 P:27 SP:F6 CYC: 20 SL:149
15:25:22: E13B  8D 06 20  STA $2006 = 00                 A:00 X:A2 Y:00 P:27 SP:F6 CYC: 32 SL:149
15:25:22: E13E  68        PLA                            A:00 X:A2 Y:00 P:27 SP:F6 CYC: 44 SL:149
15:25:22: E13F  60        RTS                            A:7B X:A2 Y:00 P:25 SP:F7 CYC: 56 SL:149
15:25:22: E121  CA        DEX                            A:7B X:A2 Y:00 P:25 SP:F9 CYC: 74 SL:149
15:25:22: E122  D0 FA     BNE $E11E                      A:7B X:A1 Y:00 P:A5 SP:F9 CYC: 80 SL:149
15:25:22: E11E  20 25 E1  JSR $E125                      A:7B X:A1 Y:00 P:A5 SP:F9 CYC: 89 SL:149
15:25:22: E125  48        PHA                            A:7B X:A1 Y:00 P:A5 SP:F7 CYC:107 SL:149
15:25:22: E126  A9 00     LDA #$00                       A:7B X:A1 Y:00 P:A5 SP:F6 CYC:116 SL:149
15:25:22: E128  8D 06 20  STA $2006 = 00                 A:00 X:A1 Y:00 P:27 SP:F6 CYC:122 SL:149
15:25:22: E12B  8D 06 20  STA $2006 = 00                 A:00 X:A1 Y:00 P:27 SP:F6 CYC:134 SL:149
15:25:22: E12E  A9 10     LDA #$10                       A:00 X:A1 Y:00 P:27 SP:F6 CYC:146 SL:149
15:25:22: E130  8D 06 20  STA $2006 = 00                 A:10 X:A1 Y:00 P:25 SP:F6 CYC:152 SL:149
15:25:22: E133  8D 06 20  STA $2006 = 00                 A:10 X:A1 Y:00 P:25 SP:F6 CYC:164 SL:149
15:25:22: E136  A9 00     LDA #$00                       A:10 X:A1 Y:00 P:25 SP:F6 CYC:176 SL:149
15:25:22: E138  8D 06 20  STA $2006 = 00                 A:00 X:A1 Y:00 P:27 SP:F6 CYC:182 SL:149
15:25:22: E13B  8D 06 20  STA $2006 = 00                 A:00 X:A1 Y:00 P:27 SP:F6 CYC:194 SL:149
15:25:22: E13E  68        PLA                            A:00 X:A1 Y:00 P:27 SP:F6 CYC:206 SL:149
15:25:22: E13F  60        RTS                            A:7B X:A1 Y:00 P:25 SP:F7 CYC:218 SL:149
15:25:22: E121  CA        DEX                            A:7B X:A1 Y:00 P:25 SP:F9 CYC:236 SL:149
15:25:22: E122  D0 FA     BNE $E11E                      A:7B X:A0 Y:00 P:A5 SP:F9 CYC:242 SL:149
15:25:22: E11E  20 25 E1  JSR $E125                      A:7B X:A0 Y:00 P:A5 SP:F9 CYC:251 SL:149
15:25:22: E125  48        PHA                            A:7B X:A0 Y:00 P:A5 SP:F7 CYC:269 SL:149
15:25:22: E126  A9 00     LDA #$00                       A:7B X:A0 Y:00 P:A5 SP:F6 CYC:278 SL:149
15:25:22: E128  8D 06 20  STA $2006 = 00                 A:00 X:A0 Y:00 P:27 SP:F6 CYC:284 SL:149
15:25:22: E12B  8D 06 20  STA $2006 = 00                 A:00 X:A0 Y:00 P:27 SP:F6 CYC:296 SL:149
15:25:22: E12E  A9 10     LDA #$10                       A:00 X:A0 Y:00 P:27 SP:F6 CYC:308 SL:149
15:25:22: E130  8D 06 20  STA $2006 = 00                 A:10 X:A0 Y:00 P:25 SP:F6 CYC:314 SL:149
15:25:22: E133  8D 06 20  STA $2006 = 00                 A:10 X:A0 Y:00 P:25 SP:F6 CYC:326 SL:149
15:25:22: E136  A9 00     LDA #$00                       A:10 X:A0 Y:00 P:25 SP:F6 CYC:338 SL:149
15:25:22: E138  8D 06 20  STA $2006 = 00                 A:00 X:A0 Y:00 P:27 SP:F6 CYC:  3 SL:150
15:25:22: E13B  8D 06 20  STA $2006 = 00                 A:00 X:A0 Y:00 P:27 SP:F6 CYC: 15 SL:150
15:25:22: E13E  68        PLA                            A:00 X:A0 Y:00 P:27 SP:F6 CYC: 27 SL:150
15:25:22: E13F  60        RTS                            A:7B X:A0 Y:00 P:25 SP:F7 CYC: 39 SL:150
15:25:22: E121  CA        DEX                            A:7B X:A0 Y:00 P:25 SP:F9 CYC: 57 SL:150
15:25:22: E122  D0 FA     BNE $E11E                      A:7B X:9F Y:00 P:A5 SP:F9 CYC: 63 SL:150
15:25:22: E11E  20 25 E1  JSR $E125                      A:7B X:9F Y:00 P:A5 SP:F9 CYC: 72 SL:150
15:25:22: E125  48        PHA                            A:7B X:9F Y:00 P:A5 SP:F7 CYC: 90 SL:150
15:25:22: E126  A9 00     LDA #$00                       A:7B X:9F Y:00 P:A5 SP:F6 CYC: 99 SL:150
15:25:22: E128  8D 06 20  STA $2006 = 00                 A:00 X:9F Y:00 P:27 SP:F6 CYC:105 SL:150
15:25:22: E12B  8D 06 20  STA $2006 = 00                 A:00 X:9F Y:00 P:27 SP:F6 CYC:117 SL:150
15:25:22: E12E  A9 10     LDA #$10                       A:00 X:9F Y:00 P:27 SP:F6 CYC:129 SL:150
15:25:22: E130  8D 06 20  STA $2006 = 00                 A:10 X:9F Y:00 P:25 SP:F6 CYC:135 SL:150
15:25:22: E133  8D 06 20  STA $2006 = 00                 A:10 X:9F Y:00 P:25 SP:F6 CYC:147 SL:150
15:25:22: E136  A9 00     LDA #$00                       A:10 X:9F Y:00 P:25 SP:F6 CYC:159 SL:150
15:25:22: E138  8D 06 20  STA $2006 = 00                 A:00 X:9F Y:00 P:27 SP:F6 CYC:165 SL:150
15:25:22: E13B  8D 06 20  STA $2006 = 00                 A:00 X:9F Y:00 P:27 SP:F6 CYC:177 SL:150
15:25:22: E13E  68        PLA                            A:00 X:9F Y:00 P:27 SP:F6 CYC:189 SL:150
15:25:22: E13F  60        RTS                            A:7B X:9F Y:00 P:25 SP:F7 CYC:201 SL:150
15:25:22: E121  CA        DEX                            A:7B X:9F Y:00 P:25 SP:F9 CYC:219 SL:150
15:25:22: E122  D0 FA     BNE $E11E                      A:7B X:9E Y:00 P:A5 SP:F9 CYC:225 SL:150
15:25:22: E11E  20 25 E1  JSR $E125                      A:7B X:9E Y:00 P:A5 SP:F9 CYC:234 SL:150
15:25:22: E125  48        PHA                            A:7B X:9E Y:00 P:A5 SP:F7 CYC:252 SL:150
15:25:22: E126  A9 00     LDA #$00                       A:7B X:9E Y:00 P:A5 SP:F6 CYC:261 SL:150
15:25:22: E128  8D 06 20  STA $2006 = 00                 A:00 X:9E Y:00 P:27 SP:F6 CYC:267 SL:150
15:25:22: E12B  8D 06 20  STA $2006 = 00                 A:00 X:9E Y:00 P:27 SP:F6 CYC:279 SL:150
15:25:22: E12E  A9 10     LDA #$10                       A:00 X:9E Y:00 P:27 SP:F6 CYC:291 SL:150
15:25:22: E130  8D 06 20  STA $2006 = 00                 A:10 X:9E Y:00 P:25 SP:F6 CYC:297 SL:150
15:25:22: E133  8D 06 20  STA $2006 = 00                 A:10 X:9E Y:00 P:25 SP:F6 CYC:309 SL:150
15:25:22: E136  A9 00     LDA #$00                       A:10 X:9E Y:00 P:25 SP:F6 CYC:321 SL:150
15:25:22: E138  8D 06 20  STA $2006 = 00                 A:00 X:9E Y:00 P:27 SP:F6 CYC:327 SL:150
15:25:22: E13B  8D 06 20  STA $2006 = 00                 A:00 X:9E Y:00 P:27 SP:F6 CYC:339 SL:150
15:25:22: E13E  68        PLA                            A:00 X:9E Y:00 P:27 SP:F6 CYC: 10 SL:151
15:25:22: E13F  60        RTS                            A:7B X:9E Y:00 P:25 SP:F7 CYC: 22 SL:151
15:25:22: E121  CA        DEX                            A:7B X:9E Y:00 P:25 SP:F9 CYC: 40 SL:151
15:25:22: E122  D0 FA     BNE $E11E                      A:7B X:9D Y:00 P:A5 SP:F9 CYC: 46 SL:151
15:25:22: E11E  20 25 E1  JSR $E125                      A:7B X:9D Y:00 P:A5 SP:F9 CYC: 55 SL:151
15:25:22: E125  48        PHA                            A:7B X:9D Y:00 P:A5 SP:F7 CYC: 73 SL:151
15:25:22: E126  A9 00     LDA #$00                       A:7B X:9D Y:00 P:A5 SP:F6 CYC: 82 SL:151
15:25:22: E128  8D 06 20  STA $2006 = 00                 A:00 X:9D Y:00 P:27 SP:F6 CYC: 88 SL:151
15:25:22: E12B  8D 06 20  STA $2006 = 00                 A:00 X:9D Y:00 P:27 SP:F6 CYC:100 SL:151
15:25:22: E12E  A9 10     LDA #$10                       A:00 X:9D Y:00 P:27 SP:F6 CYC:112 SL:151
15:25:22: E130  8D 06 20  STA $2006 = 00                 A:10 X:9D Y:00 P:25 SP:F6 CYC:118 SL:151
15:25:22: E133  8D 06 20  STA $2006 = 00                 A:10 X:9D Y:00 P:25 SP:F6 CYC:130 SL:151
15:25:22: E136  A9 00     LDA #$00                       A:10 X:9D Y:00 P:25 SP:F6 CYC:142 SL:151
15:25:22: E138  8D 06 20  STA $2006 = 00                 A:00 X:9D Y:00 P:27 SP:F6 CYC:148 SL:151
15:25:22: E13B  8D 06 20  STA $2006 = 00                 A:00 X:9D Y:00 P:27 SP:F6 CYC:160 SL:151
15:25:22: E13E  68        PLA                            A:00 X:9D Y:00 P:27 SP:F6 CYC:172 SL:151
15:25:22: E13F  60        RTS                            A:7B X:9D Y:00 P:25 SP:F7 CYC:184 SL:151
15:25:22: E121  CA        DEX                            A:7B X:9D Y:00 P:25 SP:F9 CYC:202 SL:151
15:25:22: E122  D0 FA     BNE $E11E                      A:7B X:9C Y:00 P:A5 SP:F9 CYC:208 SL:151
15:25:22: E11E  20 25 E1  JSR $E125                      A:7B X:9C Y:00 P:A5 SP:F9 CYC:217 SL:151
15:25:22: E125  48        PHA                            A:7B X:9C Y:00 P:A5 SP:F7 CYC:235 SL:151
15:25:22: E126  A9 00     LDA #$00                       A:7B X:9C Y:00 P:A5 SP:F6 CYC:244 SL:151
15:25:22: E128  8D 06 20  STA $2006 = 00                 A:00 X:9C Y:00 P:27 SP:F6 CYC:250 SL:151
15:25:22: E12B  8D 06 20  STA $2006 = 00                 A:00 X:9C Y:00 P:27 SP:F6 CYC:262 SL:151
15:25:22: E12E  A9 10     LDA #$10                       A:00 X:9C Y:00 P:27 SP:F6 CYC:274 SL:151
15:25:22: E130  8D 06 20  STA $2006 = 00                 A:10 X:9C Y:00 P:25 SP:F6 CYC:280 SL:151
15:25:22: E133  8D 06 20  STA $2006 = 00                 A:10 X:9C Y:00 P:25 SP:F6 CYC:292 SL:151
15:25:22: E136  A9 00     LDA #$00                       A:10 X:9C Y:00 P:25 SP:F6 CYC:304 SL:151
15:25:22: E138  8D 06 20  STA $2006 = 00                 A:00 X:9C Y:00 P:27 SP:F6 CYC:310 SL:151
15:25:22: E13B  8D 06 20  STA $2006 = 00                 A:00 X:9C Y:00 P:27 SP:F6 CYC:322 SL:151
15:25:22: E13E  68        PLA                            A:00 X:9C Y:00 P:27 SP:F6 CYC:334 SL:151
15:25:22: E13F  60        RTS                            A:7B X:9C Y:00 P:25 SP:F7 CYC:  5 SL:152
15:25:22: E121  CA        DEX                            A:7B X:9C Y:00 P:25 SP:F9 CYC: 23 SL:152
15:25:22: E122  D0 FA     BNE $E11E                      A:7B X:9B Y:00 P:A5 SP:F9 CYC: 29 SL:152
15:25:22: E11E  20 25 E1  JSR $E125                      A:7B X:9B Y:00 P:A5 SP:F9 CYC: 38 SL:152
15:25:22: E125  48        PHA                            A:7B X:9B Y:00 P:A5 SP:F7 CYC: 56 SL:152
15:25:22: E126  A9 00     LDA #$00                       A:7B X:9B Y:00 P:A5 SP:F6 CYC: 65 SL:152
15:25:22: E128  8D 06 20  STA $2006 = 00                 A:00 X:9B Y:00 P:27 SP:F6 CYC: 71 SL:152
15:25:22: E12B  8D 06 20  STA $2006 = 00                 A:00 X:9B Y:00 P:27 SP:F6 CYC: 83 SL:152
15:25:22: E12E  A9 10     LDA #$10                       A:00 X:9B Y:00 P:27 SP:F6 CYC: 95 SL:152
15:25:22: E130  8D 06 20  STA $2006 = 00                 A:10 X:9B Y:00 P:25 SP:F6 CYC:101 SL:152
15:25:22: E133  8D 06 20  STA $2006 = 00                 A:10 X:9B Y:00 P:25 SP:F6 CYC:113 SL:152
15:25:22: E136  A9 00     LDA #$00                       A:10 X:9B Y:00 P:25 SP:F6 CYC:125 SL:152
15:25:22: E138  8D 06 20  STA $2006 = 00                 A:00 X:9B Y:00 P:27 SP:F6 CYC:131 SL:152
15:25:22: E13B  8D 06 20  STA $2006 = 00                 A:00 X:9B Y:00 P:27 SP:F6 CYC:143 SL:152
15:25:22: E13E  68        PLA                            A:00 X:9B Y:00 P:27 SP:F6 CYC:155 SL:152
15:25:22: E13F  60        RTS                            A:7B X:9B Y:00 P:25 SP:F7 CYC:167 SL:152
15:25:22: E121  CA        DEX                            A:7B X:9B Y:00 P:25 SP:F9 CYC:185 SL:152
15:25:22: E122  D0 FA     BNE $E11E                      A:7B X:9A Y:00 P:A5 SP:F9 CYC:191 SL:152
15:25:22: E11E  20 25 E1  JSR $E125                      A:7B X:9A Y:00 P:A5 SP:F9 CYC:200 SL:152
15:25:22: E125  48        PHA                            A:7B X:9A Y:00 P:A5 SP:F7 CYC:218 SL:152
15:25:22: E126  A9 00     LDA #$00                       A:7B X:9A Y:00 P:A5 SP:F6 CYC:227 SL:152
15:25:22: E128  8D 06 20  STA $2006 = 00                 A:00 X:9A Y:00 P:27 SP:F6 CYC:233 SL:152
15:25:22: E12B  8D 06 20  STA $2006 = 00                 A:00 X:9A Y:00 P:27 SP:F6 CYC:245 SL:152
15:25:22: E12E  A9 10     LDA #$10                       A:00 X:9A Y:00 P:27 SP:F6 CYC:257 SL:152
15:25:22: E130  8D 06 20  STA $2006 = 00                 A:10 X:9A Y:00 P:25 SP:F6 CYC:263 SL:152
15:25:22: E133  8D 06 20  STA $2006 = 00                 A:10 X:9A Y:00 P:25 SP:F6 CYC:275 SL:152
15:25:22: E136  A9 00     LDA #$00                       A:10 X:9A Y:00 P:25 SP:F6 CYC:287 SL:152
15:25:22: E138  8D 06 20  STA $2006 = 00                 A:00 X:9A Y:00 P:27 SP:F6 CYC:293 SL:152
15:25:22: E13B  8D 06 20  STA $2006 = 00                 A:00 X:9A Y:00 P:27 SP:F6 CYC:305 SL:152
15:25:22: E13E  68        PLA                            A:00 X:9A Y:00 P:27 SP:F6 CYC:317 SL:152
15:25:22: E13F  60        RTS                            A:7B X:9A Y:00 P:25 SP:F7 CYC:329 SL:152
15:25:22: E121  CA        DEX                            A:7B X:9A Y:00 P:25 SP:F9 CYC:  6 SL:153
15:25:22: E122  D0 FA     BNE $E11E                      A:7B X:99 Y:00 P:A5 SP:F9 CYC: 12 SL:153
15:25:22: E11E  20 25 E1  JSR $E125                      A:7B X:99 Y:00 P:A5 SP:F9 CYC: 21 SL:153
15:25:22: E125  48        PHA                            A:7B X:99 Y:00 P:A5 SP:F7 CYC: 39 SL:153
15:25:22: E126  A9 00     LDA #$00                       A:7B X:99 Y:00 P:A5 SP:F6 CYC: 48 SL:153
15:25:22: E128  8D 06 20  STA $2006 = 00                 A:00 X:99 Y:00 P:27 SP:F6 CYC: 54 SL:153
15:25:22: E12B  8D 06 20  STA $2006 = 00                 A:00 X:99 Y:00 P:27 SP:F6 CYC: 66 SL:153
15:25:22: E12E  A9 10     LDA #$10                       A:00 X:99 Y:00 P:27 SP:F6 CYC: 78 SL:153
15:25:22: E130  8D 06 20  STA $2006 = 00                 A:10 X:99 Y:00 P:25 SP:F6 CYC: 84 SL:153
15:25:22: E133  8D 06 20  STA $2006 = 00                 A:10 X:99 Y:00 P:25 SP:F6 CYC: 96 SL:153
15:25:22: E136  A9 00     LDA #$00                       A:10 X:99 Y:00 P:25 SP:F6 CYC:108 SL:153
15:25:22: E138  8D 06 20  STA $2006 = 00                 A:00 X:99 Y:00 P:27 SP:F6 CYC:114 SL:153
15:25:22: E13B  8D 06 20  STA $2006 = 00                 A:00 X:99 Y:00 P:27 SP:F6 CYC:126 SL:153
15:25:22: E13E  68        PLA                            A:00 X:99 Y:00 P:27 SP:F6 CYC:138 SL:153
15:25:22: E13F  60        RTS                            A:7B X:99 Y:00 P:25 SP:F7 CYC:150 SL:153
15:25:22: E121  CA        DEX                            A:7B X:99 Y:00 P:25 SP:F9 CYC:168 SL:153
15:25:22: E122  D0 FA     BNE $E11E                      A:7B X:98 Y:00 P:A5 SP:F9 CYC:174 SL:153
15:25:22: E11E  20 25 E1  JSR $E125                      A:7B X:98 Y:00 P:A5 SP:F9 CYC:183 SL:153
15:25:22: E125  48        PHA                            A:7B X:98 Y:00 P:A5 SP:F7 CYC:201 SL:153
15:25:22: E126  A9 00     LDA #$00                       A:7B X:98 Y:00 P:A5 SP:F6 CYC:210 SL:153
15:25:22: E128  8D 06 20  STA $2006 = 00                 A:00 X:98 Y:00 P:27 SP:F6 CYC:216 SL:153
15:25:22: E12B  8D 06 20  STA $2006 = 00                 A:00 X:98 Y:00 P:27 SP:F6 CYC:228 SL:153
15:25:22: E12E  A9 10     LDA #$10                       A:00 X:98 Y:00 P:27 SP:F6 CYC:240 SL:153
15:25:22: E130  8D 06 20  STA $2006 = 00                 A:10 X:98 Y:00 P:25 SP:F6 CYC:246 SL:153
15:25:22: E133  8D 06 20  STA $2006 = 00                 A:10 X:98 Y:00 P:25 SP:F6 CYC:258 SL:153
15:25:22: E136  A9 00     LDA #$00                       A:10 X:98 Y:00 P:25 SP:F6 CYC:270 SL:153
15:25:22: E138  8D 06 20  STA $2006 = 00                 A:00 X:98 Y:00 P:27 SP:F6 CYC:276 SL:153
15:25:22: E13B  8D 06 20  STA $2006 = 00                 A:00 X:98 Y:00 P:27 SP:F6 CYC:288 SL:153
15:25:22: E13E  68        PLA                            A:00 X:98 Y:00 P:27 SP:F6 CYC:300 SL:153
15:25:22: E13F  60        RTS                            A:7B X:98 Y:00 P:25 SP:F7 CYC:312 SL:153
15:25:22: E121  CA        DEX                            A:7B X:98 Y:00 P:25 SP:F9 CYC:330 SL:153
15:25:22: E122  D0 FA     BNE $E11E                      A:7B X:97 Y:00 P:A5 SP:F9 CYC:336 SL:153
15:25:22: E11E  20 25 E1  JSR $E125                      A:7B X:97 Y:00 P:A5 SP:F9 CYC:  4 SL:154
15:25:22: E125  48        PHA                            A:7B X:97 Y:00 P:A5 SP:F7 CYC: 22 SL:154
15:25:22: E126  A9 00     LDA #$00                       A:7B X:97 Y:00 P:A5 SP:F6 CYC: 31 SL:154
15:25:22: E128  8D 06 20  STA $2006 = 00                 A:00 X:97 Y:00 P:27 SP:F6 CYC: 37 SL:154
15:25:22: E12B  8D 06 20  STA $2006 = 00                 A:00 X:97 Y:00 P:27 SP:F6 CYC: 49 SL:154
15:25:22: E12E  A9 10     LDA #$10                       A:00 X:97 Y:00 P:27 SP:F6 CYC: 61 SL:154
15:25:22: E130  8D 06 20  STA $2006 = 00                 A:10 X:97 Y:00 P:25 SP:F6 CYC: 67 SL:154
15:25:22: E133  8D 06 20  STA $2006 = 00                 A:10 X:97 Y:00 P:25 SP:F6 CYC: 79 SL:154
15:25:22: E136  A9 00     LDA #$00                       A:10 X:97 Y:00 P:25 SP:F6 CYC: 91 SL:154
15:25:22: E138  8D 06 20  STA $2006 = 00                 A:00 X:97 Y:00 P:27 SP:F6 CYC: 97 SL:154
15:25:22: E13B  8D 06 20  STA $2006 = 00                 A:00 X:97 Y:00 P:27 SP:F6 CYC:109 SL:154
15:25:22: E13E  68        PLA                            A:00 X:97 Y:00 P:27 SP:F6 CYC:121 SL:154
15:25:22: E13F  60        RTS                            A:7B X:97 Y:00 P:25 SP:F7 CYC:133 SL:154
15:25:22: E121  CA        DEX                            A:7B X:97 Y:00 P:25 SP:F9 CYC:151 SL:154
15:25:22: E122  D0 FA     BNE $E11E                      A:7B X:96 Y:00 P:A5 SP:F9 CYC:157 SL:154
15:25:22: E11E  20 25 E1  JSR $E125                      A:7B X:96 Y:00 P:A5 SP:F9 CYC:166 SL:154
15:25:22: E125  48        PHA                            A:7B X:96 Y:00 P:A5 SP:F7 CYC:184 SL:154
15:25:22: E126  A9 00     LDA #$00                       A:7B X:96 Y:00 P:A5 SP:F6 CYC:193 SL:154
15:25:22: E128  8D 06 20  STA $2006 = 00                 A:00 X:96 Y:00 P:27 SP:F6 CYC:199 SL:154
15:25:22: E12B  8D 06 20  STA $2006 = 00                 A:00 X:96 Y:00 P:27 SP:F6 CYC:211 SL:154
15:25:22: E12E  A9 10     LDA #$10                       A:00 X:96 Y:00 P:27 SP:F6 CYC:223 SL:154
15:25:22: E130  8D 06 20  STA $2006 = 00                 A:10 X:96 Y:00 P:25 SP:F6 CYC:229 SL:154
15:25:22: E133  8D 06 20  STA $2006 = 00                 A:10 X:96 Y:00 P:25 SP:F6 CYC:241 SL:154
15:25:22: E136  A9 00     LDA #$00                       A:10 X:96 Y:00 P:25 SP:F6 CYC:253 SL:154
15:25:22: E138  8D 06 20  STA $2006 = 00                 A:00 X:96 Y:00 P:27 SP:F6 CYC:259 SL:154
15:25:22: E13B  8D 06 20  STA $2006 = 00                 A:00 X:96 Y:00 P:27 SP:F6 CYC:271 SL:154
15:25:22: E13E  68        PLA                            A:00 X:96 Y:00 P:27 SP:F6 CYC:283 SL:154
15:25:22: E13F  60        RTS                            A:7B X:96 Y:00 P:25 SP:F7 CYC:295 SL:154
15:25:22: E121  CA        DEX                            A:7B X:96 Y:00 P:25 SP:F9 CYC:313 SL:154
15:25:22: E122  D0 FA     BNE $E11E                      A:7B X:95 Y:00 P:A5 SP:F9 CYC:319 SL:154
15:25:22: E11E  20 25 E1  JSR $E125                      A:7B X:95 Y:00 P:A5 SP:F9 CYC:328 SL:154
15:25:22: E125  48        PHA                            A:7B X:95 Y:00 P:A5 SP:F7 CYC:  5 SL:155
15:25:22: E126  A9 00     LDA #$00                       A:7B X:95 Y:00 P:A5 SP:F6 CYC: 14 SL:155
15:25:22: E128  8D 06 20  STA $2006 = 00                 A:00 X:95 Y:00 P:27 SP:F6 CYC: 20 SL:155
15:25:22: E12B  8D 06 20  STA $2006 = 00                 A:00 X:95 Y:00 P:27 SP:F6 CYC: 32 SL:155
15:25:22: E12E  A9 10     LDA #$10                       A:00 X:95 Y:00 P:27 SP:F6 CYC: 44 SL:155
15:25:22: E130  8D 06 20  STA $2006 = 00                 A:10 X:95 Y:00 P:25 SP:F6 CYC: 50 SL:155
15:25:22: E133  8D 06 20  STA $2006 = 00                 A:10 X:95 Y:00 P:25 SP:F6 CYC: 62 SL:155
15:25:22: E136  A9 00     LDA #$00                       A:10 X:95 Y:00 P:25 SP:F6 CYC: 74 SL:155
15:25:22: E138  8D 06 20  STA $2006 = 00                 A:00 X:95 Y:00 P:27 SP:F6 CYC: 80 SL:155
15:25:22: E13B  8D 06 20  STA $2006 = 00                 A:00 X:95 Y:00 P:27 SP:F6 CYC: 92 SL:155
15:25:22: E13E  68        PLA                            A:00 X:95 Y:00 P:27 SP:F6 CYC:104 SL:155
15:25:22: E13F  60        RTS                            A:7B X:95 Y:00 P:25 SP:F7 CYC:116 SL:155
15:25:22: E121  CA        DEX                            A:7B X:95 Y:00 P:25 SP:F9 CYC:134 SL:155
15:25:22: E122  D0 FA     BNE $E11E                      A:7B X:94 Y:00 P:A5 SP:F9 CYC:140 SL:155
15:25:22: E11E  20 25 E1  JSR $E125                      A:7B X:94 Y:00 P:A5 SP:F9 CYC:149 SL:155
15:25:22: E125  48        PHA                            A:7B X:94 Y:00 P:A5 SP:F7 CYC:167 SL:155
15:25:22: E126  A9 00     LDA #$00                       A:7B X:94 Y:00 P:A5 SP:F6 CYC:176 SL:155
15:25:22: E128  8D 06 20  STA $2006 = 00                 A:00 X:94 Y:00 P:27 SP:F6 CYC:182 SL:155
15:25:22: E12B  8D 06 20  STA $2006 = 00                 A:00 X:94 Y:00 P:27 SP:F6 CYC:194 SL:155
15:25:22: E12E  A9 10     LDA #$10                       A:00 X:94 Y:00 P:27 SP:F6 CYC:206 SL:155
15:25:22: E130  8D 06 20  STA $2006 = 00                 A:10 X:94 Y:00 P:25 SP:F6 CYC:212 SL:155
15:25:22: E133  8D 06 20  STA $2006 = 00                 A:10 X:94 Y:00 P:25 SP:F6 CYC:224 SL:155
15:25:22: E136  A9 00     LDA #$00                       A:10 X:94 Y:00 P:25 SP:F6 CYC:236 SL:155
15:25:22: E138  8D 06 20  STA $2006 = 00                 A:00 X:94 Y:00 P:27 SP:F6 CYC:242 SL:155
15:25:22: E13B  8D 06 20  STA $2006 = 00                 A:00 X:94 Y:00 P:27 SP:F6 CYC:254 SL:155
15:25:22: E13E  68        PLA                            A:00 X:94 Y:00 P:27 SP:F6 CYC:266 SL:155
15:25:22: E13F  60        RTS                            A:7B X:94 Y:00 P:25 SP:F7 CYC:278 SL:155
15:25:22: E121  CA        DEX                            A:7B X:94 Y:00 P:25 SP:F9 CYC:296 SL:155
15:25:22: E122  D0 FA     BNE $E11E                      A:7B X:93 Y:00 P:A5 SP:F9 CYC:302 SL:155
15:25:22: E11E  20 25 E1  JSR $E125                      A:7B X:93 Y:00 P:A5 SP:F9 CYC:311 SL:155
15:25:22: E125  48        PHA                            A:7B X:93 Y:00 P:A5 SP:F7 CYC:329 SL:155
15:25:22: E126  A9 00     LDA #$00                       A:7B X:93 Y:00 P:A5 SP:F6 CYC:338 SL:155
15:25:22: E128  8D 06 20  STA $2006 = 00                 A:00 X:93 Y:00 P:27 SP:F6 CYC:  3 SL:156
15:25:22: E12B  8D 06 20  STA $2006 = 00                 A:00 X:93 Y:00 P:27 SP:F6 CYC: 15 SL:156
15:25:22: E12E  A9 10     LDA #$10                       A:00 X:93 Y:00 P:27 SP:F6 CYC: 27 SL:156
15:25:22: E130  8D 06 20  STA $2006 = 00                 A:10 X:93 Y:00 P:25 SP:F6 CYC: 33 SL:156
15:25:22: E133  8D 06 20  STA $2006 = 00                 A:10 X:93 Y:00 P:25 SP:F6 CYC: 45 SL:156
15:25:22: E136  A9 00     LDA #$00                       A:10 X:93 Y:00 P:25 SP:F6 CYC: 57 SL:156
15:25:22: E138  8D 06 20  STA $2006 = 00                 A:00 X:93 Y:00 P:27 SP:F6 CYC: 63 SL:156
15:25:22: E13B  8D 06 20  STA $2006 = 00                 A:00 X:93 Y:00 P:27 SP:F6 CYC: 75 SL:156
15:25:22: E13E  68        PLA                            A:00 X:93 Y:00 P:27 SP:F6 CYC: 87 SL:156
15:25:22: E13F  60        RTS                            A:7B X:93 Y:00 P:25 SP:F7 CYC: 99 SL:156
15:25:22: E121  CA        DEX                            A:7B X:93 Y:00 P:25 SP:F9 CYC:117 SL:156
15:25:22: E122  D0 FA     BNE $E11E                      A:7B X:92 Y:00 P:A5 SP:F9 CYC:123 SL:156
15:25:22: E11E  20 25 E1  JSR $E125                      A:7B X:92 Y:00 P:A5 SP:F9 CYC:132 SL:156
15:25:22: E125  48        PHA                            A:7B X:92 Y:00 P:A5 SP:F7 CYC:150 SL:156
15:25:22: E126  A9 00     LDA #$00                       A:7B X:92 Y:00 P:A5 SP:F6 CYC:159 SL:156
15:25:22: E128  8D 06 20  STA $2006 = 00                 A:00 X:92 Y:00 P:27 SP:F6 CYC:165 SL:156
15:25:22: E12B  8D 06 20  STA $2006 = 00                 A:00 X:92 Y:00 P:27 SP:F6 CYC:177 SL:156
15:25:22: E12E  A9 10     LDA #$10                       A:00 X:92 Y:00 P:27 SP:F6 CYC:189 SL:156
15:25:22: E130  8D 06 20  STA $2006 = 00                 A:10 X:92 Y:00 P:25 SP:F6 CYC:195 SL:156
15:25:22: E133  8D 06 20  STA $2006 = 00                 A:10 X:92 Y:00 P:25 SP:F6 CYC:207 SL:156
15:25:22: E136  A9 00     LDA #$00                       A:10 X:92 Y:00 P:25 SP:F6 CYC:219 SL:156
15:25:22: E138  8D 06 20  STA $2006 = 00                 A:00 X:92 Y:00 P:27 SP:F6 CYC:225 SL:156
15:25:22: E13B  8D 06 20  STA $2006 = 00                 A:00 X:92 Y:00 P:27 SP:F6 CYC:237 SL:156
15:25:22: E13E  68        PLA                            A:00 X:92 Y:00 P:27 SP:F6 CYC:249 SL:156
15:25:22: E13F  60        RTS                            A:7B X:92 Y:00 P:25 SP:F7 CYC:261 SL:156
15:25:22: E121  CA        DEX                            A:7B X:92 Y:00 P:25 SP:F9 CYC:279 SL:156
15:25:22: E122  D0 FA     BNE $E11E                      A:7B X:91 Y:00 P:A5 SP:F9 CYC:285 SL:156
15:25:22: E11E  20 25 E1  JSR $E125                      A:7B X:91 Y:00 P:A5 SP:F9 CYC:294 SL:156
15:25:22: E125  48        PHA                            A:7B X:91 Y:00 P:A5 SP:F7 CYC:312 SL:156
15:25:22: E126  A9 00     LDA #$00                       A:7B X:91 Y:00 P:A5 SP:F6 CYC:321 SL:156
15:25:22: E128  8D 06 20  STA $2006 = 00                 A:00 X:91 Y:00 P:27 SP:F6 CYC:327 SL:156
15:25:22: E12B  8D 06 20  STA $2006 = 00                 A:00 X:91 Y:00 P:27 SP:F6 CYC:339 SL:156
15:25:22: E12E  A9 10     LDA #$10                       A:00 X:91 Y:00 P:27 SP:F6 CYC: 10 SL:157
15:25:22: E130  8D 06 20  STA $2006 = 00                 A:10 X:91 Y:00 P:25 SP:F6 CYC: 16 SL:157
15:25:22: E133  8D 06 20  STA $2006 = 00                 A:10 X:91 Y:00 P:25 SP:F6 CYC: 28 SL:157
15:25:22: E136  A9 00     LDA #$00                       A:10 X:91 Y:00 P:25 SP:F6 CYC: 40 SL:157
15:25:22: E138  8D 06 20  STA $2006 = 00                 A:00 X:91 Y:00 P:27 SP:F6 CYC: 46 SL:157
15:25:22: E13B  8D 06 20  STA $2006 = 00                 A:00 X:91 Y:00 P:27 SP:F6 CYC: 58 SL:157
15:25:22: E13E  68        PLA                            A:00 X:91 Y:00 P:27 SP:F6 CYC: 70 SL:157
15:25:22: E13F  60        RTS                            A:7B X:91 Y:00 P:25 SP:F7 CYC: 82 SL:157
15:25:22: E121  CA        DEX                            A:7B X:91 Y:00 P:25 SP:F9 CYC:100 SL:157
15:25:22: E122  D0 FA     BNE $E11E                      A:7B X:90 Y:00 P:A5 SP:F9 CYC:106 SL:157
15:25:22: E11E  20 25 E1  JSR $E125                      A:7B X:90 Y:00 P:A5 SP:F9 CYC:115 SL:157
15:25:22: E125  48        PHA                            A:7B X:90 Y:00 P:A5 SP:F7 CYC:133 SL:157
15:25:22: E126  A9 00     LDA #$00                       A:7B X:90 Y:00 P:A5 SP:F6 CYC:142 SL:157
15:25:22: E128  8D 06 20  STA $2006 = 00                 A:00 X:90 Y:00 P:27 SP:F6 CYC:148 SL:157
15:25:22: E12B  8D 06 20  STA $2006 = 00                 A:00 X:90 Y:00 P:27 SP:F6 CYC:160 SL:157
15:25:22: E12E  A9 10     LDA #$10                       A:00 X:90 Y:00 P:27 SP:F6 CYC:172 SL:157
15:25:22: E130  8D 06 20  STA $2006 = 00                 A:10 X:90 Y:00 P:25 SP:F6 CYC:178 SL:157
15:25:22: E133  8D 06 20  STA $2006 = 00                 A:10 X:90 Y:00 P:25 SP:F6 CYC:190 SL:157
15:25:22: E136  A9 00     LDA #$00                       A:10 X:90 Y:00 P:25 SP:F6 CYC:202 SL:157
15:25:22: E138  8D 06 20  STA $2006 = 00                 A:00 X:90 Y:00 P:27 SP:F6 CYC:208 SL:157
15:25:22: E13B  8D 06 20  STA $2006 = 00                 A:00 X:90 Y:00 P:27 SP:F6 CYC:220 SL:157
15:25:22: E13E  68        PLA                            A:00 X:90 Y:00 P:27 SP:F6 CYC:232 SL:157
15:25:22: E13F  60        RTS                            A:7B X:90 Y:00 P:25 SP:F7 CYC:244 SL:157
15:25:22: E121  CA        DEX                            A:7B X:90 Y:00 P:25 SP:F9 CYC:262 SL:157
15:25:22: E122  D0 FA     BNE $E11E                      A:7B X:8F Y:00 P:A5 SP:F9 CYC:268 SL:157
15:25:22: E11E  20 25 E1  JSR $E125                      A:7B X:8F Y:00 P:A5 SP:F9 CYC:277 SL:157
15:25:22: E125  48        PHA                            A:7B X:8F Y:00 P:A5 SP:F7 CYC:295 SL:157
15:25:22: E126  A9 00     LDA #$00                       A:7B X:8F Y:00 P:A5 SP:F6 CYC:304 SL:157
15:25:22: E128  8D 06 20  STA $2006 = 00                 A:00 X:8F Y:00 P:27 SP:F6 CYC:310 SL:157
15:25:22: E12B  8D 06 20  STA $2006 = 00                 A:00 X:8F Y:00 P:27 SP:F6 CYC:322 SL:157
15:25:22: E12E  A9 10     LDA #$10                       A:00 X:8F Y:00 P:27 SP:F6 CYC:334 SL:157
15:25:22: E130  8D 06 20  STA $2006 = 00                 A:10 X:8F Y:00 P:25 SP:F6 CYC:340 SL:157
15:25:22: E133  8D 06 20  STA $2006 = 00                 A:10 X:8F Y:00 P:25 SP:F6 CYC: 11 SL:158
15:25:22: E136  A9 00     LDA #$00                       A:10 X:8F Y:00 P:25 SP:F6 CYC: 23 SL:158
15:25:22: E138  8D 06 20  STA $2006 = 00                 A:00 X:8F Y:00 P:27 SP:F6 CYC: 29 SL:158
15:25:22: E13B  8D 06 20  STA $2006 = 00                 A:00 X:8F Y:00 P:27 SP:F6 CYC: 41 SL:158
15:25:22: E13E  68        PLA                            A:00 X:8F Y:00 P:27 SP:F6 CYC: 53 SL:158
15:25:22: E13F  60        RTS                            A:7B X:8F Y:00 P:25 SP:F7 CYC: 65 SL:158
15:25:22: E121  CA        DEX                            A:7B X:8F Y:00 P:25 SP:F9 CYC: 83 SL:158
15:25:22: E122  D0 FA     BNE $E11E                      A:7B X:8E Y:00 P:A5 SP:F9 CYC: 89 SL:158
15:25:22: E11E  20 25 E1  JSR $E125                      A:7B X:8E Y:00 P:A5 SP:F9 CYC: 98 SL:158
15:25:22: E125  48        PHA                            A:7B X:8E Y:00 P:A5 SP:F7 CYC:116 SL:158
15:25:22: E126  A9 00     LDA #$00                       A:7B X:8E Y:00 P:A5 SP:F6 CYC:125 SL:158
15:25:22: E128  8D 06 20  STA $2006 = 00                 A:00 X:8E Y:00 P:27 SP:F6 CYC:131 SL:158
15:25:22: E12B  8D 06 20  STA $2006 = 00                 A:00 X:8E Y:00 P:27 SP:F6 CYC:143 SL:158
15:25:22: E12E  A9 10     LDA #$10                       A:00 X:8E Y:00 P:27 SP:F6 CYC:155 SL:158
15:25:22: E130  8D 06 20  STA $2006 = 00                 A:10 X:8E Y:00 P:25 SP:F6 CYC:161 SL:158
15:25:22: E133  8D 06 20  STA $2006 = 00                 A:10 X:8E Y:00 P:25 SP:F6 CYC:173 SL:158
15:25:22: E136  A9 00     LDA #$00                       A:10 X:8E Y:00 P:25 SP:F6 CYC:185 SL:158
15:25:22: E138  8D 06 20  STA $2006 = 00                 A:00 X:8E Y:00 P:27 SP:F6 CYC:191 SL:158
15:25:22: E13B  8D 06 20  STA $2006 = 00                 A:00 X:8E Y:00 P:27 SP:F6 CYC:203 SL:158
15:25:22: E13E  68        PLA                            A:00 X:8E Y:00 P:27 SP:F6 CYC:215 SL:158
15:25:22: E13F  60        RTS                            A:7B X:8E Y:00 P:25 SP:F7 CYC:227 SL:158
15:25:22: E121  CA        DEX                            A:7B X:8E Y:00 P:25 SP:F9 CYC:245 SL:158
15:25:22: E122  D0 FA     BNE $E11E                      A:7B X:8D Y:00 P:A5 SP:F9 CYC:251 SL:158
15:25:22: E11E  20 25 E1  JSR $E125                      A:7B X:8D Y:00 P:A5 SP:F9 CYC:260 SL:158
15:25:22: E125  48        PHA                            A:7B X:8D Y:00 P:A5 SP:F7 CYC:278 SL:158
15:25:22: E126  A9 00     LDA #$00                       A:7B X:8D Y:00 P:A5 SP:F6 CYC:287 SL:158
15:25:22: E128  8D 06 20  STA $2006 = 00                 A:00 X:8D Y:00 P:27 SP:F6 CYC:293 SL:158
15:25:22: E12B  8D 06 20  STA $2006 = 00                 A:00 X:8D Y:00 P:27 SP:F6 CYC:305 SL:158
15:25:22: E12E  A9 10     LDA #$10                       A:00 X:8D Y:00 P:27 SP:F6 CYC:317 SL:158
15:25:22: E130  8D 06 20  STA $2006 = 00                 A:10 X:8D Y:00 P:25 SP:F6 CYC:323 SL:158
15:25:22: E133  8D 06 20  STA $2006 = 00                 A:10 X:8D Y:00 P:25 SP:F6 CYC:335 SL:158
15:25:22: E136  A9 00     LDA #$00                       A:10 X:8D Y:00 P:25 SP:F6 CYC:  6 SL:159
15:25:22: E138  8D 06 20  STA $2006 = 00                 A:00 X:8D Y:00 P:27 SP:F6 CYC: 12 SL:159
15:25:23: E13B  8D 06 20  STA $2006 = 00                 A:00 X:8D Y:00 P:27 SP:F6 CYC: 24 SL:159
15:25:23: E13E  68        PLA                            A:00 X:8D Y:00 P:27 SP:F6 CYC: 36 SL:159
15:25:23: E13F  60        RTS                            A:7B X:8D Y:00 P:25 SP:F7 CYC: 48 SL:159
15:25:23: E121  CA        DEX                            A:7B X:8D Y:00 P:25 SP:F9 CYC: 66 SL:159
15:25:23: E122  D0 FA     BNE $E11E                      A:7B X:8C Y:00 P:A5 SP:F9 CYC: 72 SL:159
15:25:23: E11E  20 25 E1  JSR $E125                      A:7B X:8C Y:00 P:A5 SP:F9 CYC: 81 SL:159
15:25:23: E125  48        PHA                            A:7B X:8C Y:00 P:A5 SP:F7 CYC: 99 SL:159
15:25:23: E126  A9 00     LDA #$00                       A:7B X:8C Y:00 P:A5 SP:F6 CYC:108 SL:159
15:25:23: E128  8D 06 20  STA $2006 = 00                 A:00 X:8C Y:00 P:27 SP:F6 CYC:114 SL:159
15:25:23: E12B  8D 06 20  STA $2006 = 00                 A:00 X:8C Y:00 P:27 SP:F6 CYC:126 SL:159
15:25:23: E12E  A9 10     LDA #$10                       A:00 X:8C Y:00 P:27 SP:F6 CYC:138 SL:159
15:25:23: E130  8D 06 20  STA $2006 = 00                 A:10 X:8C Y:00 P:25 SP:F6 CYC:144 SL:159
15:25:23: E133  8D 06 20  STA $2006 = 00                 A:10 X:8C Y:00 P:25 SP:F6 CYC:156 SL:159
15:25:23: E136  A9 00     LDA #$00                       A:10 X:8C Y:00 P:25 SP:F6 CYC:168 SL:159
15:25:23: E138  8D 06 20  STA $2006 = 00                 A:00 X:8C Y:00 P:27 SP:F6 CYC:174 SL:159
15:25:23: E13B  8D 06 20  STA $2006 = 00                 A:00 X:8C Y:00 P:27 SP:F6 CYC:186 SL:159
15:25:23: E13E  68        PLA                            A:00 X:8C Y:00 P:27 SP:F6 CYC:198 SL:159
15:25:23: E13F  60        RTS                            A:7B X:8C Y:00 P:25 SP:F7 CYC:210 SL:159
15:25:23: E121  CA        DEX                            A:7B X:8C Y:00 P:25 SP:F9 CYC:228 SL:159
15:25:23: E122  D0 FA     BNE $E11E                      A:7B X:8B Y:00 P:A5 SP:F9 CYC:234 SL:159
15:25:23: E11E  20 25 E1  JSR $E125                      A:7B X:8B Y:00 P:A5 SP:F9 CYC:243 SL:159
15:25:23: E125  48        PHA                            A:7B X:8B Y:00 P:A5 SP:F7 CYC:261 SL:159
15:25:23: E126  A9 00     LDA #$00                       A:7B X:8B Y:00 P:A5 SP:F6 CYC:270 SL:159
15:25:23: E128  8D 06 20  STA $2006 = 00                 A:00 X:8B Y:00 P:27 SP:F6 CYC:276 SL:159
15:25:23: E12B  8D 06 20  STA $2006 = 00                 A:00 X:8B Y:00 P:27 SP:F6 CYC:288 SL:159
15:25:23: E12E  A9 10     LDA #$10                       A:00 X:8B Y:00 P:27 SP:F6 CYC:300 SL:159
15:25:23: E130  8D 06 20  STA $2006 = 00                 A:10 X:8B Y:00 P:25 SP:F6 CYC:306 SL:159
15:25:23: E133  8D 06 20  STA $2006 = 00                 A:10 X:8B Y:00 P:25 SP:F6 CYC:318 SL:159
15:25:23: E136  A9 00     LDA #$00                       A:10 X:8B Y:00 P:25 SP:F6 CYC:330 SL:159
15:25:23: E138  8D 06 20  STA $2006 = 00                 A:00 X:8B Y:00 P:27 SP:F6 CYC:336 SL:159
15:25:23: E13B  8D 06 20  STA $2006 = 00                 A:00 X:8B Y:00 P:27 SP:F6 CYC:  7 SL:160
15:25:23: E13E  68        PLA                            A:00 X:8B Y:00 P:27 SP:F6 CYC: 19 SL:160
15:25:23: E13F  60        RTS                            A:7B X:8B Y:00 P:25 SP:F7 CYC: 31 SL:160
15:25:23: E121  CA        DEX                            A:7B X:8B Y:00 P:25 SP:F9 CYC: 49 SL:160
15:25:23: E122  D0 FA     BNE $E11E                      A:7B X:8A Y:00 P:A5 SP:F9 CYC: 55 SL:160
15:25:23: E11E  20 25 E1  JSR $E125                      A:7B X:8A Y:00 P:A5 SP:F9 CYC: 64 SL:160
15:25:23: E125  48        PHA                            A:7B X:8A Y:00 P:A5 SP:F7 CYC: 82 SL:160
15:25:23: E126  A9 00     LDA #$00                       A:7B X:8A Y:00 P:A5 SP:F6 CYC: 91 SL:160
15:25:23: E128  8D 06 20  STA $2006 = 00                 A:00 X:8A Y:00 P:27 SP:F6 CYC: 97 SL:160
15:25:23: E12B  8D 06 20  STA $2006 = 00                 A:00 X:8A Y:00 P:27 SP:F6 CYC:109 SL:160
15:25:23: E12E  A9 10     LDA #$10                       A:00 X:8A Y:00 P:27 SP:F6 CYC:121 SL:160
15:25:23: E130  8D 06 20  STA $2006 = 00                 A:10 X:8A Y:00 P:25 SP:F6 CYC:127 SL:160
15:25:23: E133  8D 06 20  STA $2006 = 00                 A:10 X:8A Y:00 P:25 SP:F6 CYC:139 SL:160
15:25:23: E136  A9 00     LDA #$00                       A:10 X:8A Y:00 P:25 SP:F6 CYC:151 SL:160
15:25:23: E138  8D 06 20  STA $2006 = 00                 A:00 X:8A Y:00 P:27 SP:F6 CYC:157 SL:160
15:25:23: E13B  8D 06 20  STA $2006 = 00                 A:00 X:8A Y:00 P:27 SP:F6 CYC:169 SL:160
15:25:23: E13E  68        PLA                            A:00 X:8A Y:00 P:27 SP:F6 CYC:181 SL:160
15:25:23: E13F  60        RTS                            A:7B X:8A Y:00 P:25 SP:F7 CYC:193 SL:160
15:25:23: E121  CA        DEX                            A:7B X:8A Y:00 P:25 SP:F9 CYC:211 SL:160
15:25:23: E122  D0 FA     BNE $E11E                      A:7B X:89 Y:00 P:A5 SP:F9 CYC:217 SL:160
15:25:23: E11E  20 25 E1  JSR $E125                      A:7B X:89 Y:00 P:A5 SP:F9 CYC:226 SL:160
15:25:23: E125  48        PHA                            A:7B X:89 Y:00 P:A5 SP:F7 CYC:244 SL:160
15:25:23: E126  A9 00     LDA #$00                       A:7B X:89 Y:00 P:A5 SP:F6 CYC:253 SL:160
15:25:23: E128  8D 06 20  STA $2006 = 00                 A:00 X:89 Y:00 P:27 SP:F6 CYC:259 SL:160
15:25:23: E12B  8D 06 20  STA $2006 = 00                 A:00 X:89 Y:00 P:27 SP:F6 CYC:271 SL:160
15:25:23: E12E  A9 10     LDA #$10                       A:00 X:89 Y:00 P:27 SP:F6 CYC:283 SL:160
15:25:23: E130  8D 06 20  STA $2006 = 00                 A:10 X:89 Y:00 P:25 SP:F6 CYC:289 SL:160
15:25:23: E133  8D 06 20  STA $2006 = 00                 A:10 X:89 Y:00 P:25 SP:F6 CYC:301 SL:160
15:25:23: E136  A9 00     LDA #$00                       A:10 X:89 Y:00 P:25 SP:F6 CYC:313 SL:160
15:25:23: E138  8D 06 20  STA $2006 = 00                 A:00 X:89 Y:00 P:27 SP:F6 CYC:319 SL:160
15:25:23: E13B  8D 06 20  STA $2006 = 00                 A:00 X:89 Y:00 P:27 SP:F6 CYC:331 SL:160
15:25:23: E13E  68        PLA                            A:00 X:89 Y:00 P:27 SP:F6 CYC:  2 SL:161
15:25:23: E13F  60        RTS                            A:7B X:89 Y:00 P:25 SP:F7 CYC: 14 SL:161
15:25:23: E121  CA        DEX                            A:7B X:89 Y:00 P:25 SP:F9 CYC: 32 SL:161
15:25:23: E122  D0 FA     BNE $E11E                      A:7B X:88 Y:00 P:A5 SP:F9 CYC: 38 SL:161
15:25:23: E11E  20 25 E1  JSR $E125                      A:7B X:88 Y:00 P:A5 SP:F9 CYC: 47 SL:161
15:25:23: E125  48        PHA                            A:7B X:88 Y:00 P:A5 SP:F7 CYC: 65 SL:161
15:25:23: E126  A9 00     LDA #$00                       A:7B X:88 Y:00 P:A5 SP:F6 CYC: 74 SL:161
15:25:23: E128  8D 06 20  STA $2006 = 00                 A:00 X:88 Y:00 P:27 SP:F6 CYC: 80 SL:161
15:25:23: E12B  8D 06 20  STA $2006 = 00                 A:00 X:88 Y:00 P:27 SP:F6 CYC: 92 SL:161
15:25:23: E12E  A9 10     LDA #$10                       A:00 X:88 Y:00 P:27 SP:F6 CYC:104 SL:161
15:25:23: E130  8D 06 20  STA $2006 = 00                 A:10 X:88 Y:00 P:25 SP:F6 CYC:110 SL:161
15:25:23: E133  8D 06 20  STA $2006 = 00                 A:10 X:88 Y:00 P:25 SP:F6 CYC:122 SL:161
15:25:23: E136  A9 00     LDA #$00                       A:10 X:88 Y:00 P:25 SP:F6 CYC:134 SL:161
15:25:23: E138  8D 06 20  STA $2006 = 00                 A:00 X:88 Y:00 P:27 SP:F6 CYC:140 SL:161
15:25:23: E13B  8D 06 20  STA $2006 = 00                 A:00 X:88 Y:00 P:27 SP:F6 CYC:152 SL:161
15:25:23: E13E  68        PLA                            A:00 X:88 Y:00 P:27 SP:F6 CYC:164 SL:161
15:25:23: E13F  60        RTS                            A:7B X:88 Y:00 P:25 SP:F7 CYC:176 SL:161
15:25:23: E121  CA        DEX                            A:7B X:88 Y:00 P:25 SP:F9 CYC:194 SL:161
15:25:23: E122  D0 FA     BNE $E11E                      A:7B X:87 Y:00 P:A5 SP:F9 CYC:200 SL:161
15:25:23: E11E  20 25 E1  JSR $E125                      A:7B X:87 Y:00 P:A5 SP:F9 CYC:209 SL:161
15:25:23: E125  48        PHA                            A:7B X:87 Y:00 P:A5 SP:F7 CYC:227 SL:161
15:25:23: E126  A9 00     LDA #$00                       A:7B X:87 Y:00 P:A5 SP:F6 CYC:236 SL:161
15:25:23: E128  8D 06 20  STA $2006 = 00                 A:00 X:87 Y:00 P:27 SP:F6 CYC:242 SL:161
15:25:23: E12B  8D 06 20  STA $2006 = 00                 A:00 X:87 Y:00 P:27 SP:F6 CYC:254 SL:161
15:25:23: E12E  A9 10     LDA #$10                       A:00 X:87 Y:00 P:27 SP:F6 CYC:266 SL:161
15:25:23: E130  8D 06 20  STA $2006 = 00                 A:10 X:87 Y:00 P:25 SP:F6 CYC:272 SL:161
15:25:23: E133  8D 06 20  STA $2006 = 00                 A:10 X:87 Y:00 P:25 SP:F6 CYC:284 SL:161
15:25:23: E136  A9 00     LDA #$00                       A:10 X:87 Y:00 P:25 SP:F6 CYC:296 SL:161
15:25:23: E138  8D 06 20  STA $2006 = 00                 A:00 X:87 Y:00 P:27 SP:F6 CYC:302 SL:161
15:25:23: E13B  8D 06 20  STA $2006 = 00                 A:00 X:87 Y:00 P:27 SP:F6 CYC:314 SL:161
15:25:23: E13E  68        PLA                            A:00 X:87 Y:00 P:27 SP:F6 CYC:326 SL:161
15:25:23: E13F  60        RTS                            A:7B X:87 Y:00 P:25 SP:F7 CYC:338 SL:161
15:25:23: E121  CA        DEX                            A:7B X:87 Y:00 P:25 SP:F9 CYC: 15 SL:162
15:25:23: E122  D0 FA     BNE $E11E                      A:7B X:86 Y:00 P:A5 SP:F9 CYC: 21 SL:162
15:25:23: E11E  20 25 E1  JSR $E125                      A:7B X:86 Y:00 P:A5 SP:F9 CYC: 30 SL:162
15:25:23: E125  48        PHA                            A:7B X:86 Y:00 P:A5 SP:F7 CYC: 48 SL:162
15:25:23: E126  A9 00     LDA #$00                       A:7B X:86 Y:00 P:A5 SP:F6 CYC: 57 SL:162
15:25:23: E128  8D 06 20  STA $2006 = 00                 A:00 X:86 Y:00 P:27 SP:F6 CYC: 63 SL:162
15:25:23: E12B  8D 06 20  STA $2006 = 00                 A:00 X:86 Y:00 P:27 SP:F6 CYC: 75 SL:162
15:25:23: E12E  A9 10     LDA #$10                       A:00 X:86 Y:00 P:27 SP:F6 CYC: 87 SL:162
15:25:23: E130  8D 06 20  STA $2006 = 00                 A:10 X:86 Y:00 P:25 SP:F6 CYC: 93 SL:162
15:25:23: E133  8D 06 20  STA $2006 = 00                 A:10 X:86 Y:00 P:25 SP:F6 CYC:105 SL:162
15:25:23: E136  A9 00     LDA #$00                       A:10 X:86 Y:00 P:25 SP:F6 CYC:117 SL:162
15:25:23: E138  8D 06 20  STA $2006 = 00                 A:00 X:86 Y:00 P:27 SP:F6 CYC:123 SL:162
15:25:23: E13B  8D 06 20  STA $2006 = 00                 A:00 X:86 Y:00 P:27 SP:F6 CYC:135 SL:162
15:25:23: E13E  68        PLA                            A:00 X:86 Y:00 P:27 SP:F6 CYC:147 SL:162
15:25:23: E13F  60        RTS                            A:7B X:86 Y:00 P:25 SP:F7 CYC:159 SL:162
15:25:23: E121  CA        DEX                            A:7B X:86 Y:00 P:25 SP:F9 CYC:177 SL:162
15:25:23: E122  D0 FA     BNE $E11E                      A:7B X:85 Y:00 P:A5 SP:F9 CYC:183 SL:162
15:25:23: E11E  20 25 E1  JSR $E125                      A:7B X:85 Y:00 P:A5 SP:F9 CYC:192 SL:162
15:25:23: E125  48        PHA                            A:7B X:85 Y:00 P:A5 SP:F7 CYC:210 SL:162
15:25:23: E126  A9 00     LDA #$00                       A:7B X:85 Y:00 P:A5 SP:F6 CYC:219 SL:162
15:25:23: E128  8D 06 20  STA $2006 = 00                 A:00 X:85 Y:00 P:27 SP:F6 CYC:225 SL:162
15:25:23: E12B  8D 06 20  STA $2006 = 00                 A:00 X:85 Y:00 P:27 SP:F6 CYC:237 SL:162
15:25:23: E12E  A9 10     LDA #$10                       A:00 X:85 Y:00 P:27 SP:F6 CYC:249 SL:162
15:25:23: E130  8D 06 20  STA $2006 = 00                 A:10 X:85 Y:00 P:25 SP:F6 CYC:255 SL:162
15:25:23: E133  8D 06 20  STA $2006 = 00                 A:10 X:85 Y:00 P:25 SP:F6 CYC:267 SL:162
15:25:23: E136  A9 00     LDA #$00                       A:10 X:85 Y:00 P:25 SP:F6 CYC:279 SL:162
15:25:23: E138  8D 06 20  STA $2006 = 00                 A:00 X:85 Y:00 P:27 SP:F6 CYC:285 SL:162
15:25:23: E13B  8D 06 20  STA $2006 = 00                 A:00 X:85 Y:00 P:27 SP:F6 CYC:297 SL:162
15:25:23: E13E  68        PLA                            A:00 X:85 Y:00 P:27 SP:F6 CYC:309 SL:162
15:25:23: E13F  60        RTS                            A:7B X:85 Y:00 P:25 SP:F7 CYC:321 SL:162
15:25:23: E121  CA        DEX                            A:7B X:85 Y:00 P:25 SP:F9 CYC:339 SL:162
15:25:23: E122  D0 FA     BNE $E11E                      A:7B X:84 Y:00 P:A5 SP:F9 CYC:  4 SL:163
15:25:23: E11E  20 25 E1  JSR $E125                      A:7B X:84 Y:00 P:A5 SP:F9 CYC: 13 SL:163
15:25:23: E125  48        PHA                            A:7B X:84 Y:00 P:A5 SP:F7 CYC: 31 SL:163
15:25:23: E126  A9 00     LDA #$00                       A:7B X:84 Y:00 P:A5 SP:F6 CYC: 40 SL:163
15:25:23: E128  8D 06 20  STA $2006 = 00                 A:00 X:84 Y:00 P:27 SP:F6 CYC: 46 SL:163
15:25:23: E12B  8D 06 20  STA $2006 = 00                 A:00 X:84 Y:00 P:27 SP:F6 CYC: 58 SL:163
15:25:23: E12E  A9 10     LDA #$10                       A:00 X:84 Y:00 P:27 SP:F6 CYC: 70 SL:163
15:25:23: E130  8D 06 20  STA $2006 = 00                 A:10 X:84 Y:00 P:25 SP:F6 CYC: 76 SL:163
15:25:23: E133  8D 06 20  STA $2006 = 00                 A:10 X:84 Y:00 P:25 SP:F6 CYC: 88 SL:163
15:25:23: E136  A9 00     LDA #$00                       A:10 X:84 Y:00 P:25 SP:F6 CYC:100 SL:163
15:25:23: E138  8D 06 20  STA $2006 = 00                 A:00 X:84 Y:00 P:27 SP:F6 CYC:106 SL:163
15:25:23: E13B  8D 06 20  STA $2006 = 00                 A:00 X:84 Y:00 P:27 SP:F6 CYC:118 SL:163
15:25:23: E13E  68        PLA                            A:00 X:84 Y:00 P:27 SP:F6 CYC:130 SL:163
15:25:23: E13F  60        RTS                            A:7B X:84 Y:00 P:25 SP:F7 CYC:142 SL:163
15:25:23: E121  CA        DEX                            A:7B X:84 Y:00 P:25 SP:F9 CYC:160 SL:163
15:25:23: E122  D0 FA     BNE $E11E                      A:7B X:83 Y:00 P:A5 SP:F9 CYC:166 SL:163
15:25:23: E11E  20 25 E1  JSR $E125                      A:7B X:83 Y:00 P:A5 SP:F9 CYC:175 SL:163
15:25:23: E125  48        PHA                            A:7B X:83 Y:00 P:A5 SP:F7 CYC:193 SL:163
15:25:23: E126  A9 00     LDA #$00                       A:7B X:83 Y:00 P:A5 SP:F6 CYC:202 SL:163
15:25:23: E128  8D 06 20  STA $2006 = 00                 A:00 X:83 Y:00 P:27 SP:F6 CYC:208 SL:163
15:25:23: E12B  8D 06 20  STA $2006 = 00                 A:00 X:83 Y:00 P:27 SP:F6 CYC:220 SL:163
15:25:23: E12E  A9 10     LDA #$10                       A:00 X:83 Y:00 P:27 SP:F6 CYC:232 SL:163
15:25:23: E130  8D 06 20  STA $2006 = 00                 A:10 X:83 Y:00 P:25 SP:F6 CYC:238 SL:163
15:25:23: E133  8D 06 20  STA $2006 = 00                 A:10 X:83 Y:00 P:25 SP:F6 CYC:250 SL:163
15:25:23: E136  A9 00     LDA #$00                       A:10 X:83 Y:00 P:25 SP:F6 CYC:262 SL:163
15:25:23: E138  8D 06 20  STA $2006 = 00                 A:00 X:83 Y:00 P:27 SP:F6 CYC:268 SL:163
15:25:23: E13B  8D 06 20  STA $2006 = 00                 A:00 X:83 Y:00 P:27 SP:F6 CYC:280 SL:163
15:25:23: E13E  68        PLA                            A:00 X:83 Y:00 P:27 SP:F6 CYC:292 SL:163
15:25:23: E13F  60        RTS                            A:7B X:83 Y:00 P:25 SP:F7 CYC:304 SL:163
15:25:23: E121  CA        DEX                            A:7B X:83 Y:00 P:25 SP:F9 CYC:322 SL:163
15:25:23: E122  D0 FA     BNE $E11E                      A:7B X:82 Y:00 P:A5 SP:F9 CYC:328 SL:163
15:25:23: E11E  20 25 E1  JSR $E125                      A:7B X:82 Y:00 P:A5 SP:F9 CYC:337 SL:163
15:25:23: E125  48        PHA                            A:7B X:82 Y:00 P:A5 SP:F7 CYC: 14 SL:164
15:25:23: E126  A9 00     LDA #$00                       A:7B X:82 Y:00 P:A5 SP:F6 CYC: 23 SL:164
15:25:23: E128  8D 06 20  STA $2006 = 00                 A:00 X:82 Y:00 P:27 SP:F6 CYC: 29 SL:164
15:25:23: E12B  8D 06 20  STA $2006 = 00                 A:00 X:82 Y:00 P:27 SP:F6 CYC: 41 SL:164
15:25:23: E12E  A9 10     LDA #$10                       A:00 X:82 Y:00 P:27 SP:F6 CYC: 53 SL:164
15:25:23: E130  8D 06 20  STA $2006 = 00                 A:10 X:82 Y:00 P:25 SP:F6 CYC: 59 SL:164
15:25:23: E133  8D 06 20  STA $2006 = 00                 A:10 X:82 Y:00 P:25 SP:F6 CYC: 71 SL:164
15:25:23: E136  A9 00     LDA #$00                       A:10 X:82 Y:00 P:25 SP:F6 CYC: 83 SL:164
15:25:23: E138  8D 06 20  STA $2006 = 00                 A:00 X:82 Y:00 P:27 SP:F6 CYC: 89 SL:164
15:25:23: E13B  8D 06 20  STA $2006 = 00                 A:00 X:82 Y:00 P:27 SP:F6 CYC:101 SL:164
15:25:23: E13E  68        PLA                            A:00 X:82 Y:00 P:27 SP:F6 CYC:113 SL:164
15:25:23: E13F  60        RTS                            A:7B X:82 Y:00 P:25 SP:F7 CYC:125 SL:164
15:25:23: E121  CA        DEX                            A:7B X:82 Y:00 P:25 SP:F9 CYC:143 SL:164
15:25:23: E122  D0 FA     BNE $E11E                      A:7B X:81 Y:00 P:A5 SP:F9 CYC:149 SL:164
15:25:23: E11E  20 25 E1  JSR $E125                      A:7B X:81 Y:00 P:A5 SP:F9 CYC:158 SL:164
15:25:23: E125  48        PHA                            A:7B X:81 Y:00 P:A5 SP:F7 CYC:176 SL:164
15:25:23: E126  A9 00     LDA #$00                       A:7B X:81 Y:00 P:A5 SP:F6 CYC:185 SL:164
15:25:23: E128  8D 06 20  STA $2006 = 00                 A:00 X:81 Y:00 P:27 SP:F6 CYC:191 SL:164
15:25:23: E12B  8D 06 20  STA $2006 = 00                 A:00 X:81 Y:00 P:27 SP:F6 CYC:203 SL:164
15:25:23: E12E  A9 10     LDA #$10                       A:00 X:81 Y:00 P:27 SP:F6 CYC:215 SL:164
15:25:23: E130  8D 06 20  STA $2006 = 00                 A:10 X:81 Y:00 P:25 SP:F6 CYC:221 SL:164
15:25:23: E133  8D 06 20  STA $2006 = 00                 A:10 X:81 Y:00 P:25 SP:F6 CYC:233 SL:164
15:25:23: E136  A9 00     LDA #$00                       A:10 X:81 Y:00 P:25 SP:F6 CYC:245 SL:164
15:25:23: E138  8D 06 20  STA $2006 = 00                 A:00 X:81 Y:00 P:27 SP:F6 CYC:251 SL:164
15:25:23: E13B  8D 06 20  STA $2006 = 00                 A:00 X:81 Y:00 P:27 SP:F6 CYC:263 SL:164
15:25:23: E13E  68        PLA                            A:00 X:81 Y:00 P:27 SP:F6 CYC:275 SL:164
15:25:23: E13F  60        RTS                            A:7B X:81 Y:00 P:25 SP:F7 CYC:287 SL:164
15:25:23: E121  CA        DEX                            A:7B X:81 Y:00 P:25 SP:F9 CYC:305 SL:164
15:25:23: E122  D0 FA     BNE $E11E                      A:7B X:80 Y:00 P:A5 SP:F9 CYC:311 SL:164
15:25:23: E11E  20 25 E1  JSR $E125                      A:7B X:80 Y:00 P:A5 SP:F9 CYC:320 SL:164
15:25:23: E125  48        PHA                            A:7B X:80 Y:00 P:A5 SP:F7 CYC:338 SL:164
15:25:23: E126  A9 00     LDA #$00                       A:7B X:80 Y:00 P:A5 SP:F6 CYC:  6 SL:165
15:25:23: E128  8D 06 20  STA $2006 = 00                 A:00 X:80 Y:00 P:27 SP:F6 CYC: 12 SL:165
15:25:23: E12B  8D 06 20  STA $2006 = 00                 A:00 X:80 Y:00 P:27 SP:F6 CYC: 24 SL:165
15:25:23: E12E  A9 10     LDA #$10                       A:00 X:80 Y:00 P:27 SP:F6 CYC: 36 SL:165
15:25:23: E130  8D 06 20  STA $2006 = 00                 A:10 X:80 Y:00 P:25 SP:F6 CYC: 42 SL:165
15:25:23: E133  8D 06 20  STA $2006 = 00                 A:10 X:80 Y:00 P:25 SP:F6 CYC: 54 SL:165
15:25:23: E136  A9 00     LDA #$00                       A:10 X:80 Y:00 P:25 SP:F6 CYC: 66 SL:165
15:25:23: E138  8D 06 20  STA $2006 = 00                 A:00 X:80 Y:00 P:27 SP:F6 CYC: 72 SL:165
15:25:23: E13B  8D 06 20  STA $2006 = 00                 A:00 X:80 Y:00 P:27 SP:F6 CYC: 84 SL:165
15:25:23: E13E  68        PLA                            A:00 X:80 Y:00 P:27 SP:F6 CYC: 96 SL:165
15:25:23: E13F  60        RTS                            A:7B X:80 Y:00 P:25 SP:F7 CYC:108 SL:165
15:25:23: E121  CA        DEX                            A:7B X:80 Y:00 P:25 SP:F9 CYC:126 SL:165
15:25:23: E122  D0 FA     BNE $E11E                      A:7B X:7F Y:00 P:25 SP:F9 CYC:132 SL:165
15:25:23: E11E  20 25 E1  JSR $E125                      A:7B X:7F Y:00 P:25 SP:F9 CYC:141 SL:165
15:25:23: E125  48        PHA                            A:7B X:7F Y:00 P:25 SP:F7 CYC:159 SL:165
15:25:23: E126  A9 00     LDA #$00                       A:7B X:7F Y:00 P:25 SP:F6 CYC:168 SL:165
15:25:23: E128  8D 06 20  STA $2006 = 00                 A:00 X:7F Y:00 P:27 SP:F6 CYC:174 SL:165
15:25:23: E12B  8D 06 20  STA $2006 = 00                 A:00 X:7F Y:00 P:27 SP:F6 CYC:186 SL:165
15:25:23: E12E  A9 10     LDA #$10                       A:00 X:7F Y:00 P:27 SP:F6 CYC:198 SL:165
15:25:23: E130  8D 06 20  STA $2006 = 00                 A:10 X:7F Y:00 P:25 SP:F6 CYC:204 SL:165
15:25:23: E133  8D 06 20  STA $2006 = 00                 A:10 X:7F Y:00 P:25 SP:F6 CYC:216 SL:165
15:25:23: E136  A9 00     LDA #$00                       A:10 X:7F Y:00 P:25 SP:F6 CYC:228 SL:165
15:25:23: E138  8D 06 20  STA $2006 = 00                 A:00 X:7F Y:00 P:27 SP:F6 CYC:234 SL:165
15:25:23: E13B  8D 06 20  STA $2006 = 00                 A:00 X:7F Y:00 P:27 SP:F6 CYC:246 SL:165
15:25:23: E13E  68        PLA                            A:00 X:7F Y:00 P:27 SP:F6 CYC:258 SL:165
15:25:23: E13F  60        RTS                            A:7B X:7F Y:00 P:25 SP:F7 CYC:270 SL:165
15:25:23: E121  CA        DEX                            A:7B X:7F Y:00 P:25 SP:F9 CYC:288 SL:165
15:25:23: E122  D0 FA     BNE $E11E                      A:7B X:7E Y:00 P:25 SP:F9 CYC:294 SL:165
15:25:23: E11E  20 25 E1  JSR $E125                      A:7B X:7E Y:00 P:25 SP:F9 CYC:303 SL:165
15:25:23: E125  48        PHA                            A:7B X:7E Y:00 P:25 SP:F7 CYC:321 SL:165
15:25:23: E126  A9 00     LDA #$00                       A:7B X:7E Y:00 P:25 SP:F6 CYC:330 SL:165
15:25:23: E128  8D 06 20  STA $2006 = 00                 A:00 X:7E Y:00 P:27 SP:F6 CYC:336 SL:165
15:25:23: E12B  8D 06 20  STA $2006 = 00                 A:00 X:7E Y:00 P:27 SP:F6 CYC:  7 SL:166
15:25:23: E12E  A9 10     LDA #$10                       A:00 X:7E Y:00 P:27 SP:F6 CYC: 19 SL:166
15:25:23: E130  8D 06 20  STA $2006 = 00                 A:10 X:7E Y:00 P:25 SP:F6 CYC: 25 SL:166
15:25:23: E133  8D 06 20  STA $2006 = 00                 A:10 X:7E Y:00 P:25 SP:F6 CYC: 37 SL:166
15:25:23: E136  A9 00     LDA #$00                       A:10 X:7E Y:00 P:25 SP:F6 CYC: 49 SL:166
15:25:23: E138  8D 06 20  STA $2006 = 00                 A:00 X:7E Y:00 P:27 SP:F6 CYC: 55 SL:166
15:25:23: E13B  8D 06 20  STA $2006 = 00                 A:00 X:7E Y:00 P:27 SP:F6 CYC: 67 SL:166
15:25:23: E13E  68        PLA                            A:00 X:7E Y:00 P:27 SP:F6 CYC: 79 SL:166
15:25:23: E13F  60        RTS                            A:7B X:7E Y:00 P:25 SP:F7 CYC: 91 SL:166
15:25:23: E121  CA        DEX                            A:7B X:7E Y:00 P:25 SP:F9 CYC:109 SL:166
15:25:23: E122  D0 FA     BNE $E11E                      A:7B X:7D Y:00 P:25 SP:F9 CYC:115 SL:166
15:25:23: E11E  20 25 E1  JSR $E125                      A:7B X:7D Y:00 P:25 SP:F9 CYC:124 SL:166
15:25:23: E125  48        PHA                            A:7B X:7D Y:00 P:25 SP:F7 CYC:142 SL:166
15:25:23: E126  A9 00     LDA #$00                       A:7B X:7D Y:00 P:25 SP:F6 CYC:151 SL:166
15:25:23: E128  8D 06 20  STA $2006 = 00                 A:00 X:7D Y:00 P:27 SP:F6 CYC:157 SL:166
15:25:23: E12B  8D 06 20  STA $2006 = 00                 A:00 X:7D Y:00 P:27 SP:F6 CYC:169 SL:166
15:25:23: E12E  A9 10     LDA #$10                       A:00 X:7D Y:00 P:27 SP:F6 CYC:181 SL:166
15:25:23: E130  8D 06 20  STA $2006 = 00                 A:10 X:7D Y:00 P:25 SP:F6 CYC:187 SL:166
15:25:23: E133  8D 06 20  STA $2006 = 00                 A:10 X:7D Y:00 P:25 SP:F6 CYC:199 SL:166
15:25:23: E136  A9 00     LDA #$00                       A:10 X:7D Y:00 P:25 SP:F6 CYC:211 SL:166
15:25:23: E138  8D 06 20  STA $2006 = 00                 A:00 X:7D Y:00 P:27 SP:F6 CYC:217 SL:166
15:25:23: E13B  8D 06 20  STA $2006 = 00                 A:00 X:7D Y:00 P:27 SP:F6 CYC:229 SL:166
15:25:23: E13E  68        PLA                            A:00 X:7D Y:00 P:27 SP:F6 CYC:241 SL:166
15:25:23: E13F  60        RTS                            A:7B X:7D Y:00 P:25 SP:F7 CYC:253 SL:166
15:25:23: E121  CA        DEX                            A:7B X:7D Y:00 P:25 SP:F9 CYC:271 SL:166
15:25:23: E122  D0 FA     BNE $E11E                      A:7B X:7C Y:00 P:25 SP:F9 CYC:277 SL:166
15:25:23: E11E  20 25 E1  JSR $E125                      A:7B X:7C Y:00 P:25 SP:F9 CYC:286 SL:166
15:25:23: E125  48        PHA                            A:7B X:7C Y:00 P:25 SP:F7 CYC:304 SL:166
15:25:23: E126  A9 00     LDA #$00                       A:7B X:7C Y:00 P:25 SP:F6 CYC:313 SL:166
15:25:23: E128  8D 06 20  STA $2006 = 00                 A:00 X:7C Y:00 P:27 SP:F6 CYC:319 SL:166
15:25:23: E12B  8D 06 20  STA $2006 = 00                 A:00 X:7C Y:00 P:27 SP:F6 CYC:331 SL:166
15:25:23: E12E  A9 10     LDA #$10                       A:00 X:7C Y:00 P:27 SP:F6 CYC:  2 SL:167
15:25:23: E130  8D 06 20  STA $2006 = 00                 A:10 X:7C Y:00 P:25 SP:F6 CYC:  8 SL:167
15:25:23: E133  8D 06 20  STA $2006 = 00                 A:10 X:7C Y:00 P:25 SP:F6 CYC: 20 SL:167
15:25:23: E136  A9 00     LDA #$00                       A:10 X:7C Y:00 P:25 SP:F6 CYC: 32 SL:167
15:25:23: E138  8D 06 20  STA $2006 = 00                 A:00 X:7C Y:00 P:27 SP:F6 CYC: 38 SL:167
15:25:23: E13B  8D 06 20  STA $2006 = 00                 A:00 X:7C Y:00 P:27 SP:F6 CYC: 50 SL:167
15:25:23: E13E  68        PLA                            A:00 X:7C Y:00 P:27 SP:F6 CYC: 62 SL:167
15:25:23: E13F  60        RTS                            A:7B X:7C Y:00 P:25 SP:F7 CYC: 74 SL:167
15:25:23: E121  CA        DEX                            A:7B X:7C Y:00 P:25 SP:F9 CYC: 92 SL:167
15:25:23: E122  D0 FA     BNE $E11E                      A:7B X:7B Y:00 P:25 SP:F9 CYC: 98 SL:167
15:25:23: E11E  20 25 E1  JSR $E125                      A:7B X:7B Y:00 P:25 SP:F9 CYC:107 SL:167
15:25:23: E125  48        PHA                            A:7B X:7B Y:00 P:25 SP:F7 CYC:125 SL:167
15:25:23: E126  A9 00     LDA #$00                       A:7B X:7B Y:00 P:25 SP:F6 CYC:134 SL:167
15:25:23: E128  8D 06 20  STA $2006 = 00                 A:00 X:7B Y:00 P:27 SP:F6 CYC:140 SL:167
15:25:23: E12B  8D 06 20  STA $2006 = 00                 A:00 X:7B Y:00 P:27 SP:F6 CYC:152 SL:167
15:25:23: E12E  A9 10     LDA #$10                       A:00 X:7B Y:00 P:27 SP:F6 CYC:164 SL:167
15:25:23: E130  8D 06 20  STA $2006 = 00                 A:10 X:7B Y:00 P:25 SP:F6 CYC:170 SL:167
15:25:23: E133  8D 06 20  STA $2006 = 00                 A:10 X:7B Y:00 P:25 SP:F6 CYC:182 SL:167
15:25:23: E136  A9 00     LDA #$00                       A:10 X:7B Y:00 P:25 SP:F6 CYC:194 SL:167
15:25:23: E138  8D 06 20  STA $2006 = 00                 A:00 X:7B Y:00 P:27 SP:F6 CYC:200 SL:167
15:25:23: E13B  8D 06 20  STA $2006 = 00                 A:00 X:7B Y:00 P:27 SP:F6 CYC:212 SL:167
15:25:23: E13E  68        PLA                            A:00 X:7B Y:00 P:27 SP:F6 CYC:224 SL:167
15:25:23: E13F  60        RTS                            A:7B X:7B Y:00 P:25 SP:F7 CYC:236 SL:167
15:25:23: E121  CA        DEX                            A:7B X:7B Y:00 P:25 SP:F9 CYC:254 SL:167
15:25:23: E122  D0 FA     BNE $E11E                      A:7B X:7A Y:00 P:25 SP:F9 CYC:260 SL:167
15:25:23: E11E  20 25 E1  JSR $E125                      A:7B X:7A Y:00 P:25 SP:F9 CYC:269 SL:167
15:25:23: E125  48        PHA                            A:7B X:7A Y:00 P:25 SP:F7 CYC:287 SL:167
15:25:23: E126  A9 00     LDA #$00                       A:7B X:7A Y:00 P:25 SP:F6 CYC:296 SL:167
15:25:23: E128  8D 06 20  STA $2006 = 00                 A:00 X:7A Y:00 P:27 SP:F6 CYC:302 SL:167
15:25:23: E12B  8D 06 20  STA $2006 = 00                 A:00 X:7A Y:00 P:27 SP:F6 CYC:314 SL:167
15:25:23: E12E  A9 10     LDA #$10                       A:00 X:7A Y:00 P:27 SP:F6 CYC:326 SL:167
15:25:23: E130  8D 06 20  STA $2006 = 00                 A:10 X:7A Y:00 P:25 SP:F6 CYC:332 SL:167
15:25:23: E133  8D 06 20  STA $2006 = 00                 A:10 X:7A Y:00 P:25 SP:F6 CYC:  3 SL:168
15:25:23: E136  A9 00     LDA #$00                       A:10 X:7A Y:00 P:25 SP:F6 CYC: 15 SL:168
15:25:23: E138  8D 06 20  STA $2006 = 00                 A:00 X:7A Y:00 P:27 SP:F6 CYC: 21 SL:168
15:25:23: E13B  8D 06 20  STA $2006 = 00                 A:00 X:7A Y:00 P:27 SP:F6 CYC: 33 SL:168
15:25:23: E13E  68        PLA                            A:00 X:7A Y:00 P:27 SP:F6 CYC: 45 SL:168
15:25:23: E13F  60        RTS                            A:7B X:7A Y:00 P:25 SP:F7 CYC: 57 SL:168
15:25:23: E121  CA        DEX                            A:7B X:7A Y:00 P:25 SP:F9 CYC: 75 SL:168
15:25:23: E122  D0 FA     BNE $E11E                      A:7B X:79 Y:00 P:25 SP:F9 CYC: 81 SL:168
15:25:23: E11E  20 25 E1  JSR $E125                      A:7B X:79 Y:00 P:25 SP:F9 CYC: 90 SL:168
15:25:23: E125  48        PHA                            A:7B X:79 Y:00 P:25 SP:F7 CYC:108 SL:168
15:25:23: E126  A9 00     LDA #$00                       A:7B X:79 Y:00 P:25 SP:F6 CYC:117 SL:168
15:25:23: E128  8D 06 20  STA $2006 = 00                 A:00 X:79 Y:00 P:27 SP:F6 CYC:123 SL:168
15:25:23: E12B  8D 06 20  STA $2006 = 00                 A:00 X:79 Y:00 P:27 SP:F6 CYC:135 SL:168
15:25:23: E12E  A9 10     LDA #$10                       A:00 X:79 Y:00 P:27 SP:F6 CYC:147 SL:168
15:25:23: E130  8D 06 20  STA $2006 = 00                 A:10 X:79 Y:00 P:25 SP:F6 CYC:153 SL:168
15:25:23: E133  8D 06 20  STA $2006 = 00                 A:10 X:79 Y:00 P:25 SP:F6 CYC:165 SL:168
15:25:23: E136  A9 00     LDA #$00                       A:10 X:79 Y:00 P:25 SP:F6 CYC:177 SL:168
15:25:23: E138  8D 06 20  STA $2006 = 00                 A:00 X:79 Y:00 P:27 SP:F6 CYC:183 SL:168
15:25:23: E13B  8D 06 20  STA $2006 = 00                 A:00 X:79 Y:00 P:27 SP:F6 CYC:195 SL:168
15:25:23: E13E  68        PLA                            A:00 X:79 Y:00 P:27 SP:F6 CYC:207 SL:168
15:25:23: E13F  60        RTS                            A:7B X:79 Y:00 P:25 SP:F7 CYC:219 SL:168
15:25:23: E121  CA        DEX                            A:7B X:79 Y:00 P:25 SP:F9 CYC:237 SL:168
15:25:23: E122  D0 FA     BNE $E11E                      A:7B X:78 Y:00 P:25 SP:F9 CYC:243 SL:168
15:25:23: E11E  20 25 E1  JSR $E125                      A:7B X:78 Y:00 P:25 SP:F9 CYC:252 SL:168
15:25:23: E125  48        PHA                            A:7B X:78 Y:00 P:25 SP:F7 CYC:270 SL:168
15:25:23: E126  A9 00     LDA #$00                       A:7B X:78 Y:00 P:25 SP:F6 CYC:279 SL:168
15:25:23: E128  8D 06 20  STA $2006 = 00                 A:00 X:78 Y:00 P:27 SP:F6 CYC:285 SL:168
15:25:23: E12B  8D 06 20  STA $2006 = 00                 A:00 X:78 Y:00 P:27 SP:F6 CYC:297 SL:168
15:25:23: E12E  A9 10     LDA #$10                       A:00 X:78 Y:00 P:27 SP:F6 CYC:309 SL:168
15:25:23: E130  8D 06 20  STA $2006 = 00                 A:10 X:78 Y:00 P:25 SP:F6 CYC:315 SL:168
15:25:23: E133  8D 06 20  STA $2006 = 00                 A:10 X:78 Y:00 P:25 SP:F6 CYC:327 SL:168
15:25:23: E136  A9 00     LDA #$00                       A:10 X:78 Y:00 P:25 SP:F6 CYC:339 SL:168
15:25:23: E138  8D 06 20  STA $2006 = 00                 A:00 X:78 Y:00 P:27 SP:F6 CYC:  4 SL:169
15:25:23: E13B  8D 06 20  STA $2006 = 00                 A:00 X:78 Y:00 P:27 SP:F6 CYC: 16 SL:169
15:25:23: E13E  68        PLA                            A:00 X:78 Y:00 P:27 SP:F6 CYC: 28 SL:169
15:25:23: E13F  60        RTS                            A:7B X:78 Y:00 P:25 SP:F7 CYC: 40 SL:169
15:25:23: E121  CA        DEX                            A:7B X:78 Y:00 P:25 SP:F9 CYC: 58 SL:169
15:25:23: E122  D0 FA     BNE $E11E                      A:7B X:77 Y:00 P:25 SP:F9 CYC: 64 SL:169
15:25:23: E11E  20 25 E1  JSR $E125                      A:7B X:77 Y:00 P:25 SP:F9 CYC: 73 SL:169
15:25:23: E125  48        PHA                            A:7B X:77 Y:00 P:25 SP:F7 CYC: 91 SL:169
15:25:23: E126  A9 00     LDA #$00                       A:7B X:77 Y:00 P:25 SP:F6 CYC:100 SL:169
15:25:23: E128  8D 06 20  STA $2006 = 00                 A:00 X:77 Y:00 P:27 SP:F6 CYC:106 SL:169
15:25:23: E12B  8D 06 20  STA $2006 = 00                 A:00 X:77 Y:00 P:27 SP:F6 CYC:118 SL:169
15:25:23: E12E  A9 10     LDA #$10                       A:00 X:77 Y:00 P:27 SP:F6 CYC:130 SL:169
15:25:23: E130  8D 06 20  STA $2006 = 00                 A:10 X:77 Y:00 P:25 SP:F6 CYC:136 SL:169
15:25:23: E133  8D 06 20  STA $2006 = 00                 A:10 X:77 Y:00 P:25 SP:F6 CYC:148 SL:169
15:25:23: E136  A9 00     LDA #$00                       A:10 X:77 Y:00 P:25 SP:F6 CYC:160 SL:169
15:25:23: E138  8D 06 20  STA $2006 = 00                 A:00 X:77 Y:00 P:27 SP:F6 CYC:166 SL:169
15:25:23: E13B  8D 06 20  STA $2006 = 00                 A:00 X:77 Y:00 P:27 SP:F6 CYC:178 SL:169
15:25:23: E13E  68        PLA                            A:00 X:77 Y:00 P:27 SP:F6 CYC:190 SL:169
15:25:23: E13F  60        RTS                            A:7B X:77 Y:00 P:25 SP:F7 CYC:202 SL:169
15:25:23: E121  CA        DEX                            A:7B X:77 Y:00 P:25 SP:F9 CYC:220 SL:169
15:25:23: E122  D0 FA     BNE $E11E                      A:7B X:76 Y:00 P:25 SP:F9 CYC:226 SL:169
15:25:23: E11E  20 25 E1  JSR $E125                      A:7B X:76 Y:00 P:25 SP:F9 CYC:235 SL:169
15:25:23: E125  48        PHA                            A:7B X:76 Y:00 P:25 SP:F7 CYC:253 SL:169
15:25:23: E126  A9 00     LDA #$00                       A:7B X:76 Y:00 P:25 SP:F6 CYC:262 SL:169
15:25:23: E128  8D 06 20  STA $2006 = 00                 A:00 X:76 Y:00 P:27 SP:F6 CYC:268 SL:169
15:25:23: E12B  8D 06 20  STA $2006 = 00                 A:00 X:76 Y:00 P:27 SP:F6 CYC:280 SL:169
15:25:23: E12E  A9 10     LDA #$10                       A:00 X:76 Y:00 P:27 SP:F6 CYC:292 SL:169
15:25:23: E130  8D 06 20  STA $2006 = 00                 A:10 X:76 Y:00 P:25 SP:F6 CYC:298 SL:169
15:25:23: E133  8D 06 20  STA $2006 = 00                 A:10 X:76 Y:00 P:25 SP:F6 CYC:310 SL:169
15:25:23: E136  A9 00     LDA #$00                       A:10 X:76 Y:00 P:25 SP:F6 CYC:322 SL:169
15:25:23: E138  8D 06 20  STA $2006 = 00                 A:00 X:76 Y:00 P:27 SP:F6 CYC:328 SL:169
15:25:23: E13B  8D 06 20  STA $2006 = 00                 A:00 X:76 Y:00 P:27 SP:F6 CYC:340 SL:169
15:25:23: E13E  68        PLA                            A:00 X:76 Y:00 P:27 SP:F6 CYC: 11 SL:170
15:25:23: E13F  60        RTS                            A:7B X:76 Y:00 P:25 SP:F7 CYC: 23 SL:170
15:25:23: E121  CA        DEX                            A:7B X:76 Y:00 P:25 SP:F9 CYC: 41 SL:170
15:25:23: E122  D0 FA     BNE $E11E                      A:7B X:75 Y:00 P:25 SP:F9 CYC: 47 SL:170
15:25:23: E11E  20 25 E1  JSR $E125                      A:7B X:75 Y:00 P:25 SP:F9 CYC: 56 SL:170
15:25:23: E125  48        PHA                            A:7B X:75 Y:00 P:25 SP:F7 CYC: 74 SL:170
15:25:23: E126  A9 00     LDA #$00                       A:7B X:75 Y:00 P:25 SP:F6 CYC: 83 SL:170
15:25:23: E128  8D 06 20  STA $2006 = 00                 A:00 X:75 Y:00 P:27 SP:F6 CYC: 89 SL:170
15:25:23: E12B  8D 06 20  STA $2006 = 00                 A:00 X:75 Y:00 P:27 SP:F6 CYC:101 SL:170
15:25:23: E12E  A9 10     LDA #$10                       A:00 X:75 Y:00 P:27 SP:F6 CYC:113 SL:170
15:25:23: E130  8D 06 20  STA $2006 = 00                 A:10 X:75 Y:00 P:25 SP:F6 CYC:119 SL:170
15:25:23: E133  8D 06 20  STA $2006 = 00                 A:10 X:75 Y:00 P:25 SP:F6 CYC:131 SL:170
15:25:23: E136  A9 00     LDA #$00                       A:10 X:75 Y:00 P:25 SP:F6 CYC:143 SL:170
15:25:23: E138  8D 06 20  STA $2006 = 00                 A:00 X:75 Y:00 P:27 SP:F6 CYC:149 SL:170
15:25:23: E13B  8D 06 20  STA $2006 = 00                 A:00 X:75 Y:00 P:27 SP:F6 CYC:161 SL:170
15:25:23: E13E  68        PLA                            A:00 X:75 Y:00 P:27 SP:F6 CYC:173 SL:170
15:25:23: E13F  60        RTS                            A:7B X:75 Y:00 P:25 SP:F7 CYC:185 SL:170
15:25:23: E121  CA        DEX                            A:7B X:75 Y:00 P:25 SP:F9 CYC:203 SL:170
15:25:23: E122  D0 FA     BNE $E11E                      A:7B X:74 Y:00 P:25 SP:F9 CYC:209 SL:170
15:25:23: E11E  20 25 E1  JSR $E125                      A:7B X:74 Y:00 P:25 SP:F9 CYC:218 SL:170
15:25:23: E125  48        PHA                            A:7B X:74 Y:00 P:25 SP:F7 CYC:236 SL:170
15:25:23: E126  A9 00     LDA #$00                       A:7B X:74 Y:00 P:25 SP:F6 CYC:245 SL:170
15:25:23: E128  8D 06 20  STA $2006 = 00                 A:00 X:74 Y:00 P:27 SP:F6 CYC:251 SL:170
15:25:23: E12B  8D 06 20  STA $2006 = 00                 A:00 X:74 Y:00 P:27 SP:F6 CYC:263 SL:170
15:25:23: E12E  A9 10     LDA #$10                       A:00 X:74 Y:00 P:27 SP:F6 CYC:275 SL:170
15:25:23: E130  8D 06 20  STA $2006 = 00                 A:10 X:74 Y:00 P:25 SP:F6 CYC:281 SL:170
15:25:23: E133  8D 06 20  STA $2006 = 00                 A:10 X:74 Y:00 P:25 SP:F6 CYC:293 SL:170
15:25:23: E136  A9 00     LDA #$00                       A:10 X:74 Y:00 P:25 SP:F6 CYC:305 SL:170
15:25:23: E138  8D 06 20  STA $2006 = 00                 A:00 X:74 Y:00 P:27 SP:F6 CYC:311 SL:170
15:25:23: E13B  8D 06 20  STA $2006 = 00                 A:00 X:74 Y:00 P:27 SP:F6 CYC:323 SL:170
15:25:23: E13E  68        PLA                            A:00 X:74 Y:00 P:27 SP:F6 CYC:335 SL:170
15:25:23: E13F  60        RTS                            A:7B X:74 Y:00 P:25 SP:F7 CYC:  6 SL:171
15:25:23: E121  CA        DEX                            A:7B X:74 Y:00 P:25 SP:F9 CYC: 24 SL:171
15:25:23: E122  D0 FA     BNE $E11E                      A:7B X:73 Y:00 P:25 SP:F9 CYC: 30 SL:171
15:25:23: E11E  20 25 E1  JSR $E125                      A:7B X:73 Y:00 P:25 SP:F9 CYC: 39 SL:171
15:25:23: E125  48        PHA                            A:7B X:73 Y:00 P:25 SP:F7 CYC: 57 SL:171
15:25:23: E126  A9 00     LDA #$00                       A:7B X:73 Y:00 P:25 SP:F6 CYC: 66 SL:171
15:25:23: E128  8D 06 20  STA $2006 = 00                 A:00 X:73 Y:00 P:27 SP:F6 CYC: 72 SL:171
15:25:23: E12B  8D 06 20  STA $2006 = 00                 A:00 X:73 Y:00 P:27 SP:F6 CYC: 84 SL:171
15:25:23: E12E  A9 10     LDA #$10                       A:00 X:73 Y:00 P:27 SP:F6 CYC: 96 SL:171
15:25:23: E130  8D 06 20  STA $2006 = 00                 A:10 X:73 Y:00 P:25 SP:F6 CYC:102 SL:171
15:25:23: E133  8D 06 20  STA $2006 = 00                 A:10 X:73 Y:00 P:25 SP:F6 CYC:114 SL:171
15:25:23: E136  A9 00     LDA #$00                       A:10 X:73 Y:00 P:25 SP:F6 CYC:126 SL:171
15:25:23: E138  8D 06 20  STA $2006 = 00                 A:00 X:73 Y:00 P:27 SP:F6 CYC:132 SL:171
15:25:23: E13B  8D 06 20  STA $2006 = 00                 A:00 X:73 Y:00 P:27 SP:F6 CYC:144 SL:171
15:25:23: E13E  68        PLA                            A:00 X:73 Y:00 P:27 SP:F6 CYC:156 SL:171
15:25:23: E13F  60        RTS                            A:7B X:73 Y:00 P:25 SP:F7 CYC:168 SL:171
15:25:23: E121  CA        DEX                            A:7B X:73 Y:00 P:25 SP:F9 CYC:186 SL:171
15:25:23: E122  D0 FA     BNE $E11E                      A:7B X:72 Y:00 P:25 SP:F9 CYC:192 SL:171
15:25:23: E11E  20 25 E1  JSR $E125                      A:7B X:72 Y:00 P:25 SP:F9 CYC:201 SL:171
15:25:23: E125  48        PHA                            A:7B X:72 Y:00 P:25 SP:F7 CYC:219 SL:171
15:25:23: E126  A9 00     LDA #$00                       A:7B X:72 Y:00 P:25 SP:F6 CYC:228 SL:171
15:25:23: E128  8D 06 20  STA $2006 = 00                 A:00 X:72 Y:00 P:27 SP:F6 CYC:234 SL:171
15:25:23: E12B  8D 06 20  STA $2006 = 00                 A:00 X:72 Y:00 P:27 SP:F6 CYC:246 SL:171
15:25:23: E12E  A9 10     LDA #$10                       A:00 X:72 Y:00 P:27 SP:F6 CYC:258 SL:171
15:25:23: E130  8D 06 20  STA $2006 = 00                 A:10 X:72 Y:00 P:25 SP:F6 CYC:264 SL:171
15:25:23: E133  8D 06 20  STA $2006 = 00                 A:10 X:72 Y:00 P:25 SP:F6 CYC:276 SL:171
15:25:23: E136  A9 00     LDA #$00                       A:10 X:72 Y:00 P:25 SP:F6 CYC:288 SL:171
15:25:23: E138  8D 06 20  STA $2006 = 00                 A:00 X:72 Y:00 P:27 SP:F6 CYC:294 SL:171
15:25:23: E13B  8D 06 20  STA $2006 = 00                 A:00 X:72 Y:00 P:27 SP:F6 CYC:306 SL:171
15:25:23: E13E  68        PLA                            A:00 X:72 Y:00 P:27 SP:F6 CYC:318 SL:171
15:25:23: E13F  60        RTS                            A:7B X:72 Y:00 P:25 SP:F7 CYC:330 SL:171
15:25:23: E121  CA        DEX                            A:7B X:72 Y:00 P:25 SP:F9 CYC:  7 SL:172
15:25:23: E122  D0 FA     BNE $E11E                      A:7B X:71 Y:00 P:25 SP:F9 CYC: 13 SL:172
15:25:23: E11E  20 25 E1  JSR $E125                      A:7B X:71 Y:00 P:25 SP:F9 CYC: 22 SL:172
15:25:23: E125  48        PHA                            A:7B X:71 Y:00 P:25 SP:F7 CYC: 40 SL:172
15:25:23: E126  A9 00     LDA #$00                       A:7B X:71 Y:00 P:25 SP:F6 CYC: 49 SL:172
15:25:23: E128  8D 06 20  STA $2006 = 00                 A:00 X:71 Y:00 P:27 SP:F6 CYC: 55 SL:172
15:25:23: E12B  8D 06 20  STA $2006 = 00                 A:00 X:71 Y:00 P:27 SP:F6 CYC: 67 SL:172
15:25:23: E12E  A9 10     LDA #$10                       A:00 X:71 Y:00 P:27 SP:F6 CYC: 79 SL:172
15:25:23: E130  8D 06 20  STA $2006 = 00                 A:10 X:71 Y:00 P:25 SP:F6 CYC: 85 SL:172
15:25:23: E133  8D 06 20  STA $2006 = 00                 A:10 X:71 Y:00 P:25 SP:F6 CYC: 97 SL:172
15:25:23: E136  A9 00     LDA #$00                       A:10 X:71 Y:00 P:25 SP:F6 CYC:109 SL:172
15:25:23: E138  8D 06 20  STA $2006 = 00                 A:00 X:71 Y:00 P:27 SP:F6 CYC:115 SL:172
15:25:23: E13B  8D 06 20  STA $2006 = 00                 A:00 X:71 Y:00 P:27 SP:F6 CYC:127 SL:172
15:25:23: E13E  68        PLA                            A:00 X:71 Y:00 P:27 SP:F6 CYC:139 SL:172
15:25:23: E13F  60        RTS                            A:7B X:71 Y:00 P:25 SP:F7 CYC:151 SL:172
15:25:23: E121  CA        DEX                            A:7B X:71 Y:00 P:25 SP:F9 CYC:169 SL:172
15:25:23: E122  D0 FA     BNE $E11E                      A:7B X:70 Y:00 P:25 SP:F9 CYC:175 SL:172
15:25:23: E11E  20 25 E1  JSR $E125                      A:7B X:70 Y:00 P:25 SP:F9 CYC:184 SL:172
15:25:23: E125  48        PHA                            A:7B X:70 Y:00 P:25 SP:F7 CYC:202 SL:172
15:25:23: E126  A9 00     LDA #$00                       A:7B X:70 Y:00 P:25 SP:F6 CYC:211 SL:172
15:25:23: E128  8D 06 20  STA $2006 = 00                 A:00 X:70 Y:00 P:27 SP:F6 CYC:217 SL:172
15:25:23: E12B  8D 06 20  STA $2006 = 00                 A:00 X:70 Y:00 P:27 SP:F6 CYC:229 SL:172
15:25:23: E12E  A9 10     LDA #$10                       A:00 X:70 Y:00 P:27 SP:F6 CYC:241 SL:172
15:25:23: E130  8D 06 20  STA $2006 = 00                 A:10 X:70 Y:00 P:25 SP:F6 CYC:247 SL:172
15:25:23: E133  8D 06 20  STA $2006 = 00                 A:10 X:70 Y:00 P:25 SP:F6 CYC:259 SL:172
15:25:23: E136  A9 00     LDA #$00                       A:10 X:70 Y:00 P:25 SP:F6 CYC:271 SL:172
15:25:23: E138  8D 06 20  STA $2006 = 00                 A:00 X:70 Y:00 P:27 SP:F6 CYC:277 SL:172
15:25:23: E13B  8D 06 20  STA $2006 = 00                 A:00 X:70 Y:00 P:27 SP:F6 CYC:289 SL:172
15:25:23: E13E  68        PLA                            A:00 X:70 Y:00 P:27 SP:F6 CYC:301 SL:172
15:25:23: E13F  60        RTS                            A:7B X:70 Y:00 P:25 SP:F7 CYC:313 SL:172
15:25:23: E121  CA        DEX                            A:7B X:70 Y:00 P:25 SP:F9 CYC:331 SL:172
15:25:23: E122  D0 FA     BNE $E11E                      A:7B X:6F Y:00 P:25 SP:F9 CYC:337 SL:172
15:25:23: E11E  20 25 E1  JSR $E125                      A:7B X:6F Y:00 P:25 SP:F9 CYC:  5 SL:173
15:25:23: E125  48        PHA                            A:7B X:6F Y:00 P:25 SP:F7 CYC: 23 SL:173
15:25:23: E126  A9 00     LDA #$00                       A:7B X:6F Y:00 P:25 SP:F6 CYC: 32 SL:173
15:25:23: E128  8D 06 20  STA $2006 = 00                 A:00 X:6F Y:00 P:27 SP:F6 CYC: 38 SL:173
15:25:23: E12B  8D 06 20  STA $2006 = 00                 A:00 X:6F Y:00 P:27 SP:F6 CYC: 50 SL:173
15:25:23: E12E  A9 10     LDA #$10                       A:00 X:6F Y:00 P:27 SP:F6 CYC: 62 SL:173
15:25:23: E130  8D 06 20  STA $2006 = 00                 A:10 X:6F Y:00 P:25 SP:F6 CYC: 68 SL:173
15:25:23: E133  8D 06 20  STA $2006 = 00                 A:10 X:6F Y:00 P:25 SP:F6 CYC: 80 SL:173
15:25:23: E136  A9 00     LDA #$00                       A:10 X:6F Y:00 P:25 SP:F6 CYC: 92 SL:173
15:25:23: E138  8D 06 20  STA $2006 = 00                 A:00 X:6F Y:00 P:27 SP:F6 CYC: 98 SL:173
15:25:23: E13B  8D 06 20  STA $2006 = 00                 A:00 X:6F Y:00 P:27 SP:F6 CYC:110 SL:173
15:25:23: E13E  68        PLA                            A:00 X:6F Y:00 P:27 SP:F6 CYC:122 SL:173
15:25:23: E13F  60        RTS                            A:7B X:6F Y:00 P:25 SP:F7 CYC:134 SL:173
15:25:23: E121  CA        DEX                            A:7B X:6F Y:00 P:25 SP:F9 CYC:152 SL:173
15:25:23: E122  D0 FA     BNE $E11E                      A:7B X:6E Y:00 P:25 SP:F9 CYC:158 SL:173
15:25:23: E11E  20 25 E1  JSR $E125                      A:7B X:6E Y:00 P:25 SP:F9 CYC:167 SL:173
15:25:23: E125  48        PHA                            A:7B X:6E Y:00 P:25 SP:F7 CYC:185 SL:173
15:25:23: E126  A9 00     LDA #$00                       A:7B X:6E Y:00 P:25 SP:F6 CYC:194 SL:173
15:25:23: E128  8D 06 20  STA $2006 = 00                 A:00 X:6E Y:00 P:27 SP:F6 CYC:200 SL:173
15:25:23: E12B  8D 06 20  STA $2006 = 00                 A:00 X:6E Y:00 P:27 SP:F6 CYC:212 SL:173
15:25:23: E12E  A9 10     LDA #$10                       A:00 X:6E Y:00 P:27 SP:F6 CYC:224 SL:173
15:25:23: E130  8D 06 20  STA $2006 = 00                 A:10 X:6E Y:00 P:25 SP:F6 CYC:230 SL:173
15:25:23: E133  8D 06 20  STA $2006 = 00                 A:10 X:6E Y:00 P:25 SP:F6 CYC:242 SL:173
15:25:23: E136  A9 00     LDA #$00                       A:10 X:6E Y:00 P:25 SP:F6 CYC:254 SL:173
15:25:23: E138  8D 06 20  STA $2006 = 00                 A:00 X:6E Y:00 P:27 SP:F6 CYC:260 SL:173
15:25:23: E13B  8D 06 20  STA $2006 = 00                 A:00 X:6E Y:00 P:27 SP:F6 CYC:272 SL:173
15:25:23: E13E  68        PLA                            A:00 X:6E Y:00 P:27 SP:F6 CYC:284 SL:173
15:25:23: E13F  60        RTS                            A:7B X:6E Y:00 P:25 SP:F7 CYC:296 SL:173
15:25:23: E121  CA        DEX                            A:7B X:6E Y:00 P:25 SP:F9 CYC:314 SL:173
15:25:23: E122  D0 FA     BNE $E11E                      A:7B X:6D Y:00 P:25 SP:F9 CYC:320 SL:173
15:25:23: E11E  20 25 E1  JSR $E125                      A:7B X:6D Y:00 P:25 SP:F9 CYC:329 SL:173
15:25:23: E125  48        PHA                            A:7B X:6D Y:00 P:25 SP:F7 CYC:  6 SL:174
15:25:23: E126  A9 00     LDA #$00                       A:7B X:6D Y:00 P:25 SP:F6 CYC: 15 SL:174
15:25:23: E128  8D 06 20  STA $2006 = 00                 A:00 X:6D Y:00 P:27 SP:F6 CYC: 21 SL:174
15:25:23: E12B  8D 06 20  STA $2006 = 00                 A:00 X:6D Y:00 P:27 SP:F6 CYC: 33 SL:174
15:25:23: E12E  A9 10     LDA #$10                       A:00 X:6D Y:00 P:27 SP:F6 CYC: 45 SL:174
15:25:23: E130  8D 06 20  STA $2006 = 00                 A:10 X:6D Y:00 P:25 SP:F6 CYC: 51 SL:174
15:25:23: E133  8D 06 20  STA $2006 = 00                 A:10 X:6D Y:00 P:25 SP:F6 CYC: 63 SL:174
15:25:23: E136  A9 00     LDA #$00                       A:10 X:6D Y:00 P:25 SP:F6 CYC: 75 SL:174
15:25:23: E138  8D 06 20  STA $2006 = 00                 A:00 X:6D Y:00 P:27 SP:F6 CYC: 81 SL:174
15:25:23: E13B  8D 06 20  STA $2006 = 00                 A:00 X:6D Y:00 P:27 SP:F6 CYC: 93 SL:174
15:25:23: E13E  68        PLA                            A:00 X:6D Y:00 P:27 SP:F6 CYC:105 SL:174
15:25:23: E13F  60        RTS                            A:7B X:6D Y:00 P:25 SP:F7 CYC:117 SL:174
15:25:23: E121  CA        DEX                            A:7B X:6D Y:00 P:25 SP:F9 CYC:135 SL:174
15:25:23: E122  D0 FA     BNE $E11E                      A:7B X:6C Y:00 P:25 SP:F9 CYC:141 SL:174
15:25:23: E11E  20 25 E1  JSR $E125                      A:7B X:6C Y:00 P:25 SP:F9 CYC:150 SL:174
15:25:23: E125  48        PHA                            A:7B X:6C Y:00 P:25 SP:F7 CYC:168 SL:174
15:25:23: E126  A9 00     LDA #$00                       A:7B X:6C Y:00 P:25 SP:F6 CYC:177 SL:174
15:25:23: E128  8D 06 20  STA $2006 = 00                 A:00 X:6C Y:00 P:27 SP:F6 CYC:183 SL:174
15:25:23: E12B  8D 06 20  STA $2006 = 00                 A:00 X:6C Y:00 P:27 SP:F6 CYC:195 SL:174
15:25:23: E12E  A9 10     LDA #$10                       A:00 X:6C Y:00 P:27 SP:F6 CYC:207 SL:174
15:25:23: E130  8D 06 20  STA $2006 = 00                 A:10 X:6C Y:00 P:25 SP:F6 CYC:213 SL:174
15:25:23: E133  8D 06 20  STA $2006 = 00                 A:10 X:6C Y:00 P:25 SP:F6 CYC:225 SL:174
15:25:23: E136  A9 00     LDA #$00                       A:10 X:6C Y:00 P:25 SP:F6 CYC:237 SL:174
15:25:23: E138  8D 06 20  STA $2006 = 00                 A:00 X:6C Y:00 P:27 SP:F6 CYC:243 SL:174
15:25:23: E13B  8D 06 20  STA $2006 = 00                 A:00 X:6C Y:00 P:27 SP:F6 CYC:255 SL:174
15:25:23: E13E  68        PLA                            A:00 X:6C Y:00 P:27 SP:F6 CYC:267 SL:174
15:25:23: E13F  60        RTS                            A:7B X:6C Y:00 P:25 SP:F7 CYC:279 SL:174
15:25:23: E121  CA        DEX                            A:7B X:6C Y:00 P:25 SP:F9 CYC:297 SL:174
15:25:23: E122  D0 FA     BNE $E11E                      A:7B X:6B Y:00 P:25 SP:F9 CYC:303 SL:174
15:25:23: E11E  20 25 E1  JSR $E125                      A:7B X:6B Y:00 P:25 SP:F9 CYC:312 SL:174
15:25:23: E125  48        PHA                            A:7B X:6B Y:00 P:25 SP:F7 CYC:330 SL:174
15:25:23: E126  A9 00     LDA #$00                       A:7B X:6B Y:00 P:25 SP:F6 CYC:339 SL:174
15:25:23: E128  8D 06 20  STA $2006 = 00                 A:00 X:6B Y:00 P:27 SP:F6 CYC:  4 SL:175
15:25:23: E12B  8D 06 20  STA $2006 = 00                 A:00 X:6B Y:00 P:27 SP:F6 CYC: 16 SL:175
15:25:23: E12E  A9 10     LDA #$10                       A:00 X:6B Y:00 P:27 SP:F6 CYC: 28 SL:175
15:25:23: E130  8D 06 20  STA $2006 = 00                 A:10 X:6B Y:00 P:25 SP:F6 CYC: 34 SL:175
15:25:23: E133  8D 06 20  STA $2006 = 00                 A:10 X:6B Y:00 P:25 SP:F6 CYC: 46 SL:175
15:25:23: E136  A9 00     LDA #$00                       A:10 X:6B Y:00 P:25 SP:F6 CYC: 58 SL:175
15:25:23: E138  8D 06 20  STA $2006 = 00                 A:00 X:6B Y:00 P:27 SP:F6 CYC: 64 SL:175
15:25:23: E13B  8D 06 20  STA $2006 = 00                 A:00 X:6B Y:00 P:27 SP:F6 CYC: 76 SL:175
15:25:23: E13E  68        PLA                            A:00 X:6B Y:00 P:27 SP:F6 CYC: 88 SL:175
15:25:23: E13F  60        RTS                            A:7B X:6B Y:00 P:25 SP:F7 CYC:100 SL:175
15:25:23: E121  CA        DEX                            A:7B X:6B Y:00 P:25 SP:F9 CYC:118 SL:175
15:25:23: E122  D0 FA     BNE $E11E                      A:7B X:6A Y:00 P:25 SP:F9 CYC:124 SL:175
15:25:23: E11E  20 25 E1  JSR $E125                      A:7B X:6A Y:00 P:25 SP:F9 CYC:133 SL:175
15:25:23: E125  48        PHA                            A:7B X:6A Y:00 P:25 SP:F7 CYC:151 SL:175
15:25:23: E126  A9 00     LDA #$00                       A:7B X:6A Y:00 P:25 SP:F6 CYC:160 SL:175
15:25:23: E128  8D 06 20  STA $2006 = 00                 A:00 X:6A Y:00 P:27 SP:F6 CYC:166 SL:175
15:25:23: E12B  8D 06 20  STA $2006 = 00                 A:00 X:6A Y:00 P:27 SP:F6 CYC:178 SL:175
15:25:23: E12E  A9 10     LDA #$10                       A:00 X:6A Y:00 P:27 SP:F6 CYC:190 SL:175
15:25:23: E130  8D 06 20  STA $2006 = 00                 A:10 X:6A Y:00 P:25 SP:F6 CYC:196 SL:175
15:25:23: E133  8D 06 20  STA $2006 = 00                 A:10 X:6A Y:00 P:25 SP:F6 CYC:208 SL:175
15:25:23: E136  A9 00     LDA #$00                       A:10 X:6A Y:00 P:25 SP:F6 CYC:220 SL:175
15:25:23: E138  8D 06 20  STA $2006 = 00                 A:00 X:6A Y:00 P:27 SP:F6 CYC:226 SL:175
15:25:23: E13B  8D 06 20  STA $2006 = 00                 A:00 X:6A Y:00 P:27 SP:F6 CYC:238 SL:175
15:25:23: E13E  68        PLA                            A:00 X:6A Y:00 P:27 SP:F6 CYC:250 SL:175
15:25:23: E13F  60        RTS                            A:7B X:6A Y:00 P:25 SP:F7 CYC:262 SL:175
15:25:23: E121  CA        DEX                            A:7B X:6A Y:00 P:25 SP:F9 CYC:280 SL:175
15:25:23: E122  D0 FA     BNE $E11E                      A:7B X:69 Y:00 P:25 SP:F9 CYC:286 SL:175
15:25:23: E11E  20 25 E1  JSR $E125                      A:7B X:69 Y:00 P:25 SP:F9 CYC:295 SL:175
15:25:23: E125  48        PHA                            A:7B X:69 Y:00 P:25 SP:F7 CYC:313 SL:175
15:25:23: E126  A9 00     LDA #$00                       A:7B X:69 Y:00 P:25 SP:F6 CYC:322 SL:175
15:25:23: E128  8D 06 20  STA $2006 = 00                 A:00 X:69 Y:00 P:27 SP:F6 CYC:328 SL:175
15:25:23: E12B  8D 06 20  STA $2006 = 00                 A:00 X:69 Y:00 P:27 SP:F6 CYC:340 SL:175
15:25:23: E12E  A9 10     LDA #$10                       A:00 X:69 Y:00 P:27 SP:F6 CYC: 11 SL:176
15:25:23: E130  8D 06 20  STA $2006 = 00                 A:10 X:69 Y:00 P:25 SP:F6 CYC: 17 SL:176
15:25:23: E133  8D 06 20  STA $2006 = 00                 A:10 X:69 Y:00 P:25 SP:F6 CYC: 29 SL:176
15:25:23: E136  A9 00     LDA #$00                       A:10 X:69 Y:00 P:25 SP:F6 CYC: 41 SL:176
15:25:23: E138  8D 06 20  STA $2006 = 00                 A:00 X:69 Y:00 P:27 SP:F6 CYC: 47 SL:176
15:25:23: E13B  8D 06 20  STA $2006 = 00                 A:00 X:69 Y:00 P:27 SP:F6 CYC: 59 SL:176
15:25:23: E13E  68        PLA                            A:00 X:69 Y:00 P:27 SP:F6 CYC: 71 SL:176
15:25:23: E13F  60        RTS                            A:7B X:69 Y:00 P:25 SP:F7 CYC: 83 SL:176
15:25:23: E121  CA        DEX                            A:7B X:69 Y:00 P:25 SP:F9 CYC:101 SL:176
15:25:23: E122  D0 FA     BNE $E11E                      A:7B X:68 Y:00 P:25 SP:F9 CYC:107 SL:176
15:25:23: E11E  20 25 E1  JSR $E125                      A:7B X:68 Y:00 P:25 SP:F9 CYC:116 SL:176
15:25:23: E125  48        PHA                            A:7B X:68 Y:00 P:25 SP:F7 CYC:134 SL:176
15:25:23: E126  A9 00     LDA #$00                       A:7B X:68 Y:00 P:25 SP:F6 CYC:143 SL:176
15:25:23: E128  8D 06 20  STA $2006 = 00                 A:00 X:68 Y:00 P:27 SP:F6 CYC:149 SL:176
15:25:23: E12B  8D 06 20  STA $2006 = 00                 A:00 X:68 Y:00 P:27 SP:F6 CYC:161 SL:176
15:25:23: E12E  A9 10     LDA #$10                       A:00 X:68 Y:00 P:27 SP:F6 CYC:173 SL:176
15:25:23: E130  8D 06 20  STA $2006 = 00                 A:10 X:68 Y:00 P:25 SP:F6 CYC:179 SL:176
15:25:23: E133  8D 06 20  STA $2006 = 00                 A:10 X:68 Y:00 P:25 SP:F6 CYC:191 SL:176
15:25:23: E136  A9 00     LDA #$00                       A:10 X:68 Y:00 P:25 SP:F6 CYC:203 SL:176
15:25:23: E138  8D 06 20  STA $2006 = 00                 A:00 X:68 Y:00 P:27 SP:F6 CYC:209 SL:176
15:25:23: E13B  8D 06 20  STA $2006 = 00                 A:00 X:68 Y:00 P:27 SP:F6 CYC:221 SL:176
15:25:23: E13E  68        PLA                            A:00 X:68 Y:00 P:27 SP:F6 CYC:233 SL:176
15:25:23: E13F  60        RTS                            A:7B X:68 Y:00 P:25 SP:F7 CYC:245 SL:176
15:25:23: E121  CA        DEX                            A:7B X:68 Y:00 P:25 SP:F9 CYC:263 SL:176
15:25:23: E122  D0 FA     BNE $E11E                      A:7B X:67 Y:00 P:25 SP:F9 CYC:269 SL:176
15:25:23: E11E  20 25 E1  JSR $E125                      A:7B X:67 Y:00 P:25 SP:F9 CYC:278 SL:176
15:25:23: E125  48        PHA                            A:7B X:67 Y:00 P:25 SP:F7 CYC:296 SL:176
15:25:23: E126  A9 00     LDA #$00                       A:7B X:67 Y:00 P:25 SP:F6 CYC:305 SL:176
15:25:23: E128  8D 06 20  STA $2006 = 00                 A:00 X:67 Y:00 P:27 SP:F6 CYC:311 SL:176
15:25:23: E12B  8D 06 20  STA $2006 = 00                 A:00 X:67 Y:00 P:27 SP:F6 CYC:323 SL:176
15:25:23: E12E  A9 10     LDA #$10                       A:00 X:67 Y:00 P:27 SP:F6 CYC:335 SL:176
15:25:23: E130  8D 06 20  STA $2006 = 00                 A:10 X:67 Y:00 P:25 SP:F6 CYC:  0 SL:177
15:25:23: E133  8D 06 20  STA $2006 = 00                 A:10 X:67 Y:00 P:25 SP:F6 CYC: 12 SL:177
15:25:23: E136  A9 00     LDA #$00                       A:10 X:67 Y:00 P:25 SP:F6 CYC: 24 SL:177
15:25:23: E138  8D 06 20  STA $2006 = 00                 A:00 X:67 Y:00 P:27 SP:F6 CYC: 30 SL:177
15:25:23: E13B  8D 06 20  STA $2006 = 00                 A:00 X:67 Y:00 P:27 SP:F6 CYC: 42 SL:177
15:25:23: E13E  68        PLA                            A:00 X:67 Y:00 P:27 SP:F6 CYC: 54 SL:177
15:25:23: E13F  60        RTS                            A:7B X:67 Y:00 P:25 SP:F7 CYC: 66 SL:177
15:25:23: E121  CA        DEX                            A:7B X:67 Y:00 P:25 SP:F9 CYC: 84 SL:177
15:25:23: E122  D0 FA     BNE $E11E                      A:7B X:66 Y:00 P:25 SP:F9 CYC: 90 SL:177
15:25:23: E11E  20 25 E1  JSR $E125                      A:7B X:66 Y:00 P:25 SP:F9 CYC: 99 SL:177
15:25:23: E125  48        PHA                            A:7B X:66 Y:00 P:25 SP:F7 CYC:117 SL:177
15:25:23: E126  A9 00     LDA #$00                       A:7B X:66 Y:00 P:25 SP:F6 CYC:126 SL:177
15:25:23: E128  8D 06 20  STA $2006 = 00                 A:00 X:66 Y:00 P:27 SP:F6 CYC:132 SL:177
15:25:23: E12B  8D 06 20  STA $2006 = 00                 A:00 X:66 Y:00 P:27 SP:F6 CYC:144 SL:177
15:25:23: E12E  A9 10     LDA #$10                       A:00 X:66 Y:00 P:27 SP:F6 CYC:156 SL:177
15:25:23: E130  8D 06 20  STA $2006 = 00                 A:10 X:66 Y:00 P:25 SP:F6 CYC:162 SL:177
15:25:23: E133  8D 06 20  STA $2006 = 00                 A:10 X:66 Y:00 P:25 SP:F6 CYC:174 SL:177
15:25:23: E136  A9 00     LDA #$00                       A:10 X:66 Y:00 P:25 SP:F6 CYC:186 SL:177
15:25:23: E138  8D 06 20  STA $2006 = 00                 A:00 X:66 Y:00 P:27 SP:F6 CYC:192 SL:177
15:25:23: E13B  8D 06 20  STA $2006 = 00                 A:00 X:66 Y:00 P:27 SP:F6 CYC:204 SL:177
15:25:23: E13E  68        PLA                            A:00 X:66 Y:00 P:27 SP:F6 CYC:216 SL:177
15:25:23: E13F  60        RTS                            A:7B X:66 Y:00 P:25 SP:F7 CYC:228 SL:177
15:25:23: E121  CA        DEX                            A:7B X:66 Y:00 P:25 SP:F9 CYC:246 SL:177
15:25:23: E122  D0 FA     BNE $E11E                      A:7B X:65 Y:00 P:25 SP:F9 CYC:252 SL:177
15:25:23: E11E  20 25 E1  JSR $E125                      A:7B X:65 Y:00 P:25 SP:F9 CYC:261 SL:177
15:25:23: E125  48        PHA                            A:7B X:65 Y:00 P:25 SP:F7 CYC:279 SL:177
15:25:23: E126  A9 00     LDA #$00                       A:7B X:65 Y:00 P:25 SP:F6 CYC:288 SL:177
15:25:23: E128  8D 06 20  STA $2006 = 00                 A:00 X:65 Y:00 P:27 SP:F6 CYC:294 SL:177
15:25:23: E12B  8D 06 20  STA $2006 = 00                 A:00 X:65 Y:00 P:27 SP:F6 CYC:306 SL:177
15:25:23: E12E  A9 10     LDA #$10                       A:00 X:65 Y:00 P:27 SP:F6 CYC:318 SL:177
15:25:23: E130  8D 06 20  STA $2006 = 00                 A:10 X:65 Y:00 P:25 SP:F6 CYC:324 SL:177
15:25:23: E133  8D 06 20  STA $2006 = 00                 A:10 X:65 Y:00 P:25 SP:F6 CYC:336 SL:177
15:25:23: E136  A9 00     LDA #$00                       A:10 X:65 Y:00 P:25 SP:F6 CYC:  7 SL:178
15:25:23: E138  8D 06 20  STA $2006 = 00                 A:00 X:65 Y:00 P:27 SP:F6 CYC: 13 SL:178
15:25:24: E13B  8D 06 20  STA $2006 = 00                 A:00 X:65 Y:00 P:27 SP:F6 CYC: 25 SL:178
15:25:24: E13E  68        PLA                            A:00 X:65 Y:00 P:27 SP:F6 CYC: 37 SL:178
15:25:24: E13F  60        RTS                            A:7B X:65 Y:00 P:25 SP:F7 CYC: 49 SL:178
15:25:24: E121  CA        DEX                            A:7B X:65 Y:00 P:25 SP:F9 CYC: 67 SL:178
15:25:24: E122  D0 FA     BNE $E11E                      A:7B X:64 Y:00 P:25 SP:F9 CYC: 73 SL:178
15:25:24: E11E  20 25 E1  JSR $E125                      A:7B X:64 Y:00 P:25 SP:F9 CYC: 82 SL:178
15:25:24: E125  48        PHA                            A:7B X:64 Y:00 P:25 SP:F7 CYC:100 SL:178
15:25:24: E126  A9 00     LDA #$00                       A:7B X:64 Y:00 P:25 SP:F6 CYC:109 SL:178
15:25:24: E128  8D 06 20  STA $2006 = 00                 A:00 X:64 Y:00 P:27 SP:F6 CYC:115 SL:178
15:25:24: E12B  8D 06 20  STA $2006 = 00                 A:00 X:64 Y:00 P:27 SP:F6 CYC:127 SL:178
15:25:24: E12E  A9 10     LDA #$10                       A:00 X:64 Y:00 P:27 SP:F6 CYC:139 SL:178
15:25:24: E130  8D 06 20  STA $2006 = 00                 A:10 X:64 Y:00 P:25 SP:F6 CYC:145 SL:178
15:25:24: E133  8D 06 20  STA $2006 = 00                 A:10 X:64 Y:00 P:25 SP:F6 CYC:157 SL:178
15:25:24: E136  A9 00     LDA #$00                       A:10 X:64 Y:00 P:25 SP:F6 CYC:169 SL:178
15:25:24: E138  8D 06 20  STA $2006 = 00                 A:00 X:64 Y:00 P:27 SP:F6 CYC:175 SL:178
15:25:24: E13B  8D 06 20  STA $2006 = 00                 A:00 X:64 Y:00 P:27 SP:F6 CYC:187 SL:178
15:25:24: E13E  68        PLA                            A:00 X:64 Y:00 P:27 SP:F6 CYC:199 SL:178
15:25:24: E13F  60        RTS                            A:7B X:64 Y:00 P:25 SP:F7 CYC:211 SL:178
15:25:24: E121  CA        DEX                            A:7B X:64 Y:00 P:25 SP:F9 CYC:229 SL:178
15:25:24: E122  D0 FA     BNE $E11E                      A:7B X:63 Y:00 P:25 SP:F9 CYC:235 SL:178
15:25:24: E11E  20 25 E1  JSR $E125                      A:7B X:63 Y:00 P:25 SP:F9 CYC:244 SL:178
15:25:24: E125  48        PHA                            A:7B X:63 Y:00 P:25 SP:F7 CYC:262 SL:178
15:25:24: E126  A9 00     LDA #$00                       A:7B X:63 Y:00 P:25 SP:F6 CYC:271 SL:178
15:25:24: E128  8D 06 20  STA $2006 = 00                 A:00 X:63 Y:00 P:27 SP:F6 CYC:277 SL:178
15:25:24: E12B  8D 06 20  STA $2006 = 00                 A:00 X:63 Y:00 P:27 SP:F6 CYC:289 SL:178
15:25:24: E12E  A9 10     LDA #$10                       A:00 X:63 Y:00 P:27 SP:F6 CYC:301 SL:178
15:25:24: E130  8D 06 20  STA $2006 = 00                 A:10 X:63 Y:00 P:25 SP:F6 CYC:307 SL:178
15:25:24: E133  8D 06 20  STA $2006 = 00                 A:10 X:63 Y:00 P:25 SP:F6 CYC:319 SL:178
15:25:24: E136  A9 00     LDA #$00                       A:10 X:63 Y:00 P:25 SP:F6 CYC:331 SL:178
15:25:24: E138  8D 06 20  STA $2006 = 00                 A:00 X:63 Y:00 P:27 SP:F6 CYC:337 SL:178
15:25:24: E13B  8D 06 20  STA $2006 = 00                 A:00 X:63 Y:00 P:27 SP:F6 CYC:  8 SL:179
15:25:24: E13E  68        PLA                            A:00 X:63 Y:00 P:27 SP:F6 CYC: 20 SL:179
15:25:24: E13F  60        RTS                            A:7B X:63 Y:00 P:25 SP:F7 CYC: 32 SL:179
15:25:24: E121  CA        DEX                            A:7B X:63 Y:00 P:25 SP:F9 CYC: 50 SL:179
15:25:24: E122  D0 FA     BNE $E11E                      A:7B X:62 Y:00 P:25 SP:F9 CYC: 56 SL:179
15:25:24: E11E  20 25 E1  JSR $E125                      A:7B X:62 Y:00 P:25 SP:F9 CYC: 65 SL:179
15:25:24: E125  48        PHA                            A:7B X:62 Y:00 P:25 SP:F7 CYC: 83 SL:179
15:25:24: E126  A9 00     LDA #$00                       A:7B X:62 Y:00 P:25 SP:F6 CYC: 92 SL:179
15:25:24: E128  8D 06 20  STA $2006 = 00                 A:00 X:62 Y:00 P:27 SP:F6 CYC: 98 SL:179
15:25:24: E12B  8D 06 20  STA $2006 = 00                 A:00 X:62 Y:00 P:27 SP:F6 CYC:110 SL:179
15:25:24: E12E  A9 10     LDA #$10                       A:00 X:62 Y:00 P:27 SP:F6 CYC:122 SL:179
15:25:24: E130  8D 06 20  STA $2006 = 00                 A:10 X:62 Y:00 P:25 SP:F6 CYC:128 SL:179
15:25:24: E133  8D 06 20  STA $2006 = 00                 A:10 X:62 Y:00 P:25 SP:F6 CYC:140 SL:179
15:25:24: E136  A9 00     LDA #$00                       A:10 X:62 Y:00 P:25 SP:F6 CYC:152 SL:179
15:25:24: E138  8D 06 20  STA $2006 = 00                 A:00 X:62 Y:00 P:27 SP:F6 CYC:158 SL:179
15:25:24: E13B  8D 06 20  STA $2006 = 00                 A:00 X:62 Y:00 P:27 SP:F6 CYC:170 SL:179
15:25:24: E13E  68        PLA                            A:00 X:62 Y:00 P:27 SP:F6 CYC:182 SL:179
15:25:24: E13F  60        RTS                            A:7B X:62 Y:00 P:25 SP:F7 CYC:194 SL:179
15:25:24: E121  CA        DEX                            A:7B X:62 Y:00 P:25 SP:F9 CYC:212 SL:179
15:25:24: E122  D0 FA     BNE $E11E                      A:7B X:61 Y:00 P:25 SP:F9 CYC:218 SL:179
15:25:24: E11E  20 25 E1  JSR $E125                      A:7B X:61 Y:00 P:25 SP:F9 CYC:227 SL:179
15:25:24: E125  48        PHA                            A:7B X:61 Y:00 P:25 SP:F7 CYC:245 SL:179
15:25:24: E126  A9 00     LDA #$00                       A:7B X:61 Y:00 P:25 SP:F6 CYC:254 SL:179
15:25:24: E128  8D 06 20  STA $2006 = 00                 A:00 X:61 Y:00 P:27 SP:F6 CYC:260 SL:179
15:25:24: E12B  8D 06 20  STA $2006 = 00                 A:00 X:61 Y:00 P:27 SP:F6 CYC:272 SL:179
15:25:24: E12E  A9 10     LDA #$10                       A:00 X:61 Y:00 P:27 SP:F6 CYC:284 SL:179
15:25:24: E130  8D 06 20  STA $2006 = 00                 A:10 X:61 Y:00 P:25 SP:F6 CYC:290 SL:179
15:25:24: E133  8D 06 20  STA $2006 = 00                 A:10 X:61 Y:00 P:25 SP:F6 CYC:302 SL:179
15:25:24: E136  A9 00     LDA #$00                       A:10 X:61 Y:00 P:25 SP:F6 CYC:314 SL:179
15:25:24: E138  8D 06 20  STA $2006 = 00                 A:00 X:61 Y:00 P:27 SP:F6 CYC:320 SL:179
15:25:24: E13B  8D 06 20  STA $2006 = 00                 A:00 X:61 Y:00 P:27 SP:F6 CYC:332 SL:179
15:25:24: E13E  68        PLA                            A:00 X:61 Y:00 P:27 SP:F6 CYC:  3 SL:180
15:25:24: E13F  60        RTS                            A:7B X:61 Y:00 P:25 SP:F7 CYC: 15 SL:180
15:25:24: E121  CA        DEX                            A:7B X:61 Y:00 P:25 SP:F9 CYC: 33 SL:180
15:25:24: E122  D0 FA     BNE $E11E                      A:7B X:60 Y:00 P:25 SP:F9 CYC: 39 SL:180
15:25:24: E11E  20 25 E1  JSR $E125                      A:7B X:60 Y:00 P:25 SP:F9 CYC: 48 SL:180
15:25:24: E125  48        PHA                            A:7B X:60 Y:00 P:25 SP:F7 CYC: 66 SL:180
15:25:24: E126  A9 00     LDA #$00                       A:7B X:60 Y:00 P:25 SP:F6 CYC: 75 SL:180
15:25:24: E128  8D 06 20  STA $2006 = 00                 A:00 X:60 Y:00 P:27 SP:F6 CYC: 81 SL:180
15:25:24: E12B  8D 06 20  STA $2006 = 00                 A:00 X:60 Y:00 P:27 SP:F6 CYC: 93 SL:180
15:25:24: E12E  A9 10     LDA #$10                       A:00 X:60 Y:00 P:27 SP:F6 CYC:105 SL:180
15:25:24: E130  8D 06 20  STA $2006 = 00                 A:10 X:60 Y:00 P:25 SP:F6 CYC:111 SL:180
15:25:24: E133  8D 06 20  STA $2006 = 00                 A:10 X:60 Y:00 P:25 SP:F6 CYC:123 SL:180
15:25:24: E136  A9 00     LDA #$00                       A:10 X:60 Y:00 P:25 SP:F6 CYC:135 SL:180
15:25:24: E138  8D 06 20  STA $2006 = 00                 A:00 X:60 Y:00 P:27 SP:F6 CYC:141 SL:180
15:25:24: E13B  8D 06 20  STA $2006 = 00                 A:00 X:60 Y:00 P:27 SP:F6 CYC:153 SL:180
15:25:24: E13E  68        PLA                            A:00 X:60 Y:00 P:27 SP:F6 CYC:165 SL:180
15:25:24: E13F  60        RTS                            A:7B X:60 Y:00 P:25 SP:F7 CYC:177 SL:180
15:25:24: E121  CA        DEX                            A:7B X:60 Y:00 P:25 SP:F9 CYC:195 SL:180
15:25:24: E122  D0 FA     BNE $E11E                      A:7B X:5F Y:00 P:25 SP:F9 CYC:201 SL:180
15:25:24: E11E  20 25 E1  JSR $E125                      A:7B X:5F Y:00 P:25 SP:F9 CYC:210 SL:180
15:25:24: E125  48        PHA                            A:7B X:5F Y:00 P:25 SP:F7 CYC:228 SL:180
15:25:24: E126  A9 00     LDA #$00                       A:7B X:5F Y:00 P:25 SP:F6 CYC:237 SL:180
15:25:24: E128  8D 06 20  STA $2006 = 00                 A:00 X:5F Y:00 P:27 SP:F6 CYC:243 SL:180
15:25:24: E12B  8D 06 20  STA $2006 = 00                 A:00 X:5F Y:00 P:27 SP:F6 CYC:255 SL:180
15:25:24: E12E  A9 10     LDA #$10                       A:00 X:5F Y:00 P:27 SP:F6 CYC:267 SL:180
15:25:24: E130  8D 06 20  STA $2006 = 00                 A:10 X:5F Y:00 P:25 SP:F6 CYC:273 SL:180
15:25:24: E133  8D 06 20  STA $2006 = 00                 A:10 X:5F Y:00 P:25 SP:F6 CYC:285 SL:180
15:25:24: E136  A9 00     LDA #$00                       A:10 X:5F Y:00 P:25 SP:F6 CYC:297 SL:180
15:25:24: E138  8D 06 20  STA $2006 = 00                 A:00 X:5F Y:00 P:27 SP:F6 CYC:303 SL:180
15:25:24: E13B  8D 06 20  STA $2006 = 00                 A:00 X:5F Y:00 P:27 SP:F6 CYC:315 SL:180
15:25:24: E13E  68        PLA                            A:00 X:5F Y:00 P:27 SP:F6 CYC:327 SL:180
15:25:24: E13F  60        RTS                            A:7B X:5F Y:00 P:25 SP:F7 CYC:339 SL:180
15:25:24: E121  CA        DEX                            A:7B X:5F Y:00 P:25 SP:F9 CYC: 16 SL:181
15:25:24: E122  D0 FA     BNE $E11E                      A:7B X:5E Y:00 P:25 SP:F9 CYC: 22 SL:181
15:25:24: E11E  20 25 E1  JSR $E125                      A:7B X:5E Y:00 P:25 SP:F9 CYC: 31 SL:181
15:25:24: E125  48        PHA                            A:7B X:5E Y:00 P:25 SP:F7 CYC: 49 SL:181
15:25:24: E126  A9 00     LDA #$00                       A:7B X:5E Y:00 P:25 SP:F6 CYC: 58 SL:181
15:25:24: E128  8D 06 20  STA $2006 = 00                 A:00 X:5E Y:00 P:27 SP:F6 CYC: 64 SL:181
15:25:24: E12B  8D 06 20  STA $2006 = 00                 A:00 X:5E Y:00 P:27 SP:F6 CYC: 76 SL:181
15:25:24: E12E  A9 10     LDA #$10                       A:00 X:5E Y:00 P:27 SP:F6 CYC: 88 SL:181
15:25:24: E130  8D 06 20  STA $2006 = 00                 A:10 X:5E Y:00 P:25 SP:F6 CYC: 94 SL:181
15:25:24: E133  8D 06 20  STA $2006 = 00                 A:10 X:5E Y:00 P:25 SP:F6 CYC:106 SL:181
15:25:24: E136  A9 00     LDA #$00                       A:10 X:5E Y:00 P:25 SP:F6 CYC:118 SL:181
15:25:24: E138  8D 06 20  STA $2006 = 00                 A:00 X:5E Y:00 P:27 SP:F6 CYC:124 SL:181
15:25:24: E13B  8D 06 20  STA $2006 = 00                 A:00 X:5E Y:00 P:27 SP:F6 CYC:136 SL:181
15:25:24: E13E  68        PLA                            A:00 X:5E Y:00 P:27 SP:F6 CYC:148 SL:181
15:25:24: E13F  60        RTS                            A:7B X:5E Y:00 P:25 SP:F7 CYC:160 SL:181
15:25:24: E121  CA        DEX                            A:7B X:5E Y:00 P:25 SP:F9 CYC:178 SL:181
15:25:24: E122  D0 FA     BNE $E11E                      A:7B X:5D Y:00 P:25 SP:F9 CYC:184 SL:181
15:25:24: E11E  20 25 E1  JSR $E125                      A:7B X:5D Y:00 P:25 SP:F9 CYC:193 SL:181
15:25:24: E125  48        PHA                            A:7B X:5D Y:00 P:25 SP:F7 CYC:211 SL:181
15:25:24: E126  A9 00     LDA #$00                       A:7B X:5D Y:00 P:25 SP:F6 CYC:220 SL:181
15:25:24: E128  8D 06 20  STA $2006 = 00                 A:00 X:5D Y:00 P:27 SP:F6 CYC:226 SL:181
15:25:24: E12B  8D 06 20  STA $2006 = 00                 A:00 X:5D Y:00 P:27 SP:F6 CYC:238 SL:181
15:25:24: E12E  A9 10     LDA #$10                       A:00 X:5D Y:00 P:27 SP:F6 CYC:250 SL:181
15:25:24: E130  8D 06 20  STA $2006 = 00                 A:10 X:5D Y:00 P:25 SP:F6 CYC:256 SL:181
15:25:24: E133  8D 06 20  STA $2006 = 00                 A:10 X:5D Y:00 P:25 SP:F6 CYC:268 SL:181
15:25:24: E136  A9 00     LDA #$00                       A:10 X:5D Y:00 P:25 SP:F6 CYC:280 SL:181
15:25:24: E138  8D 06 20  STA $2006 = 00                 A:00 X:5D Y:00 P:27 SP:F6 CYC:286 SL:181
15:25:24: E13B  8D 06 20  STA $2006 = 00                 A:00 X:5D Y:00 P:27 SP:F6 CYC:298 SL:181
15:25:24: E13E  68        PLA                            A:00 X:5D Y:00 P:27 SP:F6 CYC:310 SL:181
15:25:24: E13F  60        RTS                            A:7B X:5D Y:00 P:25 SP:F7 CYC:322 SL:181
15:25:24: E121  CA        DEX                            A:7B X:5D Y:00 P:25 SP:F9 CYC:340 SL:181
15:25:24: E122  D0 FA     BNE $E11E                      A:7B X:5C Y:00 P:25 SP:F9 CYC:  5 SL:182
15:25:24: E11E  20 25 E1  JSR $E125                      A:7B X:5C Y:00 P:25 SP:F9 CYC: 14 SL:182
15:25:24: E125  48        PHA                            A:7B X:5C Y:00 P:25 SP:F7 CYC: 32 SL:182
15:25:24: E126  A9 00     LDA #$00                       A:7B X:5C Y:00 P:25 SP:F6 CYC: 41 SL:182
15:25:24: E128  8D 06 20  STA $2006 = 00                 A:00 X:5C Y:00 P:27 SP:F6 CYC: 47 SL:182
15:25:24: E12B  8D 06 20  STA $2006 = 00                 A:00 X:5C Y:00 P:27 SP:F6 CYC: 59 SL:182
15:25:24: E12E  A9 10     LDA #$10                       A:00 X:5C Y:00 P:27 SP:F6 CYC: 71 SL:182
15:25:24: E130  8D 06 20  STA $2006 = 00                 A:10 X:5C Y:00 P:25 SP:F6 CYC: 77 SL:182
15:25:24: E133  8D 06 20  STA $2006 = 00                 A:10 X:5C Y:00 P:25 SP:F6 CYC: 89 SL:182
15:25:24: E136  A9 00     LDA #$00                       A:10 X:5C Y:00 P:25 SP:F6 CYC:101 SL:182
15:25:24: E138  8D 06 20  STA $2006 = 00                 A:00 X:5C Y:00 P:27 SP:F6 CYC:107 SL:182
15:25:24: E13B  8D 06 20  STA $2006 = 00                 A:00 X:5C Y:00 P:27 SP:F6 CYC:119 SL:182
15:25:24: E13E  68        PLA                            A:00 X:5C Y:00 P:27 SP:F6 CYC:131 SL:182
15:25:24: E13F  60        RTS                            A:7B X:5C Y:00 P:25 SP:F7 CYC:143 SL:182
15:25:24: E121  CA        DEX                            A:7B X:5C Y:00 P:25 SP:F9 CYC:161 SL:182
15:25:24: E122  D0 FA     BNE $E11E                      A:7B X:5B Y:00 P:25 SP:F9 CYC:167 SL:182
15:25:24: E11E  20 25 E1  JSR $E125                      A:7B X:5B Y:00 P:25 SP:F9 CYC:176 SL:182
15:25:24: E125  48        PHA                            A:7B X:5B Y:00 P:25 SP:F7 CYC:194 SL:182
15:25:24: E126  A9 00     LDA #$00                       A:7B X:5B Y:00 P:25 SP:F6 CYC:203 SL:182
15:25:24: E128  8D 06 20  STA $2006 = 00                 A:00 X:5B Y:00 P:27 SP:F6 CYC:209 SL:182
15:25:24: E12B  8D 06 20  STA $2006 = 00                 A:00 X:5B Y:00 P:27 SP:F6 CYC:221 SL:182
15:25:24: E12E  A9 10     LDA #$10                       A:00 X:5B Y:00 P:27 SP:F6 CYC:233 SL:182
15:25:24: E130  8D 06 20  STA $2006 = 00                 A:10 X:5B Y:00 P:25 SP:F6 CYC:239 SL:182
15:25:24: E133  8D 06 20  STA $2006 = 00                 A:10 X:5B Y:00 P:25 SP:F6 CYC:251 SL:182
15:25:24: E136  A9 00     LDA #$00                       A:10 X:5B Y:00 P:25 SP:F6 CYC:263 SL:182
15:25:24: E138  8D 06 20  STA $2006 = 00                 A:00 X:5B Y:00 P:27 SP:F6 CYC:269 SL:182
15:25:24: E13B  8D 06 20  STA $2006 = 00                 A:00 X:5B Y:00 P:27 SP:F6 CYC:281 SL:182
15:25:24: E13E  68        PLA                            A:00 X:5B Y:00 P:27 SP:F6 CYC:293 SL:182
15:25:24: E13F  60        RTS                            A:7B X:5B Y:00 P:25 SP:F7 CYC:305 SL:182
15:25:24: E121  CA        DEX                            A:7B X:5B Y:00 P:25 SP:F9 CYC:323 SL:182
15:25:24: E122  D0 FA     BNE $E11E                      A:7B X:5A Y:00 P:25 SP:F9 CYC:329 SL:182
15:25:24: E11E  20 25 E1  JSR $E125                      A:7B X:5A Y:00 P:25 SP:F9 CYC:338 SL:182
15:25:24: E125  48        PHA                            A:7B X:5A Y:00 P:25 SP:F7 CYC: 15 SL:183
15:25:24: E126  A9 00     LDA #$00                       A:7B X:5A Y:00 P:25 SP:F6 CYC: 24 SL:183
15:25:24: E128  8D 06 20  STA $2006 = 00                 A:00 X:5A Y:00 P:27 SP:F6 CYC: 30 SL:183
15:25:24: E12B  8D 06 20  STA $2006 = 00                 A:00 X:5A Y:00 P:27 SP:F6 CYC: 42 SL:183
15:25:24: E12E  A9 10     LDA #$10                       A:00 X:5A Y:00 P:27 SP:F6 CYC: 54 SL:183
15:25:24: E130  8D 06 20  STA $2006 = 00                 A:10 X:5A Y:00 P:25 SP:F6 CYC: 60 SL:183
15:25:24: E133  8D 06 20  STA $2006 = 00                 A:10 X:5A Y:00 P:25 SP:F6 CYC: 72 SL:183
15:25:24: E136  A9 00     LDA #$00                       A:10 X:5A Y:00 P:25 SP:F6 CYC: 84 SL:183
15:25:24: E138  8D 06 20  STA $2006 = 00                 A:00 X:5A Y:00 P:27 SP:F6 CYC: 90 SL:183
15:25:24: E13B  8D 06 20  STA $2006 = 00                 A:00 X:5A Y:00 P:27 SP:F6 CYC:102 SL:183
15:25:24: E13E  68        PLA                            A:00 X:5A Y:00 P:27 SP:F6 CYC:114 SL:183
15:25:24: E13F  60        RTS                            A:7B X:5A Y:00 P:25 SP:F7 CYC:126 SL:183
15:25:24: E121  CA        DEX                            A:7B X:5A Y:00 P:25 SP:F9 CYC:144 SL:183
15:25:24: E122  D0 FA     BNE $E11E                      A:7B X:59 Y:00 P:25 SP:F9 CYC:150 SL:183
15:25:24: E11E  20 25 E1  JSR $E125                      A:7B X:59 Y:00 P:25 SP:F9 CYC:159 SL:183
15:25:24: E125  48        PHA                            A:7B X:59 Y:00 P:25 SP:F7 CYC:177 SL:183
15:25:24: E126  A9 00     LDA #$00                       A:7B X:59 Y:00 P:25 SP:F6 CYC:186 SL:183
15:25:24: E128  8D 06 20  STA $2006 = 00                 A:00 X:59 Y:00 P:27 SP:F6 CYC:192 SL:183
15:25:24: E12B  8D 06 20  STA $2006 = 00                 A:00 X:59 Y:00 P:27 SP:F6 CYC:204 SL:183
15:25:24: E12E  A9 10     LDA #$10                       A:00 X:59 Y:00 P:27 SP:F6 CYC:216 SL:183
15:25:24: E130  8D 06 20  STA $2006 = 00                 A:10 X:59 Y:00 P:25 SP:F6 CYC:222 SL:183
15:25:24: E133  8D 06 20  STA $2006 = 00                 A:10 X:59 Y:00 P:25 SP:F6 CYC:234 SL:183
15:25:24: E136  A9 00     LDA #$00                       A:10 X:59 Y:00 P:25 SP:F6 CYC:246 SL:183
15:25:24: E138  8D 06 20  STA $2006 = 00                 A:00 X:59 Y:00 P:27 SP:F6 CYC:252 SL:183
15:25:24: E13B  8D 06 20  STA $2006 = 00                 A:00 X:59 Y:00 P:27 SP:F6 CYC:264 SL:183
15:25:24: E13E  68        PLA                            A:00 X:59 Y:00 P:27 SP:F6 CYC:276 SL:183
15:25:24: E13F  60        RTS                            A:7B X:59 Y:00 P:25 SP:F7 CYC:288 SL:183
15:25:24: E121  CA        DEX                            A:7B X:59 Y:00 P:25 SP:F9 CYC:306 SL:183
15:25:24: E122  D0 FA     BNE $E11E                      A:7B X:58 Y:00 P:25 SP:F9 CYC:312 SL:183
15:25:24: E11E  20 25 E1  JSR $E125                      A:7B X:58 Y:00 P:25 SP:F9 CYC:321 SL:183
15:25:24: E125  48        PHA                            A:7B X:58 Y:00 P:25 SP:F7 CYC:339 SL:183
15:25:24: E126  A9 00     LDA #$00                       A:7B X:58 Y:00 P:25 SP:F6 CYC:  7 SL:184
15:25:24: E128  8D 06 20  STA $2006 = 00                 A:00 X:58 Y:00 P:27 SP:F6 CYC: 13 SL:184
15:25:24: E12B  8D 06 20  STA $2006 = 00                 A:00 X:58 Y:00 P:27 SP:F6 CYC: 25 SL:184
15:25:24: E12E  A9 10     LDA #$10                       A:00 X:58 Y:00 P:27 SP:F6 CYC: 37 SL:184
15:25:24: E130  8D 06 20  STA $2006 = 00                 A:10 X:58 Y:00 P:25 SP:F6 CYC: 43 SL:184
15:25:24: E133  8D 06 20  STA $2006 = 00                 A:10 X:58 Y:00 P:25 SP:F6 CYC: 55 SL:184
15:25:24: E136  A9 00     LDA #$00                       A:10 X:58 Y:00 P:25 SP:F6 CYC: 67 SL:184
15:25:24: E138  8D 06 20  STA $2006 = 00                 A:00 X:58 Y:00 P:27 SP:F6 CYC: 73 SL:184
15:25:24: E13B  8D 06 20  STA $2006 = 00                 A:00 X:58 Y:00 P:27 SP:F6 CYC: 85 SL:184
15:25:24: E13E  68        PLA                            A:00 X:58 Y:00 P:27 SP:F6 CYC: 97 SL:184
15:25:24: E13F  60        RTS                            A:7B X:58 Y:00 P:25 SP:F7 CYC:109 SL:184
15:25:24: E121  CA        DEX                            A:7B X:58 Y:00 P:25 SP:F9 CYC:127 SL:184
15:25:24: E122  D0 FA     BNE $E11E                      A:7B X:57 Y:00 P:25 SP:F9 CYC:133 SL:184
15:25:24: E11E  20 25 E1  JSR $E125                      A:7B X:57 Y:00 P:25 SP:F9 CYC:142 SL:184
15:25:24: E125  48        PHA                            A:7B X:57 Y:00 P:25 SP:F7 CYC:160 SL:184
15:25:24: E126  A9 00     LDA #$00                       A:7B X:57 Y:00 P:25 SP:F6 CYC:169 SL:184
15:25:24: E128  8D 06 20  STA $2006 = 00                 A:00 X:57 Y:00 P:27 SP:F6 CYC:175 SL:184
15:25:24: E12B  8D 06 20  STA $2006 = 00                 A:00 X:57 Y:00 P:27 SP:F6 CYC:187 SL:184
15:25:24: E12E  A9 10     LDA #$10                       A:00 X:57 Y:00 P:27 SP:F6 CYC:199 SL:184
15:25:24: E130  8D 06 20  STA $2006 = 00                 A:10 X:57 Y:00 P:25 SP:F6 CYC:205 SL:184
15:25:24: E133  8D 06 20  STA $2006 = 00                 A:10 X:57 Y:00 P:25 SP:F6 CYC:217 SL:184
15:25:24: E136  A9 00     LDA #$00                       A:10 X:57 Y:00 P:25 SP:F6 CYC:229 SL:184
15:25:24: E138  8D 06 20  STA $2006 = 00                 A:00 X:57 Y:00 P:27 SP:F6 CYC:235 SL:184
15:25:24: E13B  8D 06 20  STA $2006 = 00                 A:00 X:57 Y:00 P:27 SP:F6 CYC:247 SL:184
15:25:24: E13E  68        PLA                            A:00 X:57 Y:00 P:27 SP:F6 CYC:259 SL:184
15:25:24: E13F  60        RTS                            A:7B X:57 Y:00 P:25 SP:F7 CYC:271 SL:184
15:25:24: E121  CA        DEX                            A:7B X:57 Y:00 P:25 SP:F9 CYC:289 SL:184
15:25:24: E122  D0 FA     BNE $E11E                      A:7B X:56 Y:00 P:25 SP:F9 CYC:295 SL:184
15:25:24: E11E  20 25 E1  JSR $E125                      A:7B X:56 Y:00 P:25 SP:F9 CYC:304 SL:184
15:25:24: E125  48        PHA                            A:7B X:56 Y:00 P:25 SP:F7 CYC:322 SL:184
15:25:24: E126  A9 00     LDA #$00                       A:7B X:56 Y:00 P:25 SP:F6 CYC:331 SL:184
15:25:24: E128  8D 06 20  STA $2006 = 00                 A:00 X:56 Y:00 P:27 SP:F6 CYC:337 SL:184
15:25:24: E12B  8D 06 20  STA $2006 = 00                 A:00 X:56 Y:00 P:27 SP:F6 CYC:  8 SL:185
15:25:24: E12E  A9 10     LDA #$10                       A:00 X:56 Y:00 P:27 SP:F6 CYC: 20 SL:185
15:25:24: E130  8D 06 20  STA $2006 = 00                 A:10 X:56 Y:00 P:25 SP:F6 CYC: 26 SL:185
15:25:24: E133  8D 06 20  STA $2006 = 00                 A:10 X:56 Y:00 P:25 SP:F6 CYC: 38 SL:185
15:25:24: E136  A9 00     LDA #$00                       A:10 X:56 Y:00 P:25 SP:F6 CYC: 50 SL:185
15:25:24: E138  8D 06 20  STA $2006 = 00                 A:00 X:56 Y:00 P:27 SP:F6 CYC: 56 SL:185
15:25:24: E13B  8D 06 20  STA $2006 = 00                 A:00 X:56 Y:00 P:27 SP:F6 CYC: 68 SL:185
15:25:24: E13E  68        PLA                            A:00 X:56 Y:00 P:27 SP:F6 CYC: 80 SL:185
15:25:24: E13F  60        RTS                            A:7B X:56 Y:00 P:25 SP:F7 CYC: 92 SL:185
15:25:24: E121  CA        DEX                            A:7B X:56 Y:00 P:25 SP:F9 CYC:110 SL:185
15:25:24: E122  D0 FA     BNE $E11E                      A:7B X:55 Y:00 P:25 SP:F9 CYC:116 SL:185
15:25:24: E11E  20 25 E1  JSR $E125                      A:7B X:55 Y:00 P:25 SP:F9 CYC:125 SL:185
15:25:24: E125  48        PHA                            A:7B X:55 Y:00 P:25 SP:F7 CYC:143 SL:185
15:25:24: E126  A9 00     LDA #$00                       A:7B X:55 Y:00 P:25 SP:F6 CYC:152 SL:185
15:25:24: E128  8D 06 20  STA $2006 = 00                 A:00 X:55 Y:00 P:27 SP:F6 CYC:158 SL:185
15:25:24: E12B  8D 06 20  STA $2006 = 00                 A:00 X:55 Y:00 P:27 SP:F6 CYC:170 SL:185
15:25:24: E12E  A9 10     LDA #$10                       A:00 X:55 Y:00 P:27 SP:F6 CYC:182 SL:185
15:25:24: E130  8D 06 20  STA $2006 = 00                 A:10 X:55 Y:00 P:25 SP:F6 CYC:188 SL:185
15:25:24: E133  8D 06 20  STA $2006 = 00                 A:10 X:55 Y:00 P:25 SP:F6 CYC:200 SL:185
15:25:24: E136  A9 00     LDA #$00                       A:10 X:55 Y:00 P:25 SP:F6 CYC:212 SL:185
15:25:24: E138  8D 06 20  STA $2006 = 00                 A:00 X:55 Y:00 P:27 SP:F6 CYC:218 SL:185
15:25:24: E13B  8D 06 20  STA $2006 = 00                 A:00 X:55 Y:00 P:27 SP:F6 CYC:230 SL:185
15:25:24: E13E  68        PLA                            A:00 X:55 Y:00 P:27 SP:F6 CYC:242 SL:185
15:25:24: E13F  60        RTS                            A:7B X:55 Y:00 P:25 SP:F7 CYC:254 SL:185
15:25:24: E121  CA        DEX                            A:7B X:55 Y:00 P:25 SP:F9 CYC:272 SL:185
15:25:24: E122  D0 FA     BNE $E11E                      A:7B X:54 Y:00 P:25 SP:F9 CYC:278 SL:185
15:25:24: E11E  20 25 E1  JSR $E125                      A:7B X:54 Y:00 P:25 SP:F9 CYC:287 SL:185
15:25:24: E125  48        PHA                            A:7B X:54 Y:00 P:25 SP:F7 CYC:305 SL:185
15:25:24: E126  A9 00     LDA #$00                       A:7B X:54 Y:00 P:25 SP:F6 CYC:314 SL:185
15:25:24: E128  8D 06 20  STA $2006 = 00                 A:00 X:54 Y:00 P:27 SP:F6 CYC:320 SL:185
15:25:24: E12B  8D 06 20  STA $2006 = 00                 A:00 X:54 Y:00 P:27 SP:F6 CYC:332 SL:185
15:25:24: E12E  A9 10     LDA #$10                       A:00 X:54 Y:00 P:27 SP:F6 CYC:  3 SL:186
15:25:24: E130  8D 06 20  STA $2006 = 00                 A:10 X:54 Y:00 P:25 SP:F6 CYC:  9 SL:186
15:25:24: E133  8D 06 20  STA $2006 = 00                 A:10 X:54 Y:00 P:25 SP:F6 CYC: 21 SL:186
15:25:24: E136  A9 00     LDA #$00                       A:10 X:54 Y:00 P:25 SP:F6 CYC: 33 SL:186
15:25:24: E138  8D 06 20  STA $2006 = 00                 A:00 X:54 Y:00 P:27 SP:F6 CYC: 39 SL:186
15:25:24: E13B  8D 06 20  STA $2006 = 00                 A:00 X:54 Y:00 P:27 SP:F6 CYC: 51 SL:186
15:25:24: E13E  68        PLA                            A:00 X:54 Y:00 P:27 SP:F6 CYC: 63 SL:186
15:25:24: E13F  60        RTS                            A:7B X:54 Y:00 P:25 SP:F7 CYC: 75 SL:186
15:25:24: E121  CA        DEX                            A:7B X:54 Y:00 P:25 SP:F9 CYC: 93 SL:186
15:25:24: E122  D0 FA     BNE $E11E                      A:7B X:53 Y:00 P:25 SP:F9 CYC: 99 SL:186
15:25:24: E11E  20 25 E1  JSR $E125                      A:7B X:53 Y:00 P:25 SP:F9 CYC:108 SL:186
15:25:24: E125  48        PHA                            A:7B X:53 Y:00 P:25 SP:F7 CYC:126 SL:186
15:25:24: E126  A9 00     LDA #$00                       A:7B X:53 Y:00 P:25 SP:F6 CYC:135 SL:186
15:25:24: E128  8D 06 20  STA $2006 = 00                 A:00 X:53 Y:00 P:27 SP:F6 CYC:141 SL:186
15:25:24: E12B  8D 06 20  STA $2006 = 00                 A:00 X:53 Y:00 P:27 SP:F6 CYC:153 SL:186
15:25:24: E12E  A9 10     LDA #$10                       A:00 X:53 Y:00 P:27 SP:F6 CYC:165 SL:186
15:25:24: E130  8D 06 20  STA $2006 = 00                 A:10 X:53 Y:00 P:25 SP:F6 CYC:171 SL:186
15:25:24: E133  8D 06 20  STA $2006 = 00                 A:10 X:53 Y:00 P:25 SP:F6 CYC:183 SL:186
15:25:24: E136  A9 00     LDA #$00                       A:10 X:53 Y:00 P:25 SP:F6 CYC:195 SL:186
15:25:24: E138  8D 06 20  STA $2006 = 00                 A:00 X:53 Y:00 P:27 SP:F6 CYC:201 SL:186
15:25:24: E13B  8D 06 20  STA $2006 = 00                 A:00 X:53 Y:00 P:27 SP:F6 CYC:213 SL:186
15:25:24: E13E  68        PLA                            A:00 X:53 Y:00 P:27 SP:F6 CYC:225 SL:186
15:25:24: E13F  60        RTS                            A:7B X:53 Y:00 P:25 SP:F7 CYC:237 SL:186
15:25:24: E121  CA        DEX                            A:7B X:53 Y:00 P:25 SP:F9 CYC:255 SL:186
15:25:24: E122  D0 FA     BNE $E11E                      A:7B X:52 Y:00 P:25 SP:F9 CYC:261 SL:186
15:25:24: E11E  20 25 E1  JSR $E125                      A:7B X:52 Y:00 P:25 SP:F9 CYC:270 SL:186
15:25:24: E125  48        PHA                            A:7B X:52 Y:00 P:25 SP:F7 CYC:288 SL:186
15:25:24: E126  A9 00     LDA #$00                       A:7B X:52 Y:00 P:25 SP:F6 CYC:297 SL:186
15:25:24: E128  8D 06 20  STA $2006 = 00                 A:00 X:52 Y:00 P:27 SP:F6 CYC:303 SL:186
15:25:24: E12B  8D 06 20  STA $2006 = 00                 A:00 X:52 Y:00 P:27 SP:F6 CYC:315 SL:186
15:25:24: E12E  A9 10     LDA #$10                       A:00 X:52 Y:00 P:27 SP:F6 CYC:327 SL:186
15:25:24: E130  8D 06 20  STA $2006 = 00                 A:10 X:52 Y:00 P:25 SP:F6 CYC:333 SL:186
15:25:24: E133  8D 06 20  STA $2006 = 00                 A:10 X:52 Y:00 P:25 SP:F6 CYC:  4 SL:187
15:25:24: E136  A9 00     LDA #$00                       A:10 X:52 Y:00 P:25 SP:F6 CYC: 16 SL:187
15:25:24: E138  8D 06 20  STA $2006 = 00                 A:00 X:52 Y:00 P:27 SP:F6 CYC: 22 SL:187
15:25:24: E13B  8D 06 20  STA $2006 = 00                 A:00 X:52 Y:00 P:27 SP:F6 CYC: 34 SL:187
15:25:24: E13E  68        PLA                            A:00 X:52 Y:00 P:27 SP:F6 CYC: 46 SL:187
15:25:24: E13F  60        RTS                            A:7B X:52 Y:00 P:25 SP:F7 CYC: 58 SL:187
15:25:24: E121  CA        DEX                            A:7B X:52 Y:00 P:25 SP:F9 CYC: 76 SL:187
15:25:24: E122  D0 FA     BNE $E11E                      A:7B X:51 Y:00 P:25 SP:F9 CYC: 82 SL:187
15:25:24: E11E  20 25 E1  JSR $E125                      A:7B X:51 Y:00 P:25 SP:F9 CYC: 91 SL:187
15:25:24: E125  48        PHA                            A:7B X:51 Y:00 P:25 SP:F7 CYC:109 SL:187
15:25:24: E126  A9 00     LDA #$00                       A:7B X:51 Y:00 P:25 SP:F6 CYC:118 SL:187
15:25:24: E128  8D 06 20  STA $2006 = 00                 A:00 X:51 Y:00 P:27 SP:F6 CYC:124 SL:187
15:25:24: E12B  8D 06 20  STA $2006 = 00                 A:00 X:51 Y:00 P:27 SP:F6 CYC:136 SL:187
15:25:24: E12E  A9 10     LDA #$10                       A:00 X:51 Y:00 P:27 SP:F6 CYC:148 SL:187
15:25:24: E130  8D 06 20  STA $2006 = 00                 A:10 X:51 Y:00 P:25 SP:F6 CYC:154 SL:187
15:25:24: E133  8D 06 20  STA $2006 = 00                 A:10 X:51 Y:00 P:25 SP:F6 CYC:166 SL:187
15:25:24: E136  A9 00     LDA #$00                       A:10 X:51 Y:00 P:25 SP:F6 CYC:178 SL:187
15:25:24: E138  8D 06 20  STA $2006 = 00                 A:00 X:51 Y:00 P:27 SP:F6 CYC:184 SL:187
15:25:24: E13B  8D 06 20  STA $2006 = 00                 A:00 X:51 Y:00 P:27 SP:F6 CYC:196 SL:187
15:25:24: E13E  68        PLA                            A:00 X:51 Y:00 P:27 SP:F6 CYC:208 SL:187
15:25:24: E13F  60        RTS                            A:7B X:51 Y:00 P:25 SP:F7 CYC:220 SL:187
15:25:24: E121  CA        DEX                            A:7B X:51 Y:00 P:25 SP:F9 CYC:238 SL:187
15:25:24: E122  D0 FA     BNE $E11E                      A:7B X:50 Y:00 P:25 SP:F9 CYC:244 SL:187
15:25:24: E11E  20 25 E1  JSR $E125                      A:7B X:50 Y:00 P:25 SP:F9 CYC:253 SL:187
15:25:24: E125  48        PHA                            A:7B X:50 Y:00 P:25 SP:F7 CYC:271 SL:187
15:25:24: E126  A9 00     LDA #$00                       A:7B X:50 Y:00 P:25 SP:F6 CYC:280 SL:187
15:25:24: E128  8D 06 20  STA $2006 = 00                 A:00 X:50 Y:00 P:27 SP:F6 CYC:286 SL:187
15:25:24: E12B  8D 06 20  STA $2006 = 00                 A:00 X:50 Y:00 P:27 SP:F6 CYC:298 SL:187
15:25:24: E12E  A9 10     LDA #$10                       A:00 X:50 Y:00 P:27 SP:F6 CYC:310 SL:187
15:25:24: E130  8D 06 20  STA $2006 = 00                 A:10 X:50 Y:00 P:25 SP:F6 CYC:316 SL:187
15:25:24: E133  8D 06 20  STA $2006 = 00                 A:10 X:50 Y:00 P:25 SP:F6 CYC:328 SL:187
15:25:24: E136  A9 00     LDA #$00                       A:10 X:50 Y:00 P:25 SP:F6 CYC:340 SL:187
15:25:24: E138  8D 06 20  STA $2006 = 00                 A:00 X:50 Y:00 P:27 SP:F6 CYC:  5 SL:188
15:25:24: E13B  8D 06 20  STA $2006 = 00                 A:00 X:50 Y:00 P:27 SP:F6 CYC: 17 SL:188
15:25:24: E13E  68        PLA                            A:00 X:50 Y:00 P:27 SP:F6 CYC: 29 SL:188
15:25:24: E13F  60        RTS                            A:7B X:50 Y:00 P:25 SP:F7 CYC: 41 SL:188
15:25:24: E121  CA        DEX                            A:7B X:50 Y:00 P:25 SP:F9 CYC: 59 SL:188
15:25:24: E122  D0 FA     BNE $E11E                      A:7B X:4F Y:00 P:25 SP:F9 CYC: 65 SL:188
15:25:24: E11E  20 25 E1  JSR $E125                      A:7B X:4F Y:00 P:25 SP:F9 CYC: 74 SL:188
15:25:24: E125  48        PHA                            A:7B X:4F Y:00 P:25 SP:F7 CYC: 92 SL:188
15:25:24: E126  A9 00     LDA #$00                       A:7B X:4F Y:00 P:25 SP:F6 CYC:101 SL:188
15:25:24: E128  8D 06 20  STA $2006 = 00                 A:00 X:4F Y:00 P:27 SP:F6 CYC:107 SL:188
15:25:24: E12B  8D 06 20  STA $2006 = 00                 A:00 X:4F Y:00 P:27 SP:F6 CYC:119 SL:188
15:25:24: E12E  A9 10     LDA #$10                       A:00 X:4F Y:00 P:27 SP:F6 CYC:131 SL:188
15:25:24: E130  8D 06 20  STA $2006 = 00                 A:10 X:4F Y:00 P:25 SP:F6 CYC:137 SL:188
15:25:24: E133  8D 06 20  STA $2006 = 00                 A:10 X:4F Y:00 P:25 SP:F6 CYC:149 SL:188
15:25:24: E136  A9 00     LDA #$00                       A:10 X:4F Y:00 P:25 SP:F6 CYC:161 SL:188
15:25:24: E138  8D 06 20  STA $2006 = 00                 A:00 X:4F Y:00 P:27 SP:F6 CYC:167 SL:188
15:25:24: E13B  8D 06 20  STA $2006 = 00                 A:00 X:4F Y:00 P:27 SP:F6 CYC:179 SL:188
15:25:24: E13E  68        PLA                            A:00 X:4F Y:00 P:27 SP:F6 CYC:191 SL:188
15:25:24: E13F  60        RTS                            A:7B X:4F Y:00 P:25 SP:F7 CYC:203 SL:188
15:25:24: E121  CA        DEX                            A:7B X:4F Y:00 P:25 SP:F9 CYC:221 SL:188
15:25:24: E122  D0 FA     BNE $E11E                      A:7B X:4E Y:00 P:25 SP:F9 CYC:227 SL:188
15:25:24: E11E  20 25 E1  JSR $E125                      A:7B X:4E Y:00 P:25 SP:F9 CYC:236 SL:188
15:25:24: E125  48        PHA                            A:7B X:4E Y:00 P:25 SP:F7 CYC:254 SL:188
15:25:24: E126  A9 00     LDA #$00                       A:7B X:4E Y:00 P:25 SP:F6 CYC:263 SL:188
15:25:24: E128  8D 06 20  STA $2006 = 00                 A:00 X:4E Y:00 P:27 SP:F6 CYC:269 SL:188
15:25:24: E12B  8D 06 20  STA $2006 = 00                 A:00 X:4E Y:00 P:27 SP:F6 CYC:281 SL:188
15:25:24: E12E  A9 10     LDA #$10                       A:00 X:4E Y:00 P:27 SP:F6 CYC:293 SL:188
15:25:24: E130  8D 06 20  STA $2006 = 00                 A:10 X:4E Y:00 P:25 SP:F6 CYC:299 SL:188
15:25:24: E133  8D 06 20  STA $2006 = 00                 A:10 X:4E Y:00 P:25 SP:F6 CYC:311 SL:188
15:25:24: E136  A9 00     LDA #$00                       A:10 X:4E Y:00 P:25 SP:F6 CYC:323 SL:188
15:25:24: E138  8D 06 20  STA $2006 = 00                 A:00 X:4E Y:00 P:27 SP:F6 CYC:329 SL:188
15:25:24: E13B  8D 06 20  STA $2006 = 00                 A:00 X:4E Y:00 P:27 SP:F6 CYC:  0 SL:189
15:25:24: E13E  68        PLA                            A:00 X:4E Y:00 P:27 SP:F6 CYC: 12 SL:189
15:25:24: E13F  60        RTS                            A:7B X:4E Y:00 P:25 SP:F7 CYC: 24 SL:189
15:25:24: E121  CA        DEX                            A:7B X:4E Y:00 P:25 SP:F9 CYC: 42 SL:189
15:25:24: E122  D0 FA     BNE $E11E                      A:7B X:4D Y:00 P:25 SP:F9 CYC: 48 SL:189
15:25:24: E11E  20 25 E1  JSR $E125                      A:7B X:4D Y:00 P:25 SP:F9 CYC: 57 SL:189
15:25:24: E125  48        PHA                            A:7B X:4D Y:00 P:25 SP:F7 CYC: 75 SL:189
15:25:24: E126  A9 00     LDA #$00                       A:7B X:4D Y:00 P:25 SP:F6 CYC: 84 SL:189
15:25:24: E128  8D 06 20  STA $2006 = 00                 A:00 X:4D Y:00 P:27 SP:F6 CYC: 90 SL:189
15:25:24: E12B  8D 06 20  STA $2006 = 00                 A:00 X:4D Y:00 P:27 SP:F6 CYC:102 SL:189
15:25:24: E12E  A9 10     LDA #$10                       A:00 X:4D Y:00 P:27 SP:F6 CYC:114 SL:189
15:25:24: E130  8D 06 20  STA $2006 = 00                 A:10 X:4D Y:00 P:25 SP:F6 CYC:120 SL:189
15:25:24: E133  8D 06 20  STA $2006 = 00                 A:10 X:4D Y:00 P:25 SP:F6 CYC:132 SL:189
15:25:24: E136  A9 00     LDA #$00                       A:10 X:4D Y:00 P:25 SP:F6 CYC:144 SL:189
15:25:24: E138  8D 06 20  STA $2006 = 00                 A:00 X:4D Y:00 P:27 SP:F6 CYC:150 SL:189
15:25:24: E13B  8D 06 20  STA $2006 = 00                 A:00 X:4D Y:00 P:27 SP:F6 CYC:162 SL:189
15:25:24: E13E  68        PLA                            A:00 X:4D Y:00 P:27 SP:F6 CYC:174 SL:189
15:25:24: E13F  60        RTS                            A:7B X:4D Y:00 P:25 SP:F7 CYC:186 SL:189
15:25:24: E121  CA        DEX                            A:7B X:4D Y:00 P:25 SP:F9 CYC:204 SL:189
15:25:24: E122  D0 FA     BNE $E11E                      A:7B X:4C Y:00 P:25 SP:F9 CYC:210 SL:189
15:25:24: E11E  20 25 E1  JSR $E125                      A:7B X:4C Y:00 P:25 SP:F9 CYC:219 SL:189
15:25:24: E125  48        PHA                            A:7B X:4C Y:00 P:25 SP:F7 CYC:237 SL:189
15:25:24: E126  A9 00     LDA #$00                       A:7B X:4C Y:00 P:25 SP:F6 CYC:246 SL:189
15:25:24: E128  8D 06 20  STA $2006 = 00                 A:00 X:4C Y:00 P:27 SP:F6 CYC:252 SL:189
15:25:24: E12B  8D 06 20  STA $2006 = 00                 A:00 X:4C Y:00 P:27 SP:F6 CYC:264 SL:189
15:25:24: E12E  A9 10     LDA #$10                       A:00 X:4C Y:00 P:27 SP:F6 CYC:276 SL:189
15:25:24: E130  8D 06 20  STA $2006 = 00                 A:10 X:4C Y:00 P:25 SP:F6 CYC:282 SL:189
15:25:24: E133  8D 06 20  STA $2006 = 00                 A:10 X:4C Y:00 P:25 SP:F6 CYC:294 SL:189
15:25:24: E136  A9 00     LDA #$00                       A:10 X:4C Y:00 P:25 SP:F6 CYC:306 SL:189
15:25:24: E138  8D 06 20  STA $2006 = 00                 A:00 X:4C Y:00 P:27 SP:F6 CYC:312 SL:189
15:25:24: E13B  8D 06 20  STA $2006 = 00                 A:00 X:4C Y:00 P:27 SP:F6 CYC:324 SL:189
15:25:24: E13E  68        PLA                            A:00 X:4C Y:00 P:27 SP:F6 CYC:336 SL:189
15:25:24: E13F  60        RTS                            A:7B X:4C Y:00 P:25 SP:F7 CYC:  7 SL:190
15:25:24: E121  CA        DEX                            A:7B X:4C Y:00 P:25 SP:F9 CYC: 25 SL:190
15:25:24: E122  D0 FA     BNE $E11E                      A:7B X:4B Y:00 P:25 SP:F9 CYC: 31 SL:190
15:25:24: E11E  20 25 E1  JSR $E125                      A:7B X:4B Y:00 P:25 SP:F9 CYC: 40 SL:190
15:25:24: E125  48        PHA                            A:7B X:4B Y:00 P:25 SP:F7 CYC: 58 SL:190
15:25:24: E126  A9 00     LDA #$00                       A:7B X:4B Y:00 P:25 SP:F6 CYC: 67 SL:190
15:25:24: E128  8D 06 20  STA $2006 = 00                 A:00 X:4B Y:00 P:27 SP:F6 CYC: 73 SL:190
15:25:24: E12B  8D 06 20  STA $2006 = 00                 A:00 X:4B Y:00 P:27 SP:F6 CYC: 85 SL:190
15:25:24: E12E  A9 10     LDA #$10                       A:00 X:4B Y:00 P:27 SP:F6 CYC: 97 SL:190
15:25:24: E130  8D 06 20  STA $2006 = 00                 A:10 X:4B Y:00 P:25 SP:F6 CYC:103 SL:190
15:25:24: E133  8D 06 20  STA $2006 = 00                 A:10 X:4B Y:00 P:25 SP:F6 CYC:115 SL:190
15:25:24: E136  A9 00     LDA #$00                       A:10 X:4B Y:00 P:25 SP:F6 CYC:127 SL:190
15:25:24: E138  8D 06 20  STA $2006 = 00                 A:00 X:4B Y:00 P:27 SP:F6 CYC:133 SL:190
15:25:24: E13B  8D 06 20  STA $2006 = 00                 A:00 X:4B Y:00 P:27 SP:F6 CYC:145 SL:190
15:25:24: E13E  68        PLA                            A:00 X:4B Y:00 P:27 SP:F6 CYC:157 SL:190
15:25:24: E13F  60        RTS                            A:7B X:4B Y:00 P:25 SP:F7 CYC:169 SL:190
15:25:24: E121  CA        DEX                            A:7B X:4B Y:00 P:25 SP:F9 CYC:187 SL:190
15:25:24: E122  D0 FA     BNE $E11E                      A:7B X:4A Y:00 P:25 SP:F9 CYC:193 SL:190
15:25:24: E11E  20 25 E1  JSR $E125                      A:7B X:4A Y:00 P:25 SP:F9 CYC:202 SL:190
15:25:24: E125  48        PHA                            A:7B X:4A Y:00 P:25 SP:F7 CYC:220 SL:190
15:25:24: E126  A9 00     LDA #$00                       A:7B X:4A Y:00 P:25 SP:F6 CYC:229 SL:190
15:25:24: E128  8D 06 20  STA $2006 = 00                 A:00 X:4A Y:00 P:27 SP:F6 CYC:235 SL:190
15:25:24: E12B  8D 06 20  STA $2006 = 00                 A:00 X:4A Y:00 P:27 SP:F6 CYC:247 SL:190
15:25:24: E12E  A9 10     LDA #$10                       A:00 X:4A Y:00 P:27 SP:F6 CYC:259 SL:190
15:25:24: E130  8D 06 20  STA $2006 = 00                 A:10 X:4A Y:00 P:25 SP:F6 CYC:265 SL:190
15:25:24: E133  8D 06 20  STA $2006 = 00                 A:10 X:4A Y:00 P:25 SP:F6 CYC:277 SL:190
15:25:24: E136  A9 00     LDA #$00                       A:10 X:4A Y:00 P:25 SP:F6 CYC:289 SL:190
15:25:24: E138  8D 06 20  STA $2006 = 00                 A:00 X:4A Y:00 P:27 SP:F6 CYC:295 SL:190
15:25:24: E13B  8D 06 20  STA $2006 = 00                 A:00 X:4A Y:00 P:27 SP:F6 CYC:307 SL:190
15:25:24: E13E  68        PLA                            A:00 X:4A Y:00 P:27 SP:F6 CYC:319 SL:190
15:25:24: E13F  60        RTS                            A:7B X:4A Y:00 P:25 SP:F7 CYC:331 SL:190
15:25:24: E121  CA        DEX                            A:7B X:4A Y:00 P:25 SP:F9 CYC:  8 SL:191
15:25:24: E122  D0 FA     BNE $E11E                      A:7B X:49 Y:00 P:25 SP:F9 CYC: 14 SL:191
15:25:24: E11E  20 25 E1  JSR $E125                      A:7B X:49 Y:00 P:25 SP:F9 CYC: 23 SL:191
15:25:24: E125  48        PHA                            A:7B X:49 Y:00 P:25 SP:F7 CYC: 41 SL:191
15:25:24: E126  A9 00     LDA #$00                       A:7B X:49 Y:00 P:25 SP:F6 CYC: 50 SL:191
15:25:24: E128  8D 06 20  STA $2006 = 00                 A:00 X:49 Y:00 P:27 SP:F6 CYC: 56 SL:191
15:25:24: E12B  8D 06 20  STA $2006 = 00                 A:00 X:49 Y:00 P:27 SP:F6 CYC: 68 SL:191
15:25:24: E12E  A9 10     LDA #$10                       A:00 X:49 Y:00 P:27 SP:F6 CYC: 80 SL:191
15:25:24: E130  8D 06 20  STA $2006 = 00                 A:10 X:49 Y:00 P:25 SP:F6 CYC: 86 SL:191
15:25:24: E133  8D 06 20  STA $2006 = 00                 A:10 X:49 Y:00 P:25 SP:F6 CYC: 98 SL:191
15:25:24: E136  A9 00     LDA #$00                       A:10 X:49 Y:00 P:25 SP:F6 CYC:110 SL:191
15:25:24: E138  8D 06 20  STA $2006 = 00                 A:00 X:49 Y:00 P:27 SP:F6 CYC:116 SL:191
15:25:24: E13B  8D 06 20  STA $2006 = 00                 A:00 X:49 Y:00 P:27 SP:F6 CYC:128 SL:191
15:25:24: E13E  68        PLA                            A:00 X:49 Y:00 P:27 SP:F6 CYC:140 SL:191
15:25:24: E13F  60        RTS                            A:7B X:49 Y:00 P:25 SP:F7 CYC:152 SL:191
15:25:24: E121  CA        DEX                            A:7B X:49 Y:00 P:25 SP:F9 CYC:170 SL:191
15:25:24: E122  D0 FA     BNE $E11E                      A:7B X:48 Y:00 P:25 SP:F9 CYC:176 SL:191
15:25:24: E11E  20 25 E1  JSR $E125                      A:7B X:48 Y:00 P:25 SP:F9 CYC:185 SL:191
15:25:24: E125  48        PHA                            A:7B X:48 Y:00 P:25 SP:F7 CYC:203 SL:191
15:25:24: E126  A9 00     LDA #$00                       A:7B X:48 Y:00 P:25 SP:F6 CYC:212 SL:191
15:25:24: E128  8D 06 20  STA $2006 = 00                 A:00 X:48 Y:00 P:27 SP:F6 CYC:218 SL:191
15:25:24: E12B  8D 06 20  STA $2006 = 00                 A:00 X:48 Y:00 P:27 SP:F6 CYC:230 SL:191
15:25:24: E12E  A9 10     LDA #$10                       A:00 X:48 Y:00 P:27 SP:F6 CYC:242 SL:191
15:25:24: E130  8D 06 20  STA $2006 = 00                 A:10 X:48 Y:00 P:25 SP:F6 CYC:248 SL:191
15:25:24: E133  8D 06 20  STA $2006 = 00                 A:10 X:48 Y:00 P:25 SP:F6 CYC:260 SL:191
15:25:24: E136  A9 00     LDA #$00                       A:10 X:48 Y:00 P:25 SP:F6 CYC:272 SL:191
15:25:24: E138  8D 06 20  STA $2006 = 00                 A:00 X:48 Y:00 P:27 SP:F6 CYC:278 SL:191
15:25:24: E13B  8D 06 20  STA $2006 = 00                 A:00 X:48 Y:00 P:27 SP:F6 CYC:290 SL:191
15:25:24: E13E  68        PLA                            A:00 X:48 Y:00 P:27 SP:F6 CYC:302 SL:191
15:25:24: E13F  60        RTS                            A:7B X:48 Y:00 P:25 SP:F7 CYC:314 SL:191
15:25:24: E121  CA        DEX                            A:7B X:48 Y:00 P:25 SP:F9 CYC:332 SL:191
15:25:24: E122  D0 FA     BNE $E11E                      A:7B X:47 Y:00 P:25 SP:F9 CYC:338 SL:191
15:25:24: E11E  20 25 E1  JSR $E125                      A:7B X:47 Y:00 P:25 SP:F9 CYC:  6 SL:192
15:25:24: E125  48        PHA                            A:7B X:47 Y:00 P:25 SP:F7 CYC: 24 SL:192
15:25:24: E126  A9 00     LDA #$00                       A:7B X:47 Y:00 P:25 SP:F6 CYC: 33 SL:192
15:25:24: E128  8D 06 20  STA $2006 = 00                 A:00 X:47 Y:00 P:27 SP:F6 CYC: 39 SL:192
15:25:24: E12B  8D 06 20  STA $2006 = 00                 A:00 X:47 Y:00 P:27 SP:F6 CYC: 51 SL:192
15:25:24: E12E  A9 10     LDA #$10                       A:00 X:47 Y:00 P:27 SP:F6 CYC: 63 SL:192
15:25:24: E130  8D 06 20  STA $2006 = 00                 A:10 X:47 Y:00 P:25 SP:F6 CYC: 69 SL:192
15:25:24: E133  8D 06 20  STA $2006 = 00                 A:10 X:47 Y:00 P:25 SP:F6 CYC: 81 SL:192
15:25:24: E136  A9 00     LDA #$00                       A:10 X:47 Y:00 P:25 SP:F6 CYC: 93 SL:192
15:25:24: E138  8D 06 20  STA $2006 = 00                 A:00 X:47 Y:00 P:27 SP:F6 CYC: 99 SL:192
15:25:24: E13B  8D 06 20  STA $2006 = 00                 A:00 X:47 Y:00 P:27 SP:F6 CYC:111 SL:192
15:25:24: E13E  68        PLA                            A:00 X:47 Y:00 P:27 SP:F6 CYC:123 SL:192
15:25:24: E13F  60        RTS                            A:7B X:47 Y:00 P:25 SP:F7 CYC:135 SL:192
15:25:24: E121  CA        DEX                            A:7B X:47 Y:00 P:25 SP:F9 CYC:153 SL:192
15:25:24: E122  D0 FA     BNE $E11E                      A:7B X:46 Y:00 P:25 SP:F9 CYC:159 SL:192
15:25:24: E11E  20 25 E1  JSR $E125                      A:7B X:46 Y:00 P:25 SP:F9 CYC:168 SL:192
15:25:24: E125  48        PHA                            A:7B X:46 Y:00 P:25 SP:F7 CYC:186 SL:192
15:25:24: E126  A9 00     LDA #$00                       A:7B X:46 Y:00 P:25 SP:F6 CYC:195 SL:192
15:25:24: E128  8D 06 20  STA $2006 = 00                 A:00 X:46 Y:00 P:27 SP:F6 CYC:201 SL:192
15:25:24: E12B  8D 06 20  STA $2006 = 00                 A:00 X:46 Y:00 P:27 SP:F6 CYC:213 SL:192
15:25:24: E12E  A9 10     LDA #$10                       A:00 X:46 Y:00 P:27 SP:F6 CYC:225 SL:192
15:25:24: E130  8D 06 20  STA $2006 = 00                 A:10 X:46 Y:00 P:25 SP:F6 CYC:231 SL:192
15:25:24: E133  8D 06 20  STA $2006 = 00                 A:10 X:46 Y:00 P:25 SP:F6 CYC:243 SL:192
15:25:24: E136  A9 00     LDA #$00                       A:10 X:46 Y:00 P:25 SP:F6 CYC:255 SL:192
15:25:24: E138  8D 06 20  STA $2006 = 00                 A:00 X:46 Y:00 P:27 SP:F6 CYC:261 SL:192
15:25:24: E13B  8D 06 20  STA $2006 = 00                 A:00 X:46 Y:00 P:27 SP:F6 CYC:273 SL:192
15:25:24: E13E  68        PLA                            A:00 X:46 Y:00 P:27 SP:F6 CYC:285 SL:192
15:25:24: E13F  60        RTS                            A:7B X:46 Y:00 P:25 SP:F7 CYC:297 SL:192
15:25:24: E121  CA        DEX                            A:7B X:46 Y:00 P:25 SP:F9 CYC:315 SL:192
15:25:24: E122  D0 FA     BNE $E11E                      A:7B X:45 Y:00 P:25 SP:F9 CYC:321 SL:192
15:25:24: E11E  20 25 E1  JSR $E125                      A:7B X:45 Y:00 P:25 SP:F9 CYC:330 SL:192
15:25:24: E125  48        PHA                            A:7B X:45 Y:00 P:25 SP:F7 CYC:  7 SL:193
15:25:24: E126  A9 00     LDA #$00                       A:7B X:45 Y:00 P:25 SP:F6 CYC: 16 SL:193
15:25:24: E128  8D 06 20  STA $2006 = 00                 A:00 X:45 Y:00 P:27 SP:F6 CYC: 22 SL:193
15:25:24: E12B  8D 06 20  STA $2006 = 00                 A:00 X:45 Y:00 P:27 SP:F6 CYC: 34 SL:193
15:25:24: E12E  A9 10     LDA #$10                       A:00 X:45 Y:00 P:27 SP:F6 CYC: 46 SL:193
15:25:24: E130  8D 06 20  STA $2006 = 00                 A:10 X:45 Y:00 P:25 SP:F6 CYC: 52 SL:193
15:25:24: E133  8D 06 20  STA $2006 = 00                 A:10 X:45 Y:00 P:25 SP:F6 CYC: 64 SL:193
15:25:24: E136  A9 00     LDA #$00                       A:10 X:45 Y:00 P:25 SP:F6 CYC: 76 SL:193
15:25:24: E138  8D 06 20  STA $2006 = 00                 A:00 X:45 Y:00 P:27 SP:F6 CYC: 82 SL:193
15:25:24: E13B  8D 06 20  STA $2006 = 00                 A:00 X:45 Y:00 P:27 SP:F6 CYC: 94 SL:193
15:25:24: E13E  68        PLA                            A:00 X:45 Y:00 P:27 SP:F6 CYC:106 SL:193
15:25:24: E13F  60        RTS                            A:7B X:45 Y:00 P:25 SP:F7 CYC:118 SL:193
15:25:24: E121  CA        DEX                            A:7B X:45 Y:00 P:25 SP:F9 CYC:136 SL:193
15:25:24: E122  D0 FA     BNE $E11E                      A:7B X:44 Y:00 P:25 SP:F9 CYC:142 SL:193
15:25:24: E11E  20 25 E1  JSR $E125                      A:7B X:44 Y:00 P:25 SP:F9 CYC:151 SL:193
15:25:24: E125  48        PHA                            A:7B X:44 Y:00 P:25 SP:F7 CYC:169 SL:193
15:25:24: E126  A9 00     LDA #$00                       A:7B X:44 Y:00 P:25 SP:F6 CYC:178 SL:193
15:25:24: E128  8D 06 20  STA $2006 = 00                 A:00 X:44 Y:00 P:27 SP:F6 CYC:184 SL:193
15:25:24: E12B  8D 06 20  STA $2006 = 00                 A:00 X:44 Y:00 P:27 SP:F6 CYC:196 SL:193
15:25:24: E12E  A9 10     LDA #$10                       A:00 X:44 Y:00 P:27 SP:F6 CYC:208 SL:193
15:25:24: E130  8D 06 20  STA $2006 = 00                 A:10 X:44 Y:00 P:25 SP:F6 CYC:214 SL:193
15:25:24: E133  8D 06 20  STA $2006 = 00                 A:10 X:44 Y:00 P:25 SP:F6 CYC:226 SL:193
15:25:24: E136  A9 00     LDA #$00                       A:10 X:44 Y:00 P:25 SP:F6 CYC:238 SL:193
15:25:24: E138  8D 06 20  STA $2006 = 00                 A:00 X:44 Y:00 P:27 SP:F6 CYC:244 SL:193
15:25:24: E13B  8D 06 20  STA $2006 = 00                 A:00 X:44 Y:00 P:27 SP:F6 CYC:256 SL:193
15:25:24: E13E  68        PLA                            A:00 X:44 Y:00 P:27 SP:F6 CYC:268 SL:193
15:25:24: E13F  60        RTS                            A:7B X:44 Y:00 P:25 SP:F7 CYC:280 SL:193
15:25:24: E121  CA        DEX                            A:7B X:44 Y:00 P:25 SP:F9 CYC:298 SL:193
15:25:24: E122  D0 FA     BNE $E11E                      A:7B X:43 Y:00 P:25 SP:F9 CYC:304 SL:193
15:25:24: E11E  20 25 E1  JSR $E125                      A:7B X:43 Y:00 P:25 SP:F9 CYC:313 SL:193
15:25:24: E125  48        PHA                            A:7B X:43 Y:00 P:25 SP:F7 CYC:331 SL:193
15:25:24: E126  A9 00     LDA #$00                       A:7B X:43 Y:00 P:25 SP:F6 CYC:340 SL:193
15:25:24: E128  8D 06 20  STA $2006 = 00                 A:00 X:43 Y:00 P:27 SP:F6 CYC:  5 SL:194
15:25:24: E12B  8D 06 20  STA $2006 = 00                 A:00 X:43 Y:00 P:27 SP:F6 CYC: 17 SL:194
15:25:24: E12E  A9 10     LDA #$10                       A:00 X:43 Y:00 P:27 SP:F6 CYC: 29 SL:194
15:25:24: E130  8D 06 20  STA $2006 = 00                 A:10 X:43 Y:00 P:25 SP:F6 CYC: 35 SL:194
15:25:24: E133  8D 06 20  STA $2006 = 00                 A:10 X:43 Y:00 P:25 SP:F6 CYC: 47 SL:194
15:25:24: E136  A9 00     LDA #$00                       A:10 X:43 Y:00 P:25 SP:F6 CYC: 59 SL:194
15:25:24: E138  8D 06 20  STA $2006 = 00                 A:00 X:43 Y:00 P:27 SP:F6 CYC: 65 SL:194
15:25:24: E13B  8D 06 20  STA $2006 = 00                 A:00 X:43 Y:00 P:27 SP:F6 CYC: 77 SL:194
15:25:24: E13E  68        PLA                            A:00 X:43 Y:00 P:27 SP:F6 CYC: 89 SL:194
15:25:24: E13F  60        RTS                            A:7B X:43 Y:00 P:25 SP:F7 CYC:101 SL:194
15:25:24: E121  CA        DEX                            A:7B X:43 Y:00 P:25 SP:F9 CYC:119 SL:194
15:25:24: E122  D0 FA     BNE $E11E                      A:7B X:42 Y:00 P:25 SP:F9 CYC:125 SL:194
15:25:24: E11E  20 25 E1  JSR $E125                      A:7B X:42 Y:00 P:25 SP:F9 CYC:134 SL:194
15:25:24: E125  48        PHA                            A:7B X:42 Y:00 P:25 SP:F7 CYC:152 SL:194
15:25:24: E126  A9 00     LDA #$00                       A:7B X:42 Y:00 P:25 SP:F6 CYC:161 SL:194
15:25:24: E128  8D 06 20  STA $2006 = 00                 A:00 X:42 Y:00 P:27 SP:F6 CYC:167 SL:194
15:25:24: E12B  8D 06 20  STA $2006 = 00                 A:00 X:42 Y:00 P:27 SP:F6 CYC:179 SL:194
15:25:24: E12E  A9 10     LDA #$10                       A:00 X:42 Y:00 P:27 SP:F6 CYC:191 SL:194
15:25:24: E130  8D 06 20  STA $2006 = 00                 A:10 X:42 Y:00 P:25 SP:F6 CYC:197 SL:194
15:25:24: E133  8D 06 20  STA $2006 = 00                 A:10 X:42 Y:00 P:25 SP:F6 CYC:209 SL:194
15:25:24: E136  A9 00     LDA #$00                       A:10 X:42 Y:00 P:25 SP:F6 CYC:221 SL:194
15:25:24: E138  8D 06 20  STA $2006 = 00                 A:00 X:42 Y:00 P:27 SP:F6 CYC:227 SL:194
15:25:24: E13B  8D 06 20  STA $2006 = 00                 A:00 X:42 Y:00 P:27 SP:F6 CYC:239 SL:194
15:25:24: E13E  68        PLA                            A:00 X:42 Y:00 P:27 SP:F6 CYC:251 SL:194
15:25:24: E13F  60        RTS                            A:7B X:42 Y:00 P:25 SP:F7 CYC:263 SL:194
15:25:24: E121  CA        DEX                            A:7B X:42 Y:00 P:25 SP:F9 CYC:281 SL:194
15:25:24: E122  D0 FA     BNE $E11E                      A:7B X:41 Y:00 P:25 SP:F9 CYC:287 SL:194
15:25:24: E11E  20 25 E1  JSR $E125                      A:7B X:41 Y:00 P:25 SP:F9 CYC:296 SL:194
15:25:24: E125  48        PHA                            A:7B X:41 Y:00 P:25 SP:F7 CYC:314 SL:194
15:25:24: E126  A9 00     LDA #$00                       A:7B X:41 Y:00 P:25 SP:F6 CYC:323 SL:194
15:25:24: E128  8D 06 20  STA $2006 = 00                 A:00 X:41 Y:00 P:27 SP:F6 CYC:329 SL:194
15:25:24: E12B  8D 06 20  STA $2006 = 00                 A:00 X:41 Y:00 P:27 SP:F6 CYC:  0 SL:195
15:25:24: E12E  A9 10     LDA #$10                       A:00 X:41 Y:00 P:27 SP:F6 CYC: 12 SL:195
15:25:24: E130  8D 06 20  STA $2006 = 00                 A:10 X:41 Y:00 P:25 SP:F6 CYC: 18 SL:195
15:25:24: E133  8D 06 20  STA $2006 = 00                 A:10 X:41 Y:00 P:25 SP:F6 CYC: 30 SL:195
15:25:24: E136  A9 00     LDA #$00                       A:10 X:41 Y:00 P:25 SP:F6 CYC: 42 SL:195
15:25:24: E138  8D 06 20  STA $2006 = 00                 A:00 X:41 Y:00 P:27 SP:F6 CYC: 48 SL:195
15:25:24: E13B  8D 06 20  STA $2006 = 00                 A:00 X:41 Y:00 P:27 SP:F6 CYC: 60 SL:195
15:25:24: E13E  68        PLA                            A:00 X:41 Y:00 P:27 SP:F6 CYC: 72 SL:195
15:25:24: E13F  60        RTS                            A:7B X:41 Y:00 P:25 SP:F7 CYC: 84 SL:195
15:25:24: E121  CA        DEX                            A:7B X:41 Y:00 P:25 SP:F9 CYC:102 SL:195
15:25:24: E122  D0 FA     BNE $E11E                      A:7B X:40 Y:00 P:25 SP:F9 CYC:108 SL:195
15:25:24: E11E  20 25 E1  JSR $E125                      A:7B X:40 Y:00 P:25 SP:F9 CYC:117 SL:195
15:25:24: E125  48        PHA                            A:7B X:40 Y:00 P:25 SP:F7 CYC:135 SL:195
15:25:24: E126  A9 00     LDA #$00                       A:7B X:40 Y:00 P:25 SP:F6 CYC:144 SL:195
15:25:24: E128  8D 06 20  STA $2006 = 00                 A:00 X:40 Y:00 P:27 SP:F6 CYC:150 SL:195
15:25:24: E12B  8D 06 20  STA $2006 = 00                 A:00 X:40 Y:00 P:27 SP:F6 CYC:162 SL:195
15:25:24: E12E  A9 10     LDA #$10                       A:00 X:40 Y:00 P:27 SP:F6 CYC:174 SL:195
15:25:24: E130  8D 06 20  STA $2006 = 00                 A:10 X:40 Y:00 P:25 SP:F6 CYC:180 SL:195
15:25:24: E133  8D 06 20  STA $2006 = 00                 A:10 X:40 Y:00 P:25 SP:F6 CYC:192 SL:195
15:25:24: E136  A9 00     LDA #$00                       A:10 X:40 Y:00 P:25 SP:F6 CYC:204 SL:195
15:25:24: E138  8D 06 20  STA $2006 = 00                 A:00 X:40 Y:00 P:27 SP:F6 CYC:210 SL:195
15:25:24: E13B  8D 06 20  STA $2006 = 00                 A:00 X:40 Y:00 P:27 SP:F6 CYC:222 SL:195
15:25:24: E13E  68        PLA                            A:00 X:40 Y:00 P:27 SP:F6 CYC:234 SL:195
15:25:24: E13F  60        RTS                            A:7B X:40 Y:00 P:25 SP:F7 CYC:246 SL:195
15:25:24: E121  CA        DEX                            A:7B X:40 Y:00 P:25 SP:F9 CYC:264 SL:195
15:25:24: E122  D0 FA     BNE $E11E                      A:7B X:3F Y:00 P:25 SP:F9 CYC:270 SL:195
15:25:24: E11E  20 25 E1  JSR $E125                      A:7B X:3F Y:00 P:25 SP:F9 CYC:279 SL:195
15:25:24: E125  48        PHA                            A:7B X:3F Y:00 P:25 SP:F7 CYC:297 SL:195
15:25:24: E126  A9 00     LDA #$00                       A:7B X:3F Y:00 P:25 SP:F6 CYC:306 SL:195
15:25:24: E128  8D 06 20  STA $2006 = 00                 A:00 X:3F Y:00 P:27 SP:F6 CYC:312 SL:195
15:25:24: E12B  8D 06 20  STA $2006 = 00                 A:00 X:3F Y:00 P:27 SP:F6 CYC:324 SL:195
15:25:24: E12E  A9 10     LDA #$10                       A:00 X:3F Y:00 P:27 SP:F6 CYC:336 SL:195
15:25:24: E130  8D 06 20  STA $2006 = 00                 A:10 X:3F Y:00 P:25 SP:F6 CYC:  1 SL:196
15:25:24: E133  8D 06 20  STA $2006 = 00                 A:10 X:3F Y:00 P:25 SP:F6 CYC: 13 SL:196
15:25:24: E136  A9 00     LDA #$00                       A:10 X:3F Y:00 P:25 SP:F6 CYC: 25 SL:196
15:25:24: E138  8D 06 20  STA $2006 = 00                 A:00 X:3F Y:00 P:27 SP:F6 CYC: 31 SL:196
15:25:24: E13B  8D 06 20  STA $2006 = 00                 A:00 X:3F Y:00 P:27 SP:F6 CYC: 43 SL:196
15:25:24: E13E  68        PLA                            A:00 X:3F Y:00 P:27 SP:F6 CYC: 55 SL:196
15:25:24: E13F  60        RTS                            A:7B X:3F Y:00 P:25 SP:F7 CYC: 67 SL:196
15:25:24: E121  CA        DEX                            A:7B X:3F Y:00 P:25 SP:F9 CYC: 85 SL:196
15:25:24: E122  D0 FA     BNE $E11E                      A:7B X:3E Y:00 P:25 SP:F9 CYC: 91 SL:196
15:25:24: E11E  20 25 E1  JSR $E125                      A:7B X:3E Y:00 P:25 SP:F9 CYC:100 SL:196
15:25:24: E125  48        PHA                            A:7B X:3E Y:00 P:25 SP:F7 CYC:118 SL:196
15:25:24: E126  A9 00     LDA #$00                       A:7B X:3E Y:00 P:25 SP:F6 CYC:127 SL:196
15:25:24: E128  8D 06 20  STA $2006 = 00                 A:00 X:3E Y:00 P:27 SP:F6 CYC:133 SL:196
15:25:24: E12B  8D 06 20  STA $2006 = 00                 A:00 X:3E Y:00 P:27 SP:F6 CYC:145 SL:196
15:25:24: E12E  A9 10     LDA #$10                       A:00 X:3E Y:00 P:27 SP:F6 CYC:157 SL:196
15:25:24: E130  8D 06 20  STA $2006 = 00                 A:10 X:3E Y:00 P:25 SP:F6 CYC:163 SL:196
15:25:24: E133  8D 06 20  STA $2006 = 00                 A:10 X:3E Y:00 P:25 SP:F6 CYC:175 SL:196
15:25:24: E136  A9 00     LDA #$00                       A:10 X:3E Y:00 P:25 SP:F6 CYC:187 SL:196
15:25:24: E138  8D 06 20  STA $2006 = 00                 A:00 X:3E Y:00 P:27 SP:F6 CYC:193 SL:196
15:25:24: E13B  8D 06 20  STA $2006 = 00                 A:00 X:3E Y:00 P:27 SP:F6 CYC:205 SL:196
15:25:24: E13E  68        PLA                            A:00 X:3E Y:00 P:27 SP:F6 CYC:217 SL:196
15:25:24: E13F  60        RTS                            A:7B X:3E Y:00 P:25 SP:F7 CYC:229 SL:196
15:25:24: E121  CA        DEX                            A:7B X:3E Y:00 P:25 SP:F9 CYC:247 SL:196
15:25:24: E122  D0 FA     BNE $E11E                      A:7B X:3D Y:00 P:25 SP:F9 CYC:253 SL:196
15:25:24: E11E  20 25 E1  JSR $E125                      A:7B X:3D Y:00 P:25 SP:F9 CYC:262 SL:196
15:25:24: E125  48        PHA                            A:7B X:3D Y:00 P:25 SP:F7 CYC:280 SL:196
15:25:24: E126  A9 00     LDA #$00                       A:7B X:3D Y:00 P:25 SP:F6 CYC:289 SL:196
15:25:24: E128  8D 06 20  STA $2006 = 00                 A:00 X:3D Y:00 P:27 SP:F6 CYC:295 SL:196
15:25:24: E12B  8D 06 20  STA $2006 = 00                 A:00 X:3D Y:00 P:27 SP:F6 CYC:307 SL:196
15:25:24: E12E  A9 10     LDA #$10                       A:00 X:3D Y:00 P:27 SP:F6 CYC:319 SL:196
15:25:24: E130  8D 06 20  STA $2006 = 00                 A:10 X:3D Y:00 P:25 SP:F6 CYC:325 SL:196
15:25:24: E133  8D 06 20  STA $2006 = 00                 A:10 X:3D Y:00 P:25 SP:F6 CYC:337 SL:196
15:25:24: E136  A9 00     LDA #$00                       A:10 X:3D Y:00 P:25 SP:F6 CYC:  8 SL:197
15:25:24: E138  8D 06 20  STA $2006 = 00                 A:00 X:3D Y:00 P:27 SP:F6 CYC: 14 SL:197
15:25:24: E13B  8D 06 20  STA $2006 = 00                 A:00 X:3D Y:00 P:27 SP:F6 CYC: 26 SL:197
15:25:24: E13E  68        PLA                            A:00 X:3D Y:00 P:27 SP:F6 CYC: 38 SL:197
15:25:24: E13F  60        RTS                            A:7B X:3D Y:00 P:25 SP:F7 CYC: 50 SL:197
15:25:24: E121  CA        DEX                            A:7B X:3D Y:00 P:25 SP:F9 CYC: 68 SL:197
15:25:24: E122  D0 FA     BNE $E11E                      A:7B X:3C Y:00 P:25 SP:F9 CYC: 74 SL:197
15:25:24: E11E  20 25 E1  JSR $E125                      A:7B X:3C Y:00 P:25 SP:F9 CYC: 83 SL:197
15:25:24: E125  48        PHA                            A:7B X:3C Y:00 P:25 SP:F7 CYC:101 SL:197
15:25:24: E126  A9 00     LDA #$00                       A:7B X:3C Y:00 P:25 SP:F6 CYC:110 SL:197
15:25:24: E128  8D 06 20  STA $2006 = 00                 A:00 X:3C Y:00 P:27 SP:F6 CYC:116 SL:197
15:25:24: E12B  8D 06 20  STA $2006 = 00                 A:00 X:3C Y:00 P:27 SP:F6 CYC:128 SL:197
15:25:24: E12E  A9 10     LDA #$10                       A:00 X:3C Y:00 P:27 SP:F6 CYC:140 SL:197
15:25:24: E130  8D 06 20  STA $2006 = 00                 A:10 X:3C Y:00 P:25 SP:F6 CYC:146 SL:197
15:25:25: E133  8D 06 20  STA $2006 = 00                 A:10 X:3C Y:00 P:25 SP:F6 CYC:158 SL:197
15:25:25: E136  A9 00     LDA #$00                       A:10 X:3C Y:00 P:25 SP:F6 CYC:170 SL:197
15:25:25: E138  8D 06 20  STA $2006 = 00                 A:00 X:3C Y:00 P:27 SP:F6 CYC:176 SL:197
15:25:25: E13B  8D 06 20  STA $2006 = 00                 A:00 X:3C Y:00 P:27 SP:F6 CYC:188 SL:197
15:25:25: E13E  68        PLA                            A:00 X:3C Y:00 P:27 SP:F6 CYC:200 SL:197
15:25:25: E13F  60        RTS                            A:7B X:3C Y:00 P:25 SP:F7 CYC:212 SL:197
15:25:25: E121  CA        DEX                            A:7B X:3C Y:00 P:25 SP:F9 CYC:230 SL:197
15:25:25: E122  D0 FA     BNE $E11E                      A:7B X:3B Y:00 P:25 SP:F9 CYC:236 SL:197
15:25:25: E11E  20 25 E1  JSR $E125                      A:7B X:3B Y:00 P:25 SP:F9 CYC:245 SL:197
15:25:25: E125  48        PHA                            A:7B X:3B Y:00 P:25 SP:F7 CYC:263 SL:197
15:25:25: E126  A9 00     LDA #$00                       A:7B X:3B Y:00 P:25 SP:F6 CYC:272 SL:197
15:25:25: E128  8D 06 20  STA $2006 = 00                 A:00 X:3B Y:00 P:27 SP:F6 CYC:278 SL:197
15:25:25: E12B  8D 06 20  STA $2006 = 00                 A:00 X:3B Y:00 P:27 SP:F6 CYC:290 SL:197
15:25:25: E12E  A9 10     LDA #$10                       A:00 X:3B Y:00 P:27 SP:F6 CYC:302 SL:197
15:25:25: E130  8D 06 20  STA $2006 = 00                 A:10 X:3B Y:00 P:25 SP:F6 CYC:308 SL:197
15:25:25: E133  8D 06 20  STA $2006 = 00                 A:10 X:3B Y:00 P:25 SP:F6 CYC:320 SL:197
15:25:25: E136  A9 00     LDA #$00                       A:10 X:3B Y:00 P:25 SP:F6 CYC:332 SL:197
15:25:25: E138  8D 06 20  STA $2006 = 00                 A:00 X:3B Y:00 P:27 SP:F6 CYC:338 SL:197
15:25:25: E13B  8D 06 20  STA $2006 = 00                 A:00 X:3B Y:00 P:27 SP:F6 CYC:  9 SL:198
15:25:25: E13E  68        PLA                            A:00 X:3B Y:00 P:27 SP:F6 CYC: 21 SL:198
15:25:25: E13F  60        RTS                            A:7B X:3B Y:00 P:25 SP:F7 CYC: 33 SL:198
15:25:25: E121  CA        DEX                            A:7B X:3B Y:00 P:25 SP:F9 CYC: 51 SL:198
15:25:25: E122  D0 FA     BNE $E11E                      A:7B X:3A Y:00 P:25 SP:F9 CYC: 57 SL:198
15:25:25: E11E  20 25 E1  JSR $E125                      A:7B X:3A Y:00 P:25 SP:F9 CYC: 66 SL:198
15:25:25: E125  48        PHA                            A:7B X:3A Y:00 P:25 SP:F7 CYC: 84 SL:198
15:25:25: E126  A9 00     LDA #$00                       A:7B X:3A Y:00 P:25 SP:F6 CYC: 93 SL:198
15:25:25: E128  8D 06 20  STA $2006 = 00                 A:00 X:3A Y:00 P:27 SP:F6 CYC: 99 SL:198
15:25:25: E12B  8D 06 20  STA $2006 = 00                 A:00 X:3A Y:00 P:27 SP:F6 CYC:111 SL:198
15:25:25: E12E  A9 10     LDA #$10                       A:00 X:3A Y:00 P:27 SP:F6 CYC:123 SL:198
15:25:25: E130  8D 06 20  STA $2006 = 00                 A:10 X:3A Y:00 P:25 SP:F6 CYC:129 SL:198
15:25:25: E133  8D 06 20  STA $2006 = 00                 A:10 X:3A Y:00 P:25 SP:F6 CYC:141 SL:198
15:25:25: E136  A9 00     LDA #$00                       A:10 X:3A Y:00 P:25 SP:F6 CYC:153 SL:198
15:25:25: E138  8D 06 20  STA $2006 = 00                 A:00 X:3A Y:00 P:27 SP:F6 CYC:159 SL:198
15:25:25: E13B  8D 06 20  STA $2006 = 00                 A:00 X:3A Y:00 P:27 SP:F6 CYC:171 SL:198
15:25:25: E13E  68        PLA                            A:00 X:3A Y:00 P:27 SP:F6 CYC:183 SL:198
15:25:25: E13F  60        RTS                            A:7B X:3A Y:00 P:25 SP:F7 CYC:195 SL:198
15:25:25: E121  CA        DEX                            A:7B X:3A Y:00 P:25 SP:F9 CYC:213 SL:198
15:25:25: E122  D0 FA     BNE $E11E                      A:7B X:39 Y:00 P:25 SP:F9 CYC:219 SL:198
15:25:25: E11E  20 25 E1  JSR $E125                      A:7B X:39 Y:00 P:25 SP:F9 CYC:228 SL:198
15:25:25: E125  48        PHA                            A:7B X:39 Y:00 P:25 SP:F7 CYC:246 SL:198
15:25:25: E126  A9 00     LDA #$00                       A:7B X:39 Y:00 P:25 SP:F6 CYC:255 SL:198
15:25:25: E128  8D 06 20  STA $2006 = 00                 A:00 X:39 Y:00 P:27 SP:F6 CYC:261 SL:198
15:25:25: E12B  8D 06 20  STA $2006 = 00                 A:00 X:39 Y:00 P:27 SP:F6 CYC:273 SL:198
15:25:25: E12E  A9 10     LDA #$10                       A:00 X:39 Y:00 P:27 SP:F6 CYC:285 SL:198
15:25:25: E130  8D 06 20  STA $2006 = 00                 A:10 X:39 Y:00 P:25 SP:F6 CYC:291 SL:198
15:25:25: E133  8D 06 20  STA $2006 = 00                 A:10 X:39 Y:00 P:25 SP:F6 CYC:303 SL:198
15:25:25: E136  A9 00     LDA #$00                       A:10 X:39 Y:00 P:25 SP:F6 CYC:315 SL:198
15:25:25: E138  8D 06 20  STA $2006 = 00                 A:00 X:39 Y:00 P:27 SP:F6 CYC:321 SL:198
15:25:25: E13B  8D 06 20  STA $2006 = 00                 A:00 X:39 Y:00 P:27 SP:F6 CYC:333 SL:198
15:25:25: E13E  68        PLA                            A:00 X:39 Y:00 P:27 SP:F6 CYC:  4 SL:199
15:25:25: E13F  60        RTS                            A:7B X:39 Y:00 P:25 SP:F7 CYC: 16 SL:199
15:25:25: E121  CA        DEX                            A:7B X:39 Y:00 P:25 SP:F9 CYC: 34 SL:199
15:25:25: E122  D0 FA     BNE $E11E                      A:7B X:38 Y:00 P:25 SP:F9 CYC: 40 SL:199
15:25:25: E11E  20 25 E1  JSR $E125                      A:7B X:38 Y:00 P:25 SP:F9 CYC: 49 SL:199
15:25:25: E125  48        PHA                            A:7B X:38 Y:00 P:25 SP:F7 CYC: 67 SL:199
15:25:25: E126  A9 00     LDA #$00                       A:7B X:38 Y:00 P:25 SP:F6 CYC: 76 SL:199
15:25:25: E128  8D 06 20  STA $2006 = 00                 A:00 X:38 Y:00 P:27 SP:F6 CYC: 82 SL:199
15:25:25: E12B  8D 06 20  STA $2006 = 00                 A:00 X:38 Y:00 P:27 SP:F6 CYC: 94 SL:199
15:25:25: E12E  A9 10     LDA #$10                       A:00 X:38 Y:00 P:27 SP:F6 CYC:106 SL:199
15:25:25: E130  8D 06 20  STA $2006 = 00                 A:10 X:38 Y:00 P:25 SP:F6 CYC:112 SL:199
15:25:25: E133  8D 06 20  STA $2006 = 00                 A:10 X:38 Y:00 P:25 SP:F6 CYC:124 SL:199
15:25:25: E136  A9 00     LDA #$00                       A:10 X:38 Y:00 P:25 SP:F6 CYC:136 SL:199
15:25:25: E138  8D 06 20  STA $2006 = 00                 A:00 X:38 Y:00 P:27 SP:F6 CYC:142 SL:199
15:25:25: E13B  8D 06 20  STA $2006 = 00                 A:00 X:38 Y:00 P:27 SP:F6 CYC:154 SL:199
15:25:25: E13E  68        PLA                            A:00 X:38 Y:00 P:27 SP:F6 CYC:166 SL:199
15:25:25: E13F  60        RTS                            A:7B X:38 Y:00 P:25 SP:F7 CYC:178 SL:199
15:25:25: E121  CA        DEX                            A:7B X:38 Y:00 P:25 SP:F9 CYC:196 SL:199
15:25:25: E122  D0 FA     BNE $E11E                      A:7B X:37 Y:00 P:25 SP:F9 CYC:202 SL:199
15:25:25: E11E  20 25 E1  JSR $E125                      A:7B X:37 Y:00 P:25 SP:F9 CYC:211 SL:199
15:25:25: E125  48        PHA                            A:7B X:37 Y:00 P:25 SP:F7 CYC:229 SL:199
15:25:25: E126  A9 00     LDA #$00                       A:7B X:37 Y:00 P:25 SP:F6 CYC:238 SL:199
15:25:25: E128  8D 06 20  STA $2006 = 00                 A:00 X:37 Y:00 P:27 SP:F6 CYC:244 SL:199
15:25:25: E12B  8D 06 20  STA $2006 = 00                 A:00 X:37 Y:00 P:27 SP:F6 CYC:256 SL:199
15:25:25: E12E  A9 10     LDA #$10                       A:00 X:37 Y:00 P:27 SP:F6 CYC:268 SL:199
15:25:25: E130  8D 06 20  STA $2006 = 00                 A:10 X:37 Y:00 P:25 SP:F6 CYC:274 SL:199
15:25:25: E133  8D 06 20  STA $2006 = 00                 A:10 X:37 Y:00 P:25 SP:F6 CYC:286 SL:199
15:25:25: E136  A9 00     LDA #$00                       A:10 X:37 Y:00 P:25 SP:F6 CYC:298 SL:199
15:25:25: E138  8D 06 20  STA $2006 = 00                 A:00 X:37 Y:00 P:27 SP:F6 CYC:304 SL:199
15:25:25: E13B  8D 06 20  STA $2006 = 00                 A:00 X:37 Y:00 P:27 SP:F6 CYC:316 SL:199
15:25:25: E13E  68        PLA                            A:00 X:37 Y:00 P:27 SP:F6 CYC:328 SL:199
15:25:25: E13F  60        RTS                            A:7B X:37 Y:00 P:25 SP:F7 CYC:340 SL:199
15:25:25: E121  CA        DEX                            A:7B X:37 Y:00 P:25 SP:F9 CYC: 17 SL:200
15:25:25: E122  D0 FA     BNE $E11E                      A:7B X:36 Y:00 P:25 SP:F9 CYC: 23 SL:200
15:25:25: E11E  20 25 E1  JSR $E125                      A:7B X:36 Y:00 P:25 SP:F9 CYC: 32 SL:200
15:25:25: E125  48        PHA                            A:7B X:36 Y:00 P:25 SP:F7 CYC: 50 SL:200
15:25:25: E126  A9 00     LDA #$00                       A:7B X:36 Y:00 P:25 SP:F6 CYC: 59 SL:200
15:25:25: E128  8D 06 20  STA $2006 = 00                 A:00 X:36 Y:00 P:27 SP:F6 CYC: 65 SL:200
15:25:25: E12B  8D 06 20  STA $2006 = 00                 A:00 X:36 Y:00 P:27 SP:F6 CYC: 77 SL:200
15:25:25: E12E  A9 10     LDA #$10                       A:00 X:36 Y:00 P:27 SP:F6 CYC: 89 SL:200
15:25:25: E130  8D 06 20  STA $2006 = 00                 A:10 X:36 Y:00 P:25 SP:F6 CYC: 95 SL:200
15:25:25: E133  8D 06 20  STA $2006 = 00                 A:10 X:36 Y:00 P:25 SP:F6 CYC:107 SL:200
15:25:25: E136  A9 00     LDA #$00                       A:10 X:36 Y:00 P:25 SP:F6 CYC:119 SL:200
15:25:25: E138  8D 06 20  STA $2006 = 00                 A:00 X:36 Y:00 P:27 SP:F6 CYC:125 SL:200
15:25:25: E13B  8D 06 20  STA $2006 = 00                 A:00 X:36 Y:00 P:27 SP:F6 CYC:137 SL:200
15:25:25: E13E  68        PLA                            A:00 X:36 Y:00 P:27 SP:F6 CYC:149 SL:200
15:25:25: E13F  60        RTS                            A:7B X:36 Y:00 P:25 SP:F7 CYC:161 SL:200
15:25:25: E121  CA        DEX                            A:7B X:36 Y:00 P:25 SP:F9 CYC:179 SL:200
15:25:25: E122  D0 FA     BNE $E11E                      A:7B X:35 Y:00 P:25 SP:F9 CYC:185 SL:200
15:25:25: E11E  20 25 E1  JSR $E125                      A:7B X:35 Y:00 P:25 SP:F9 CYC:194 SL:200
15:25:25: E125  48        PHA                            A:7B X:35 Y:00 P:25 SP:F7 CYC:212 SL:200
15:25:25: E126  A9 00     LDA #$00                       A:7B X:35 Y:00 P:25 SP:F6 CYC:221 SL:200
15:25:25: E128  8D 06 20  STA $2006 = 00                 A:00 X:35 Y:00 P:27 SP:F6 CYC:227 SL:200
15:25:25: E12B  8D 06 20  STA $2006 = 00                 A:00 X:35 Y:00 P:27 SP:F6 CYC:239 SL:200
15:25:25: E12E  A9 10     LDA #$10                       A:00 X:35 Y:00 P:27 SP:F6 CYC:251 SL:200
15:25:25: E130  8D 06 20  STA $2006 = 00                 A:10 X:35 Y:00 P:25 SP:F6 CYC:257 SL:200
15:25:25: E133  8D 06 20  STA $2006 = 00                 A:10 X:35 Y:00 P:25 SP:F6 CYC:269 SL:200
15:25:25: E136  A9 00     LDA #$00                       A:10 X:35 Y:00 P:25 SP:F6 CYC:281 SL:200
15:25:25: E138  8D 06 20  STA $2006 = 00                 A:00 X:35 Y:00 P:27 SP:F6 CYC:287 SL:200
15:25:25: E13B  8D 06 20  STA $2006 = 00                 A:00 X:35 Y:00 P:27 SP:F6 CYC:299 SL:200
15:25:25: E13E  68        PLA                            A:00 X:35 Y:00 P:27 SP:F6 CYC:311 SL:200
15:25:25: E13F  60        RTS                            A:7B X:35 Y:00 P:25 SP:F7 CYC:323 SL:200
15:25:25: E121  CA        DEX                            A:7B X:35 Y:00 P:25 SP:F9 CYC:  0 SL:201
15:25:25: E122  D0 FA     BNE $E11E                      A:7B X:34 Y:00 P:25 SP:F9 CYC:  6 SL:201
15:25:25: E11E  20 25 E1  JSR $E125                      A:7B X:34 Y:00 P:25 SP:F9 CYC: 15 SL:201
15:25:25: E125  48        PHA                            A:7B X:34 Y:00 P:25 SP:F7 CYC: 33 SL:201
15:25:25: E126  A9 00     LDA #$00                       A:7B X:34 Y:00 P:25 SP:F6 CYC: 42 SL:201
15:25:25: E128  8D 06 20  STA $2006 = 00                 A:00 X:34 Y:00 P:27 SP:F6 CYC: 48 SL:201
15:25:25: E12B  8D 06 20  STA $2006 = 00                 A:00 X:34 Y:00 P:27 SP:F6 CYC: 60 SL:201
15:25:25: E12E  A9 10     LDA #$10                       A:00 X:34 Y:00 P:27 SP:F6 CYC: 72 SL:201
15:25:25: E130  8D 06 20  STA $2006 = 00                 A:10 X:34 Y:00 P:25 SP:F6 CYC: 78 SL:201
15:25:25: E133  8D 06 20  STA $2006 = 00                 A:10 X:34 Y:00 P:25 SP:F6 CYC: 90 SL:201
15:25:25: E136  A9 00     LDA #$00                       A:10 X:34 Y:00 P:25 SP:F6 CYC:102 SL:201
15:25:25: E138  8D 06 20  STA $2006 = 00                 A:00 X:34 Y:00 P:27 SP:F6 CYC:108 SL:201
15:25:25: E13B  8D 06 20  STA $2006 = 00                 A:00 X:34 Y:00 P:27 SP:F6 CYC:120 SL:201
15:25:25: E13E  68        PLA                            A:00 X:34 Y:00 P:27 SP:F6 CYC:132 SL:201
15:25:25: E13F  60        RTS                            A:7B X:34 Y:00 P:25 SP:F7 CYC:144 SL:201
15:25:25: E121  CA        DEX                            A:7B X:34 Y:00 P:25 SP:F9 CYC:162 SL:201
15:25:25: E122  D0 FA     BNE $E11E                      A:7B X:33 Y:00 P:25 SP:F9 CYC:168 SL:201
15:25:25: E11E  20 25 E1  JSR $E125                      A:7B X:33 Y:00 P:25 SP:F9 CYC:177 SL:201
15:25:25: E125  48        PHA                            A:7B X:33 Y:00 P:25 SP:F7 CYC:195 SL:201
15:25:25: E126  A9 00     LDA #$00                       A:7B X:33 Y:00 P:25 SP:F6 CYC:204 SL:201
15:25:25: E128  8D 06 20  STA $2006 = 00                 A:00 X:33 Y:00 P:27 SP:F6 CYC:210 SL:201
15:25:25: E12B  8D 06 20  STA $2006 = 00                 A:00 X:33 Y:00 P:27 SP:F6 CYC:222 SL:201
15:25:25: E12E  A9 10     LDA #$10                       A:00 X:33 Y:00 P:27 SP:F6 CYC:234 SL:201
15:25:25: E130  8D 06 20  STA $2006 = 00                 A:10 X:33 Y:00 P:25 SP:F6 CYC:240 SL:201
15:25:25: E133  8D 06 20  STA $2006 = 00                 A:10 X:33 Y:00 P:25 SP:F6 CYC:252 SL:201
15:25:25: E136  A9 00     LDA #$00                       A:10 X:33 Y:00 P:25 SP:F6 CYC:264 SL:201
15:25:25: E138  8D 06 20  STA $2006 = 00                 A:00 X:33 Y:00 P:27 SP:F6 CYC:270 SL:201
15:25:25: E13B  8D 06 20  STA $2006 = 00                 A:00 X:33 Y:00 P:27 SP:F6 CYC:282 SL:201
15:25:25: E13E  68        PLA                            A:00 X:33 Y:00 P:27 SP:F6 CYC:294 SL:201
15:25:25: E13F  60        RTS                            A:7B X:33 Y:00 P:25 SP:F7 CYC:306 SL:201
15:25:25: E121  CA        DEX                            A:7B X:33 Y:00 P:25 SP:F9 CYC:324 SL:201
15:25:25: E122  D0 FA     BNE $E11E                      A:7B X:32 Y:00 P:25 SP:F9 CYC:330 SL:201
15:25:25: E11E  20 25 E1  JSR $E125                      A:7B X:32 Y:00 P:25 SP:F9 CYC:339 SL:201
15:25:25: E125  48        PHA                            A:7B X:32 Y:00 P:25 SP:F7 CYC: 16 SL:202
15:25:25: E126  A9 00     LDA #$00                       A:7B X:32 Y:00 P:25 SP:F6 CYC: 25 SL:202
15:25:25: E128  8D 06 20  STA $2006 = 00                 A:00 X:32 Y:00 P:27 SP:F6 CYC: 31 SL:202
15:25:25: E12B  8D 06 20  STA $2006 = 00                 A:00 X:32 Y:00 P:27 SP:F6 CYC: 43 SL:202
15:25:25: E12E  A9 10     LDA #$10                       A:00 X:32 Y:00 P:27 SP:F6 CYC: 55 SL:202
15:25:25: E130  8D 06 20  STA $2006 = 00                 A:10 X:32 Y:00 P:25 SP:F6 CYC: 61 SL:202
15:25:25: E133  8D 06 20  STA $2006 = 00                 A:10 X:32 Y:00 P:25 SP:F6 CYC: 73 SL:202
15:25:25: E136  A9 00     LDA #$00                       A:10 X:32 Y:00 P:25 SP:F6 CYC: 85 SL:202
15:25:25: E138  8D 06 20  STA $2006 = 00                 A:00 X:32 Y:00 P:27 SP:F6 CYC: 91 SL:202
15:25:25: E13B  8D 06 20  STA $2006 = 00                 A:00 X:32 Y:00 P:27 SP:F6 CYC:103 SL:202
15:25:25: E13E  68        PLA                            A:00 X:32 Y:00 P:27 SP:F6 CYC:115 SL:202
15:25:25: E13F  60        RTS                            A:7B X:32 Y:00 P:25 SP:F7 CYC:127 SL:202
15:25:25: E121  CA        DEX                            A:7B X:32 Y:00 P:25 SP:F9 CYC:145 SL:202
15:25:25: E122  D0 FA     BNE $E11E                      A:7B X:31 Y:00 P:25 SP:F9 CYC:151 SL:202
15:25:25: E11E  20 25 E1  JSR $E125                      A:7B X:31 Y:00 P:25 SP:F9 CYC:160 SL:202
15:25:25: E125  48        PHA                            A:7B X:31 Y:00 P:25 SP:F7 CYC:178 SL:202
15:25:25: E126  A9 00     LDA #$00                       A:7B X:31 Y:00 P:25 SP:F6 CYC:187 SL:202
15:25:25: E128  8D 06 20  STA $2006 = 00                 A:00 X:31 Y:00 P:27 SP:F6 CYC:193 SL:202
15:25:25: E12B  8D 06 20  STA $2006 = 00                 A:00 X:31 Y:00 P:27 SP:F6 CYC:205 SL:202
15:25:25: E12E  A9 10     LDA #$10                       A:00 X:31 Y:00 P:27 SP:F6 CYC:217 SL:202
15:25:25: E130  8D 06 20  STA $2006 = 00                 A:10 X:31 Y:00 P:25 SP:F6 CYC:223 SL:202
15:25:25: E133  8D 06 20  STA $2006 = 00                 A:10 X:31 Y:00 P:25 SP:F6 CYC:235 SL:202
15:25:25: E136  A9 00     LDA #$00                       A:10 X:31 Y:00 P:25 SP:F6 CYC:247 SL:202
15:25:25: E138  8D 06 20  STA $2006 = 00                 A:00 X:31 Y:00 P:27 SP:F6 CYC:253 SL:202
15:25:25: E13B  8D 06 20  STA $2006 = 00                 A:00 X:31 Y:00 P:27 SP:F6 CYC:265 SL:202
15:25:25: E13E  68        PLA                            A:00 X:31 Y:00 P:27 SP:F6 CYC:277 SL:202
15:25:25: E13F  60        RTS                            A:7B X:31 Y:00 P:25 SP:F7 CYC:289 SL:202
15:25:25: E121  CA        DEX                            A:7B X:31 Y:00 P:25 SP:F9 CYC:307 SL:202
15:25:25: E122  D0 FA     BNE $E11E                      A:7B X:30 Y:00 P:25 SP:F9 CYC:313 SL:202
15:25:25: E11E  20 25 E1  JSR $E125                      A:7B X:30 Y:00 P:25 SP:F9 CYC:322 SL:202
15:25:25: E125  48        PHA                            A:7B X:30 Y:00 P:25 SP:F7 CYC:340 SL:202
15:25:25: E126  A9 00     LDA #$00                       A:7B X:30 Y:00 P:25 SP:F6 CYC:  8 SL:203
15:25:25: E128  8D 06 20  STA $2006 = 00                 A:00 X:30 Y:00 P:27 SP:F6 CYC: 14 SL:203
15:25:25: E12B  8D 06 20  STA $2006 = 00                 A:00 X:30 Y:00 P:27 SP:F6 CYC: 26 SL:203
15:25:25: E12E  A9 10     LDA #$10                       A:00 X:30 Y:00 P:27 SP:F6 CYC: 38 SL:203
15:25:25: E130  8D 06 20  STA $2006 = 00                 A:10 X:30 Y:00 P:25 SP:F6 CYC: 44 SL:203
15:25:25: E133  8D 06 20  STA $2006 = 00                 A:10 X:30 Y:00 P:25 SP:F6 CYC: 56 SL:203
15:25:25: E136  A9 00     LDA #$00                       A:10 X:30 Y:00 P:25 SP:F6 CYC: 68 SL:203
15:25:25: E138  8D 06 20  STA $2006 = 00                 A:00 X:30 Y:00 P:27 SP:F6 CYC: 74 SL:203
15:25:25: E13B  8D 06 20  STA $2006 = 00                 A:00 X:30 Y:00 P:27 SP:F6 CYC: 86 SL:203
15:25:25: E13E  68        PLA                            A:00 X:30 Y:00 P:27 SP:F6 CYC: 98 SL:203
15:25:25: E13F  60        RTS                            A:7B X:30 Y:00 P:25 SP:F7 CYC:110 SL:203
15:25:25: E121  CA        DEX                            A:7B X:30 Y:00 P:25 SP:F9 CYC:128 SL:203
15:25:25: E122  D0 FA     BNE $E11E                      A:7B X:2F Y:00 P:25 SP:F9 CYC:134 SL:203
15:25:25: E11E  20 25 E1  JSR $E125                      A:7B X:2F Y:00 P:25 SP:F9 CYC:143 SL:203
15:25:25: E125  48        PHA                            A:7B X:2F Y:00 P:25 SP:F7 CYC:161 SL:203
15:25:25: E126  A9 00     LDA #$00                       A:7B X:2F Y:00 P:25 SP:F6 CYC:170 SL:203
15:25:25: E128  8D 06 20  STA $2006 = 00                 A:00 X:2F Y:00 P:27 SP:F6 CYC:176 SL:203
15:25:25: E12B  8D 06 20  STA $2006 = 00                 A:00 X:2F Y:00 P:27 SP:F6 CYC:188 SL:203
15:25:25: E12E  A9 10     LDA #$10                       A:00 X:2F Y:00 P:27 SP:F6 CYC:200 SL:203
15:25:25: E130  8D 06 20  STA $2006 = 00                 A:10 X:2F Y:00 P:25 SP:F6 CYC:206 SL:203
15:25:25: E133  8D 06 20  STA $2006 = 00                 A:10 X:2F Y:00 P:25 SP:F6 CYC:218 SL:203
15:25:25: E136  A9 00     LDA #$00                       A:10 X:2F Y:00 P:25 SP:F6 CYC:230 SL:203
15:25:25: E138  8D 06 20  STA $2006 = 00                 A:00 X:2F Y:00 P:27 SP:F6 CYC:236 SL:203
15:25:25: E13B  8D 06 20  STA $2006 = 00                 A:00 X:2F Y:00 P:27 SP:F6 CYC:248 SL:203
15:25:25: E13E  68        PLA                            A:00 X:2F Y:00 P:27 SP:F6 CYC:260 SL:203
15:25:25: E13F  60        RTS                            A:7B X:2F Y:00 P:25 SP:F7 CYC:272 SL:203
15:25:25: E121  CA        DEX                            A:7B X:2F Y:00 P:25 SP:F9 CYC:290 SL:203
15:25:25: E122  D0 FA     BNE $E11E                      A:7B X:2E Y:00 P:25 SP:F9 CYC:296 SL:203
15:25:25: E11E  20 25 E1  JSR $E125                      A:7B X:2E Y:00 P:25 SP:F9 CYC:305 SL:203
15:25:25: E125  48        PHA                            A:7B X:2E Y:00 P:25 SP:F7 CYC:323 SL:203
15:25:25: E126  A9 00     LDA #$00                       A:7B X:2E Y:00 P:25 SP:F6 CYC:332 SL:203
15:25:25: E128  8D 06 20  STA $2006 = 00                 A:00 X:2E Y:00 P:27 SP:F6 CYC:338 SL:203
15:25:25: E12B  8D 06 20  STA $2006 = 00                 A:00 X:2E Y:00 P:27 SP:F6 CYC:  9 SL:204
15:25:25: E12E  A9 10     LDA #$10                       A:00 X:2E Y:00 P:27 SP:F6 CYC: 21 SL:204
15:25:25: E130  8D 06 20  STA $2006 = 00                 A:10 X:2E Y:00 P:25 SP:F6 CYC: 27 SL:204
15:25:25: E133  8D 06 20  STA $2006 = 00                 A:10 X:2E Y:00 P:25 SP:F6 CYC: 39 SL:204
15:25:25: E136  A9 00     LDA #$00                       A:10 X:2E Y:00 P:25 SP:F6 CYC: 51 SL:204
15:25:25: E138  8D 06 20  STA $2006 = 00                 A:00 X:2E Y:00 P:27 SP:F6 CYC: 57 SL:204
15:25:25: E13B  8D 06 20  STA $2006 = 00                 A:00 X:2E Y:00 P:27 SP:F6 CYC: 69 SL:204
15:25:25: E13E  68        PLA                            A:00 X:2E Y:00 P:27 SP:F6 CYC: 81 SL:204
15:25:25: E13F  60        RTS                            A:7B X:2E Y:00 P:25 SP:F7 CYC: 93 SL:204
15:25:25: E121  CA        DEX                            A:7B X:2E Y:00 P:25 SP:F9 CYC:111 SL:204
15:25:25: E122  D0 FA     BNE $E11E                      A:7B X:2D Y:00 P:25 SP:F9 CYC:117 SL:204
15:25:25: E11E  20 25 E1  JSR $E125                      A:7B X:2D Y:00 P:25 SP:F9 CYC:126 SL:204
15:25:25: E125  48        PHA                            A:7B X:2D Y:00 P:25 SP:F7 CYC:144 SL:204
15:25:25: E126  A9 00     LDA #$00                       A:7B X:2D Y:00 P:25 SP:F6 CYC:153 SL:204
15:25:25: E128  8D 06 20  STA $2006 = 00                 A:00 X:2D Y:00 P:27 SP:F6 CYC:159 SL:204
15:25:25: E12B  8D 06 20  STA $2006 = 00                 A:00 X:2D Y:00 P:27 SP:F6 CYC:171 SL:204
15:25:25: E12E  A9 10     LDA #$10                       A:00 X:2D Y:00 P:27 SP:F6 CYC:183 SL:204
15:25:25: E130  8D 06 20  STA $2006 = 00                 A:10 X:2D Y:00 P:25 SP:F6 CYC:189 SL:204
15:25:25: E133  8D 06 20  STA $2006 = 00                 A:10 X:2D Y:00 P:25 SP:F6 CYC:201 SL:204
15:25:25: E136  A9 00     LDA #$00                       A:10 X:2D Y:00 P:25 SP:F6 CYC:213 SL:204
15:25:25: E138  8D 06 20  STA $2006 = 00                 A:00 X:2D Y:00 P:27 SP:F6 CYC:219 SL:204
15:25:25: E13B  8D 06 20  STA $2006 = 00                 A:00 X:2D Y:00 P:27 SP:F6 CYC:231 SL:204
15:25:25: E13E  68        PLA                            A:00 X:2D Y:00 P:27 SP:F6 CYC:243 SL:204
15:25:25: E13F  60        RTS                            A:7B X:2D Y:00 P:25 SP:F7 CYC:255 SL:204
15:25:25: E121  CA        DEX                            A:7B X:2D Y:00 P:25 SP:F9 CYC:273 SL:204
15:25:25: E122  D0 FA     BNE $E11E                      A:7B X:2C Y:00 P:25 SP:F9 CYC:279 SL:204
15:25:25: E11E  20 25 E1  JSR $E125                      A:7B X:2C Y:00 P:25 SP:F9 CYC:288 SL:204
15:25:25: E125  48        PHA                            A:7B X:2C Y:00 P:25 SP:F7 CYC:306 SL:204
15:25:25: E126  A9 00     LDA #$00                       A:7B X:2C Y:00 P:25 SP:F6 CYC:315 SL:204
15:25:25: E128  8D 06 20  STA $2006 = 00                 A:00 X:2C Y:00 P:27 SP:F6 CYC:321 SL:204
15:25:25: E12B  8D 06 20  STA $2006 = 00                 A:00 X:2C Y:00 P:27 SP:F6 CYC:333 SL:204
15:25:25: E12E  A9 10     LDA #$10                       A:00 X:2C Y:00 P:27 SP:F6 CYC:  4 SL:205
15:25:25: E130  8D 06 20  STA $2006 = 00                 A:10 X:2C Y:00 P:25 SP:F6 CYC: 10 SL:205
15:25:25: E133  8D 06 20  STA $2006 = 00                 A:10 X:2C Y:00 P:25 SP:F6 CYC: 22 SL:205
15:25:25: E136  A9 00     LDA #$00                       A:10 X:2C Y:00 P:25 SP:F6 CYC: 34 SL:205
15:25:25: E138  8D 06 20  STA $2006 = 00                 A:00 X:2C Y:00 P:27 SP:F6 CYC: 40 SL:205
15:25:25: E13B  8D 06 20  STA $2006 = 00                 A:00 X:2C Y:00 P:27 SP:F6 CYC: 52 SL:205
15:25:25: E13E  68        PLA                            A:00 X:2C Y:00 P:27 SP:F6 CYC: 64 SL:205
15:25:25: E13F  60        RTS                            A:7B X:2C Y:00 P:25 SP:F7 CYC: 76 SL:205
15:25:25: E121  CA        DEX                            A:7B X:2C Y:00 P:25 SP:F9 CYC: 94 SL:205
15:25:25: E122  D0 FA     BNE $E11E                      A:7B X:2B Y:00 P:25 SP:F9 CYC:100 SL:205
15:25:25: E11E  20 25 E1  JSR $E125                      A:7B X:2B Y:00 P:25 SP:F9 CYC:109 SL:205
15:25:25: E125  48        PHA                            A:7B X:2B Y:00 P:25 SP:F7 CYC:127 SL:205
15:25:25: E126  A9 00     LDA #$00                       A:7B X:2B Y:00 P:25 SP:F6 CYC:136 SL:205
15:25:25: E128  8D 06 20  STA $2006 = 00                 A:00 X:2B Y:00 P:27 SP:F6 CYC:142 SL:205
15:25:25: E12B  8D 06 20  STA $2006 = 00                 A:00 X:2B Y:00 P:27 SP:F6 CYC:154 SL:205
15:25:25: E12E  A9 10     LDA #$10                       A:00 X:2B Y:00 P:27 SP:F6 CYC:166 SL:205
15:25:25: E130  8D 06 20  STA $2006 = 00                 A:10 X:2B Y:00 P:25 SP:F6 CYC:172 SL:205
15:25:25: E133  8D 06 20  STA $2006 = 00                 A:10 X:2B Y:00 P:25 SP:F6 CYC:184 SL:205
15:25:25: E136  A9 00     LDA #$00                       A:10 X:2B Y:00 P:25 SP:F6 CYC:196 SL:205
15:25:25: E138  8D 06 20  STA $2006 = 00                 A:00 X:2B Y:00 P:27 SP:F6 CYC:202 SL:205
15:25:25: E13B  8D 06 20  STA $2006 = 00                 A:00 X:2B Y:00 P:27 SP:F6 CYC:214 SL:205
15:25:25: E13E  68        PLA                            A:00 X:2B Y:00 P:27 SP:F6 CYC:226 SL:205
15:25:25: E13F  60        RTS                            A:7B X:2B Y:00 P:25 SP:F7 CYC:238 SL:205
15:25:25: E121  CA        DEX                            A:7B X:2B Y:00 P:25 SP:F9 CYC:256 SL:205
15:25:25: E122  D0 FA     BNE $E11E                      A:7B X:2A Y:00 P:25 SP:F9 CYC:262 SL:205
15:25:25: E11E  20 25 E1  JSR $E125                      A:7B X:2A Y:00 P:25 SP:F9 CYC:271 SL:205
15:25:25: E125  48        PHA                            A:7B X:2A Y:00 P:25 SP:F7 CYC:289 SL:205
15:25:25: E126  A9 00     LDA #$00                       A:7B X:2A Y:00 P:25 SP:F6 CYC:298 SL:205
15:25:25: E128  8D 06 20  STA $2006 = 00                 A:00 X:2A Y:00 P:27 SP:F6 CYC:304 SL:205
15:25:25: E12B  8D 06 20  STA $2006 = 00                 A:00 X:2A Y:00 P:27 SP:F6 CYC:316 SL:205
15:25:25: E12E  A9 10     LDA #$10                       A:00 X:2A Y:00 P:27 SP:F6 CYC:328 SL:205
15:25:25: E130  8D 06 20  STA $2006 = 00                 A:10 X:2A Y:00 P:25 SP:F6 CYC:334 SL:205
15:25:25: E133  8D 06 20  STA $2006 = 00                 A:10 X:2A Y:00 P:25 SP:F6 CYC:  5 SL:206
15:25:25: E136  A9 00     LDA #$00                       A:10 X:2A Y:00 P:25 SP:F6 CYC: 17 SL:206
15:25:25: E138  8D 06 20  STA $2006 = 00                 A:00 X:2A Y:00 P:27 SP:F6 CYC: 23 SL:206
15:25:25: E13B  8D 06 20  STA $2006 = 00                 A:00 X:2A Y:00 P:27 SP:F6 CYC: 35 SL:206
15:25:25: E13E  68        PLA                            A:00 X:2A Y:00 P:27 SP:F6 CYC: 47 SL:206
15:25:25: E13F  60        RTS                            A:7B X:2A Y:00 P:25 SP:F7 CYC: 59 SL:206
15:25:25: E121  CA        DEX                            A:7B X:2A Y:00 P:25 SP:F9 CYC: 77 SL:206
15:25:25: E122  D0 FA     BNE $E11E                      A:7B X:29 Y:00 P:25 SP:F9 CYC: 83 SL:206
15:25:25: E11E  20 25 E1  JSR $E125                      A:7B X:29 Y:00 P:25 SP:F9 CYC: 92 SL:206
15:25:25: E125  48        PHA                            A:7B X:29 Y:00 P:25 SP:F7 CYC:110 SL:206
15:25:25: E126  A9 00     LDA #$00                       A:7B X:29 Y:00 P:25 SP:F6 CYC:119 SL:206
15:25:25: E128  8D 06 20  STA $2006 = 00                 A:00 X:29 Y:00 P:27 SP:F6 CYC:125 SL:206
15:25:25: E12B  8D 06 20  STA $2006 = 00                 A:00 X:29 Y:00 P:27 SP:F6 CYC:137 SL:206
15:25:25: E12E  A9 10     LDA #$10                       A:00 X:29 Y:00 P:27 SP:F6 CYC:149 SL:206
15:25:25: E130  8D 06 20  STA $2006 = 00                 A:10 X:29 Y:00 P:25 SP:F6 CYC:155 SL:206
15:25:25: E133  8D 06 20  STA $2006 = 00                 A:10 X:29 Y:00 P:25 SP:F6 CYC:167 SL:206
15:25:25: E136  A9 00     LDA #$00                       A:10 X:29 Y:00 P:25 SP:F6 CYC:179 SL:206
15:25:25: E138  8D 06 20  STA $2006 = 00                 A:00 X:29 Y:00 P:27 SP:F6 CYC:185 SL:206
15:25:25: E13B  8D 06 20  STA $2006 = 00                 A:00 X:29 Y:00 P:27 SP:F6 CYC:197 SL:206
15:25:25: E13E  68        PLA                            A:00 X:29 Y:00 P:27 SP:F6 CYC:209 SL:206
15:25:25: E13F  60        RTS                            A:7B X:29 Y:00 P:25 SP:F7 CYC:221 SL:206
15:25:25: E121  CA        DEX                            A:7B X:29 Y:00 P:25 SP:F9 CYC:239 SL:206
15:25:25: E122  D0 FA     BNE $E11E                      A:7B X:28 Y:00 P:25 SP:F9 CYC:245 SL:206
15:25:25: E11E  20 25 E1  JSR $E125                      A:7B X:28 Y:00 P:25 SP:F9 CYC:254 SL:206
15:25:25: E125  48        PHA                            A:7B X:28 Y:00 P:25 SP:F7 CYC:272 SL:206
15:25:25: E126  A9 00     LDA #$00                       A:7B X:28 Y:00 P:25 SP:F6 CYC:281 SL:206
15:25:25: E128  8D 06 20  STA $2006 = 00                 A:00 X:28 Y:00 P:27 SP:F6 CYC:287 SL:206
15:25:25: E12B  8D 06 20  STA $2006 = 00                 A:00 X:28 Y:00 P:27 SP:F6 CYC:299 SL:206
15:25:25: E12E  A9 10     LDA #$10                       A:00 X:28 Y:00 P:27 SP:F6 CYC:311 SL:206
15:25:25: E130  8D 06 20  STA $2006 = 00                 A:10 X:28 Y:00 P:25 SP:F6 CYC:317 SL:206
15:25:25: E133  8D 06 20  STA $2006 = 00                 A:10 X:28 Y:00 P:25 SP:F6 CYC:329 SL:206
15:25:25: E136  A9 00     LDA #$00                       A:10 X:28 Y:00 P:25 SP:F6 CYC:  0 SL:207
15:25:25: E138  8D 06 20  STA $2006 = 00                 A:00 X:28 Y:00 P:27 SP:F6 CYC:  6 SL:207
15:25:25: E13B  8D 06 20  STA $2006 = 00                 A:00 X:28 Y:00 P:27 SP:F6 CYC: 18 SL:207
15:25:25: E13E  68        PLA                            A:00 X:28 Y:00 P:27 SP:F6 CYC: 30 SL:207
15:25:25: E13F  60        RTS                            A:7B X:28 Y:00 P:25 SP:F7 CYC: 42 SL:207
15:25:25: E121  CA        DEX                            A:7B X:28 Y:00 P:25 SP:F9 CYC: 60 SL:207
15:25:25: E122  D0 FA     BNE $E11E                      A:7B X:27 Y:00 P:25 SP:F9 CYC: 66 SL:207
15:25:25: E11E  20 25 E1  JSR $E125                      A:7B X:27 Y:00 P:25 SP:F9 CYC: 75 SL:207
15:25:25: E125  48        PHA                            A:7B X:27 Y:00 P:25 SP:F7 CYC: 93 SL:207
15:25:25: E126  A9 00     LDA #$00                       A:7B X:27 Y:00 P:25 SP:F6 CYC:102 SL:207
15:25:25: E128  8D 06 20  STA $2006 = 00                 A:00 X:27 Y:00 P:27 SP:F6 CYC:108 SL:207
15:25:25: E12B  8D 06 20  STA $2006 = 00                 A:00 X:27 Y:00 P:27 SP:F6 CYC:120 SL:207
15:25:25: E12E  A9 10     LDA #$10                       A:00 X:27 Y:00 P:27 SP:F6 CYC:132 SL:207
15:25:25: E130  8D 06 20  STA $2006 = 00                 A:10 X:27 Y:00 P:25 SP:F6 CYC:138 SL:207
15:25:25: E133  8D 06 20  STA $2006 = 00                 A:10 X:27 Y:00 P:25 SP:F6 CYC:150 SL:207
15:25:25: E136  A9 00     LDA #$00                       A:10 X:27 Y:00 P:25 SP:F6 CYC:162 SL:207
15:25:25: E138  8D 06 20  STA $2006 = 00                 A:00 X:27 Y:00 P:27 SP:F6 CYC:168 SL:207
15:25:25: E13B  8D 06 20  STA $2006 = 00                 A:00 X:27 Y:00 P:27 SP:F6 CYC:180 SL:207
15:25:25: E13E  68        PLA                            A:00 X:27 Y:00 P:27 SP:F6 CYC:192 SL:207
15:25:25: E13F  60        RTS                            A:7B X:27 Y:00 P:25 SP:F7 CYC:204 SL:207
15:25:25: E121  CA        DEX                            A:7B X:27 Y:00 P:25 SP:F9 CYC:222 SL:207
15:25:25: E122  D0 FA     BNE $E11E                      A:7B X:26 Y:00 P:25 SP:F9 CYC:228 SL:207
15:25:25: E11E  20 25 E1  JSR $E125                      A:7B X:26 Y:00 P:25 SP:F9 CYC:237 SL:207
15:25:25: E125  48        PHA                            A:7B X:26 Y:00 P:25 SP:F7 CYC:255 SL:207
15:25:25: E126  A9 00     LDA #$00                       A:7B X:26 Y:00 P:25 SP:F6 CYC:264 SL:207
15:25:25: E128  8D 06 20  STA $2006 = 00                 A:00 X:26 Y:00 P:27 SP:F6 CYC:270 SL:207
15:25:25: E12B  8D 06 20  STA $2006 = 00                 A:00 X:26 Y:00 P:27 SP:F6 CYC:282 SL:207
15:25:25: E12E  A9 10     LDA #$10                       A:00 X:26 Y:00 P:27 SP:F6 CYC:294 SL:207
15:25:25: E130  8D 06 20  STA $2006 = 00                 A:10 X:26 Y:00 P:25 SP:F6 CYC:300 SL:207
15:25:25: E133  8D 06 20  STA $2006 = 00                 A:10 X:26 Y:00 P:25 SP:F6 CYC:312 SL:207
15:25:25: E136  A9 00     LDA #$00                       A:10 X:26 Y:00 P:25 SP:F6 CYC:324 SL:207
15:25:25: E138  8D 06 20  STA $2006 = 00                 A:00 X:26 Y:00 P:27 SP:F6 CYC:330 SL:207
15:25:25: E13B  8D 06 20  STA $2006 = 00                 A:00 X:26 Y:00 P:27 SP:F6 CYC:  1 SL:208
15:25:25: E13E  68        PLA                            A:00 X:26 Y:00 P:27 SP:F6 CYC: 13 SL:208
15:25:25: E13F  60        RTS                            A:7B X:26 Y:00 P:25 SP:F7 CYC: 25 SL:208
15:25:25: E121  CA        DEX                            A:7B X:26 Y:00 P:25 SP:F9 CYC: 43 SL:208
15:25:25: E122  D0 FA     BNE $E11E                      A:7B X:25 Y:00 P:25 SP:F9 CYC: 49 SL:208
15:25:25: E11E  20 25 E1  JSR $E125                      A:7B X:25 Y:00 P:25 SP:F9 CYC: 58 SL:208
15:25:25: E125  48        PHA                            A:7B X:25 Y:00 P:25 SP:F7 CYC: 76 SL:208
15:25:25: E126  A9 00     LDA #$00                       A:7B X:25 Y:00 P:25 SP:F6 CYC: 85 SL:208
15:25:25: E128  8D 06 20  STA $2006 = 00                 A:00 X:25 Y:00 P:27 SP:F6 CYC: 91 SL:208
15:25:25: E12B  8D 06 20  STA $2006 = 00                 A:00 X:25 Y:00 P:27 SP:F6 CYC:103 SL:208
15:25:25: E12E  A9 10     LDA #$10                       A:00 X:25 Y:00 P:27 SP:F6 CYC:115 SL:208
15:25:25: E130  8D 06 20  STA $2006 = 00                 A:10 X:25 Y:00 P:25 SP:F6 CYC:121 SL:208
15:25:25: E133  8D 06 20  STA $2006 = 00                 A:10 X:25 Y:00 P:25 SP:F6 CYC:133 SL:208
15:25:25: E136  A9 00     LDA #$00                       A:10 X:25 Y:00 P:25 SP:F6 CYC:145 SL:208
15:25:25: E138  8D 06 20  STA $2006 = 00                 A:00 X:25 Y:00 P:27 SP:F6 CYC:151 SL:208
15:25:25: E13B  8D 06 20  STA $2006 = 00                 A:00 X:25 Y:00 P:27 SP:F6 CYC:163 SL:208
15:25:25: E13E  68        PLA                            A:00 X:25 Y:00 P:27 SP:F6 CYC:175 SL:208
15:25:25: E13F  60        RTS                            A:7B X:25 Y:00 P:25 SP:F7 CYC:187 SL:208
15:25:25: E121  CA        DEX                            A:7B X:25 Y:00 P:25 SP:F9 CYC:205 SL:208
15:25:25: E122  D0 FA     BNE $E11E                      A:7B X:24 Y:00 P:25 SP:F9 CYC:211 SL:208
15:25:25: E11E  20 25 E1  JSR $E125                      A:7B X:24 Y:00 P:25 SP:F9 CYC:220 SL:208
15:25:25: E125  48        PHA                            A:7B X:24 Y:00 P:25 SP:F7 CYC:238 SL:208
15:25:25: E126  A9 00     LDA #$00                       A:7B X:24 Y:00 P:25 SP:F6 CYC:247 SL:208
15:25:25: E128  8D 06 20  STA $2006 = 00                 A:00 X:24 Y:00 P:27 SP:F6 CYC:253 SL:208
15:25:25: E12B  8D 06 20  STA $2006 = 00                 A:00 X:24 Y:00 P:27 SP:F6 CYC:265 SL:208
15:25:25: E12E  A9 10     LDA #$10                       A:00 X:24 Y:00 P:27 SP:F6 CYC:277 SL:208
15:25:25: E130  8D 06 20  STA $2006 = 00                 A:10 X:24 Y:00 P:25 SP:F6 CYC:283 SL:208
15:25:25: E133  8D 06 20  STA $2006 = 00                 A:10 X:24 Y:00 P:25 SP:F6 CYC:295 SL:208
15:25:25: E136  A9 00     LDA #$00                       A:10 X:24 Y:00 P:25 SP:F6 CYC:307 SL:208
15:25:25: E138  8D 06 20  STA $2006 = 00                 A:00 X:24 Y:00 P:27 SP:F6 CYC:313 SL:208
15:25:25: E13B  8D 06 20  STA $2006 = 00                 A:00 X:24 Y:00 P:27 SP:F6 CYC:325 SL:208
15:25:25: E13E  68        PLA                            A:00 X:24 Y:00 P:27 SP:F6 CYC:337 SL:208
15:25:25: E13F  60        RTS                            A:7B X:24 Y:00 P:25 SP:F7 CYC:  8 SL:209
15:25:25: E121  CA        DEX                            A:7B X:24 Y:00 P:25 SP:F9 CYC: 26 SL:209
15:25:25: E122  D0 FA     BNE $E11E                      A:7B X:23 Y:00 P:25 SP:F9 CYC: 32 SL:209
15:25:25: E11E  20 25 E1  JSR $E125                      A:7B X:23 Y:00 P:25 SP:F9 CYC: 41 SL:209
15:25:25: E125  48        PHA                            A:7B X:23 Y:00 P:25 SP:F7 CYC: 59 SL:209
15:25:25: E126  A9 00     LDA #$00                       A:7B X:23 Y:00 P:25 SP:F6 CYC: 68 SL:209
15:25:25: E128  8D 06 20  STA $2006 = 00                 A:00 X:23 Y:00 P:27 SP:F6 CYC: 74 SL:209
15:25:25: E12B  8D 06 20  STA $2006 = 00                 A:00 X:23 Y:00 P:27 SP:F6 CYC: 86 SL:209
15:25:25: E12E  A9 10     LDA #$10                       A:00 X:23 Y:00 P:27 SP:F6 CYC: 98 SL:209
15:25:25: E130  8D 06 20  STA $2006 = 00                 A:10 X:23 Y:00 P:25 SP:F6 CYC:104 SL:209
15:25:25: E133  8D 06 20  STA $2006 = 00                 A:10 X:23 Y:00 P:25 SP:F6 CYC:116 SL:209
15:25:25: E136  A9 00     LDA #$00                       A:10 X:23 Y:00 P:25 SP:F6 CYC:128 SL:209
15:25:25: E138  8D 06 20  STA $2006 = 00                 A:00 X:23 Y:00 P:27 SP:F6 CYC:134 SL:209
15:25:25: E13B  8D 06 20  STA $2006 = 00                 A:00 X:23 Y:00 P:27 SP:F6 CYC:146 SL:209
15:25:25: E13E  68        PLA                            A:00 X:23 Y:00 P:27 SP:F6 CYC:158 SL:209
15:25:25: E13F  60        RTS                            A:7B X:23 Y:00 P:25 SP:F7 CYC:170 SL:209
15:25:25: E121  CA        DEX                            A:7B X:23 Y:00 P:25 SP:F9 CYC:188 SL:209
15:25:25: E122  D0 FA     BNE $E11E                      A:7B X:22 Y:00 P:25 SP:F9 CYC:194 SL:209
15:25:25: E11E  20 25 E1  JSR $E125                      A:7B X:22 Y:00 P:25 SP:F9 CYC:203 SL:209
15:25:25: E125  48        PHA                            A:7B X:22 Y:00 P:25 SP:F7 CYC:221 SL:209
15:25:25: E126  A9 00     LDA #$00                       A:7B X:22 Y:00 P:25 SP:F6 CYC:230 SL:209
15:25:25: E128  8D 06 20  STA $2006 = 00                 A:00 X:22 Y:00 P:27 SP:F6 CYC:236 SL:209
15:25:25: E12B  8D 06 20  STA $2006 = 00                 A:00 X:22 Y:00 P:27 SP:F6 CYC:248 SL:209
15:25:25: E12E  A9 10     LDA #$10                       A:00 X:22 Y:00 P:27 SP:F6 CYC:260 SL:209
15:25:25: E130  8D 06 20  STA $2006 = 00                 A:10 X:22 Y:00 P:25 SP:F6 CYC:266 SL:209
15:25:25: E133  8D 06 20  STA $2006 = 00                 A:10 X:22 Y:00 P:25 SP:F6 CYC:278 SL:209
15:25:25: E136  A9 00     LDA #$00                       A:10 X:22 Y:00 P:25 SP:F6 CYC:290 SL:209
15:25:25: E138  8D 06 20  STA $2006 = 00                 A:00 X:22 Y:00 P:27 SP:F6 CYC:296 SL:209
15:25:25: E13B  8D 06 20  STA $2006 = 00                 A:00 X:22 Y:00 P:27 SP:F6 CYC:308 SL:209
15:25:25: E13E  68        PLA                            A:00 X:22 Y:00 P:27 SP:F6 CYC:320 SL:209
15:25:25: E13F  60        RTS                            A:7B X:22 Y:00 P:25 SP:F7 CYC:332 SL:209
15:25:25: E121  CA        DEX                            A:7B X:22 Y:00 P:25 SP:F9 CYC:  9 SL:210
15:25:25: E122  D0 FA     BNE $E11E                      A:7B X:21 Y:00 P:25 SP:F9 CYC: 15 SL:210
15:25:25: E11E  20 25 E1  JSR $E125                      A:7B X:21 Y:00 P:25 SP:F9 CYC: 24 SL:210
15:25:25: E125  48        PHA                            A:7B X:21 Y:00 P:25 SP:F7 CYC: 42 SL:210
15:25:25: E126  A9 00     LDA #$00                       A:7B X:21 Y:00 P:25 SP:F6 CYC: 51 SL:210
15:25:25: E128  8D 06 20  STA $2006 = 00                 A:00 X:21 Y:00 P:27 SP:F6 CYC: 57 SL:210
15:25:25: E12B  8D 06 20  STA $2006 = 00                 A:00 X:21 Y:00 P:27 SP:F6 CYC: 69 SL:210
15:25:25: E12E  A9 10     LDA #$10                       A:00 X:21 Y:00 P:27 SP:F6 CYC: 81 SL:210
15:25:25: E130  8D 06 20  STA $2006 = 00                 A:10 X:21 Y:00 P:25 SP:F6 CYC: 87 SL:210
15:25:25: E133  8D 06 20  STA $2006 = 00                 A:10 X:21 Y:00 P:25 SP:F6 CYC: 99 SL:210
15:25:25: E136  A9 00     LDA #$00                       A:10 X:21 Y:00 P:25 SP:F6 CYC:111 SL:210
15:25:25: E138  8D 06 20  STA $2006 = 00                 A:00 X:21 Y:00 P:27 SP:F6 CYC:117 SL:210
15:25:25: E13B  8D 06 20  STA $2006 = 00                 A:00 X:21 Y:00 P:27 SP:F6 CYC:129 SL:210
15:25:25: E13E  68        PLA                            A:00 X:21 Y:00 P:27 SP:F6 CYC:141 SL:210
15:25:25: E13F  60        RTS                            A:7B X:21 Y:00 P:25 SP:F7 CYC:153 SL:210
15:25:25: E121  CA        DEX                            A:7B X:21 Y:00 P:25 SP:F9 CYC:171 SL:210
15:25:25: E122  D0 FA     BNE $E11E                      A:7B X:20 Y:00 P:25 SP:F9 CYC:177 SL:210
15:25:25: E11E  20 25 E1  JSR $E125                      A:7B X:20 Y:00 P:25 SP:F9 CYC:186 SL:210
15:25:25: E125  48        PHA                            A:7B X:20 Y:00 P:25 SP:F7 CYC:204 SL:210
15:25:25: E126  A9 00     LDA #$00                       A:7B X:20 Y:00 P:25 SP:F6 CYC:213 SL:210
15:25:25: E128  8D 06 20  STA $2006 = 00                 A:00 X:20 Y:00 P:27 SP:F6 CYC:219 SL:210
15:25:25: E12B  8D 06 20  STA $2006 = 00                 A:00 X:20 Y:00 P:27 SP:F6 CYC:231 SL:210
15:25:25: E12E  A9 10     LDA #$10                       A:00 X:20 Y:00 P:27 SP:F6 CYC:243 SL:210
15:25:25: E130  8D 06 20  STA $2006 = 00                 A:10 X:20 Y:00 P:25 SP:F6 CYC:249 SL:210
15:25:25: E133  8D 06 20  STA $2006 = 00                 A:10 X:20 Y:00 P:25 SP:F6 CYC:261 SL:210
15:25:25: E136  A9 00     LDA #$00                       A:10 X:20 Y:00 P:25 SP:F6 CYC:273 SL:210
15:25:25: E138  8D 06 20  STA $2006 = 00                 A:00 X:20 Y:00 P:27 SP:F6 CYC:279 SL:210
15:25:25: E13B  8D 06 20  STA $2006 = 00                 A:00 X:20 Y:00 P:27 SP:F6 CYC:291 SL:210
15:25:25: E13E  68        PLA                            A:00 X:20 Y:00 P:27 SP:F6 CYC:303 SL:210
15:25:25: E13F  60        RTS                            A:7B X:20 Y:00 P:25 SP:F7 CYC:315 SL:210
15:25:25: E121  CA        DEX                            A:7B X:20 Y:00 P:25 SP:F9 CYC:333 SL:210
15:25:25: E122  D0 FA     BNE $E11E                      A:7B X:1F Y:00 P:25 SP:F9 CYC:339 SL:210
15:25:25: E11E  20 25 E1  JSR $E125                      A:7B X:1F Y:00 P:25 SP:F9 CYC:  7 SL:211
15:25:25: E125  48        PHA                            A:7B X:1F Y:00 P:25 SP:F7 CYC: 25 SL:211
15:25:25: E126  A9 00     LDA #$00                       A:7B X:1F Y:00 P:25 SP:F6 CYC: 34 SL:211
15:25:25: E128  8D 06 20  STA $2006 = 00                 A:00 X:1F Y:00 P:27 SP:F6 CYC: 40 SL:211
15:25:25: E12B  8D 06 20  STA $2006 = 00                 A:00 X:1F Y:00 P:27 SP:F6 CYC: 52 SL:211
15:25:25: E12E  A9 10     LDA #$10                       A:00 X:1F Y:00 P:27 SP:F6 CYC: 64 SL:211
15:25:25: E130  8D 06 20  STA $2006 = 00                 A:10 X:1F Y:00 P:25 SP:F6 CYC: 70 SL:211
15:25:25: E133  8D 06 20  STA $2006 = 00                 A:10 X:1F Y:00 P:25 SP:F6 CYC: 82 SL:211
15:25:25: E136  A9 00     LDA #$00                       A:10 X:1F Y:00 P:25 SP:F6 CYC: 94 SL:211
15:25:25: E138  8D 06 20  STA $2006 = 00                 A:00 X:1F Y:00 P:27 SP:F6 CYC:100 SL:211
15:25:25: E13B  8D 06 20  STA $2006 = 00                 A:00 X:1F Y:00 P:27 SP:F6 CYC:112 SL:211
15:25:25: E13E  68        PLA                            A:00 X:1F Y:00 P:27 SP:F6 CYC:124 SL:211
15:25:25: E13F  60        RTS                            A:7B X:1F Y:00 P:25 SP:F7 CYC:136 SL:211
15:25:25: E121  CA        DEX                            A:7B X:1F Y:00 P:25 SP:F9 CYC:154 SL:211
15:25:25: E122  D0 FA     BNE $E11E                      A:7B X:1E Y:00 P:25 SP:F9 CYC:160 SL:211
15:25:25: E11E  20 25 E1  JSR $E125                      A:7B X:1E Y:00 P:25 SP:F9 CYC:169 SL:211
15:25:25: E125  48        PHA                            A:7B X:1E Y:00 P:25 SP:F7 CYC:187 SL:211
15:25:25: E126  A9 00     LDA #$00                       A:7B X:1E Y:00 P:25 SP:F6 CYC:196 SL:211
15:25:25: E128  8D 06 20  STA $2006 = 00                 A:00 X:1E Y:00 P:27 SP:F6 CYC:202 SL:211
15:25:25: E12B  8D 06 20  STA $2006 = 00                 A:00 X:1E Y:00 P:27 SP:F6 CYC:214 SL:211
15:25:25: E12E  A9 10     LDA #$10                       A:00 X:1E Y:00 P:27 SP:F6 CYC:226 SL:211
15:25:25: E130  8D 06 20  STA $2006 = 00                 A:10 X:1E Y:00 P:25 SP:F6 CYC:232 SL:211
15:25:25: E133  8D 06 20  STA $2006 = 00                 A:10 X:1E Y:00 P:25 SP:F6 CYC:244 SL:211
15:25:25: E136  A9 00     LDA #$00                       A:10 X:1E Y:00 P:25 SP:F6 CYC:256 SL:211
15:25:25: E138  8D 06 20  STA $2006 = 00                 A:00 X:1E Y:00 P:27 SP:F6 CYC:262 SL:211
15:25:25: E13B  8D 06 20  STA $2006 = 00                 A:00 X:1E Y:00 P:27 SP:F6 CYC:274 SL:211
15:25:25: E13E  68        PLA                            A:00 X:1E Y:00 P:27 SP:F6 CYC:286 SL:211
15:25:25: E13F  60        RTS                            A:7B X:1E Y:00 P:25 SP:F7 CYC:298 SL:211
15:25:25: E121  CA        DEX                            A:7B X:1E Y:00 P:25 SP:F9 CYC:316 SL:211
15:25:25: E122  D0 FA     BNE $E11E                      A:7B X:1D Y:00 P:25 SP:F9 CYC:322 SL:211
15:25:25: E11E  20 25 E1  JSR $E125                      A:7B X:1D Y:00 P:25 SP:F9 CYC:331 SL:211
15:25:25: E125  48        PHA                            A:7B X:1D Y:00 P:25 SP:F7 CYC:  8 SL:212
15:25:25: E126  A9 00     LDA #$00                       A:7B X:1D Y:00 P:25 SP:F6 CYC: 17 SL:212
15:25:25: E128  8D 06 20  STA $2006 = 00                 A:00 X:1D Y:00 P:27 SP:F6 CYC: 23 SL:212
15:25:25: E12B  8D 06 20  STA $2006 = 00                 A:00 X:1D Y:00 P:27 SP:F6 CYC: 35 SL:212
15:25:25: E12E  A9 10     LDA #$10                       A:00 X:1D Y:00 P:27 SP:F6 CYC: 47 SL:212
15:25:25: E130  8D 06 20  STA $2006 = 00                 A:10 X:1D Y:00 P:25 SP:F6 CYC: 53 SL:212
15:25:25: E133  8D 06 20  STA $2006 = 00                 A:10 X:1D Y:00 P:25 SP:F6 CYC: 65 SL:212
15:25:25: E136  A9 00     LDA #$00                       A:10 X:1D Y:00 P:25 SP:F6 CYC: 77 SL:212
15:25:25: E138  8D 06 20  STA $2006 = 00                 A:00 X:1D Y:00 P:27 SP:F6 CYC: 83 SL:212
15:25:25: E13B  8D 06 20  STA $2006 = 00                 A:00 X:1D Y:00 P:27 SP:F6 CYC: 95 SL:212
15:25:25: E13E  68        PLA                            A:00 X:1D Y:00 P:27 SP:F6 CYC:107 SL:212
15:25:25: E13F  60        RTS                            A:7B X:1D Y:00 P:25 SP:F7 CYC:119 SL:212
15:25:25: E121  CA        DEX                            A:7B X:1D Y:00 P:25 SP:F9 CYC:137 SL:212
15:25:25: E122  D0 FA     BNE $E11E                      A:7B X:1C Y:00 P:25 SP:F9 CYC:143 SL:212
15:25:25: E11E  20 25 E1  JSR $E125                      A:7B X:1C Y:00 P:25 SP:F9 CYC:152 SL:212
15:25:25: E125  48        PHA                            A:7B X:1C Y:00 P:25 SP:F7 CYC:170 SL:212
15:25:25: E126  A9 00     LDA #$00                       A:7B X:1C Y:00 P:25 SP:F6 CYC:179 SL:212
15:25:25: E128  8D 06 20  STA $2006 = 00                 A:00 X:1C Y:00 P:27 SP:F6 CYC:185 SL:212
15:25:25: E12B  8D 06 20  STA $2006 = 00                 A:00 X:1C Y:00 P:27 SP:F6 CYC:197 SL:212
15:25:25: E12E  A9 10     LDA #$10                       A:00 X:1C Y:00 P:27 SP:F6 CYC:209 SL:212
15:25:25: E130  8D 06 20  STA $2006 = 00                 A:10 X:1C Y:00 P:25 SP:F6 CYC:215 SL:212
15:25:25: E133  8D 06 20  STA $2006 = 00                 A:10 X:1C Y:00 P:25 SP:F6 CYC:227 SL:212
15:25:25: E136  A9 00     LDA #$00                       A:10 X:1C Y:00 P:25 SP:F6 CYC:239 SL:212
15:25:25: E138  8D 06 20  STA $2006 = 00                 A:00 X:1C Y:00 P:27 SP:F6 CYC:245 SL:212
15:25:25: E13B  8D 06 20  STA $2006 = 00                 A:00 X:1C Y:00 P:27 SP:F6 CYC:257 SL:212
15:25:25: E13E  68        PLA                            A:00 X:1C Y:00 P:27 SP:F6 CYC:269 SL:212
15:25:25: E13F  60        RTS                            A:7B X:1C Y:00 P:25 SP:F7 CYC:281 SL:212
15:25:25: E121  CA        DEX                            A:7B X:1C Y:00 P:25 SP:F9 CYC:299 SL:212
15:25:25: E122  D0 FA     BNE $E11E                      A:7B X:1B Y:00 P:25 SP:F9 CYC:305 SL:212
15:25:25: E11E  20 25 E1  JSR $E125                      A:7B X:1B Y:00 P:25 SP:F9 CYC:314 SL:212
15:25:25: E125  48        PHA                            A:7B X:1B Y:00 P:25 SP:F7 CYC:332 SL:212
15:25:25: E126  A9 00     LDA #$00                       A:7B X:1B Y:00 P:25 SP:F6 CYC:  0 SL:213
15:25:25: E128  8D 06 20  STA $2006 = 00                 A:00 X:1B Y:00 P:27 SP:F6 CYC:  6 SL:213
15:25:25: E12B  8D 06 20  STA $2006 = 00                 A:00 X:1B Y:00 P:27 SP:F6 CYC: 18 SL:213
15:25:25: E12E  A9 10     LDA #$10                       A:00 X:1B Y:00 P:27 SP:F6 CYC: 30 SL:213
15:25:25: E130  8D 06 20  STA $2006 = 00                 A:10 X:1B Y:00 P:25 SP:F6 CYC: 36 SL:213
15:25:25: E133  8D 06 20  STA $2006 = 00                 A:10 X:1B Y:00 P:25 SP:F6 CYC: 48 SL:213
15:25:25: E136  A9 00     LDA #$00                       A:10 X:1B Y:00 P:25 SP:F6 CYC: 60 SL:213
15:25:25: E138  8D 06 20  STA $2006 = 00                 A:00 X:1B Y:00 P:27 SP:F6 CYC: 66 SL:213
15:25:25: E13B  8D 06 20  STA $2006 = 00                 A:00 X:1B Y:00 P:27 SP:F6 CYC: 78 SL:213
15:25:25: E13E  68        PLA                            A:00 X:1B Y:00 P:27 SP:F6 CYC: 90 SL:213
15:25:25: E13F  60        RTS                            A:7B X:1B Y:00 P:25 SP:F7 CYC:102 SL:213
15:25:25: E121  CA        DEX                            A:7B X:1B Y:00 P:25 SP:F9 CYC:120 SL:213
15:25:25: E122  D0 FA     BNE $E11E                      A:7B X:1A Y:00 P:25 SP:F9 CYC:126 SL:213
15:25:25: E11E  20 25 E1  JSR $E125                      A:7B X:1A Y:00 P:25 SP:F9 CYC:135 SL:213
15:25:25: E125  48        PHA                            A:7B X:1A Y:00 P:25 SP:F7 CYC:153 SL:213
15:25:25: E126  A9 00     LDA #$00                       A:7B X:1A Y:00 P:25 SP:F6 CYC:162 SL:213
15:25:25: E128  8D 06 20  STA $2006 = 00                 A:00 X:1A Y:00 P:27 SP:F6 CYC:168 SL:213
15:25:25: E12B  8D 06 20  STA $2006 = 00                 A:00 X:1A Y:00 P:27 SP:F6 CYC:180 SL:213
15:25:25: E12E  A9 10     LDA #$10                       A:00 X:1A Y:00 P:27 SP:F6 CYC:192 SL:213
15:25:25: E130  8D 06 20  STA $2006 = 00                 A:10 X:1A Y:00 P:25 SP:F6 CYC:198 SL:213
15:25:25: E133  8D 06 20  STA $2006 = 00                 A:10 X:1A Y:00 P:25 SP:F6 CYC:210 SL:213
15:25:25: E136  A9 00     LDA #$00                       A:10 X:1A Y:00 P:25 SP:F6 CYC:222 SL:213
15:25:25: E138  8D 06 20  STA $2006 = 00                 A:00 X:1A Y:00 P:27 SP:F6 CYC:228 SL:213
15:25:25: E13B  8D 06 20  STA $2006 = 00                 A:00 X:1A Y:00 P:27 SP:F6 CYC:240 SL:213
15:25:25: E13E  68        PLA                            A:00 X:1A Y:00 P:27 SP:F6 CYC:252 SL:213
15:25:25: E13F  60        RTS                            A:7B X:1A Y:00 P:25 SP:F7 CYC:264 SL:213
15:25:25: E121  CA        DEX                            A:7B X:1A Y:00 P:25 SP:F9 CYC:282 SL:213
15:25:25: E122  D0 FA     BNE $E11E                      A:7B X:19 Y:00 P:25 SP:F9 CYC:288 SL:213
15:25:25: E11E  20 25 E1  JSR $E125                      A:7B X:19 Y:00 P:25 SP:F9 CYC:297 SL:213
15:25:25: E125  48        PHA                            A:7B X:19 Y:00 P:25 SP:F7 CYC:315 SL:213
15:25:25: E126  A9 00     LDA #$00                       A:7B X:19 Y:00 P:25 SP:F6 CYC:324 SL:213
15:25:25: E128  8D 06 20  STA $2006 = 00                 A:00 X:19 Y:00 P:27 SP:F6 CYC:330 SL:213
15:25:25: E12B  8D 06 20  STA $2006 = 00                 A:00 X:19 Y:00 P:27 SP:F6 CYC:  1 SL:214
15:25:25: E12E  A9 10     LDA #$10                       A:00 X:19 Y:00 P:27 SP:F6 CYC: 13 SL:214
15:25:25: E130  8D 06 20  STA $2006 = 00                 A:10 X:19 Y:00 P:25 SP:F6 CYC: 19 SL:214
15:25:25: E133  8D 06 20  STA $2006 = 00                 A:10 X:19 Y:00 P:25 SP:F6 CYC: 31 SL:214
15:25:25: E136  A9 00     LDA #$00                       A:10 X:19 Y:00 P:25 SP:F6 CYC: 43 SL:214
15:25:25: E138  8D 06 20  STA $2006 = 00                 A:00 X:19 Y:00 P:27 SP:F6 CYC: 49 SL:214
15:25:25: E13B  8D 06 20  STA $2006 = 00                 A:00 X:19 Y:00 P:27 SP:F6 CYC: 61 SL:214
15:25:25: E13E  68        PLA                            A:00 X:19 Y:00 P:27 SP:F6 CYC: 73 SL:214
15:25:25: E13F  60        RTS                            A:7B X:19 Y:00 P:25 SP:F7 CYC: 85 SL:214
15:25:25: E121  CA        DEX                            A:7B X:19 Y:00 P:25 SP:F9 CYC:103 SL:214
15:25:25: E122  D0 FA     BNE $E11E                      A:7B X:18 Y:00 P:25 SP:F9 CYC:109 SL:214
15:25:25: E11E  20 25 E1  JSR $E125                      A:7B X:18 Y:00 P:25 SP:F9 CYC:118 SL:214
15:25:25: E125  48        PHA                            A:7B X:18 Y:00 P:25 SP:F7 CYC:136 SL:214
15:25:25: E126  A9 00     LDA #$00                       A:7B X:18 Y:00 P:25 SP:F6 CYC:145 SL:214
15:25:25: E128  8D 06 20  STA $2006 = 00                 A:00 X:18 Y:00 P:27 SP:F6 CYC:151 SL:214
15:25:25: E12B  8D 06 20  STA $2006 = 00                 A:00 X:18 Y:00 P:27 SP:F6 CYC:163 SL:214
15:25:25: E12E  A9 10     LDA #$10                       A:00 X:18 Y:00 P:27 SP:F6 CYC:175 SL:214
15:25:25: E130  8D 06 20  STA $2006 = 00                 A:10 X:18 Y:00 P:25 SP:F6 CYC:181 SL:214
15:25:25: E133  8D 06 20  STA $2006 = 00                 A:10 X:18 Y:00 P:25 SP:F6 CYC:193 SL:214
15:25:25: E136  A9 00     LDA #$00                       A:10 X:18 Y:00 P:25 SP:F6 CYC:205 SL:214
15:25:25: E138  8D 06 20  STA $2006 = 00                 A:00 X:18 Y:00 P:27 SP:F6 CYC:211 SL:214
15:25:25: E13B  8D 06 20  STA $2006 = 00                 A:00 X:18 Y:00 P:27 SP:F6 CYC:223 SL:214
15:25:25: E13E  68        PLA                            A:00 X:18 Y:00 P:27 SP:F6 CYC:235 SL:214
15:25:25: E13F  60        RTS                            A:7B X:18 Y:00 P:25 SP:F7 CYC:247 SL:214
15:25:25: E121  CA        DEX                            A:7B X:18 Y:00 P:25 SP:F9 CYC:265 SL:214
15:25:25: E122  D0 FA     BNE $E11E                      A:7B X:17 Y:00 P:25 SP:F9 CYC:271 SL:214
15:25:25: E11E  20 25 E1  JSR $E125                      A:7B X:17 Y:00 P:25 SP:F9 CYC:280 SL:214
15:25:25: E125  48        PHA                            A:7B X:17 Y:00 P:25 SP:F7 CYC:298 SL:214
15:25:25: E126  A9 00     LDA #$00                       A:7B X:17 Y:00 P:25 SP:F6 CYC:307 SL:214
15:25:25: E128  8D 06 20  STA $2006 = 00                 A:00 X:17 Y:00 P:27 SP:F6 CYC:313 SL:214
15:25:25: E12B  8D 06 20  STA $2006 = 00                 A:00 X:17 Y:00 P:27 SP:F6 CYC:325 SL:214
15:25:25: E12E  A9 10     LDA #$10                       A:00 X:17 Y:00 P:27 SP:F6 CYC:337 SL:214
15:25:25: E130  8D 06 20  STA $2006 = 00                 A:10 X:17 Y:00 P:25 SP:F6 CYC:  2 SL:215
15:25:25: E133  8D 06 20  STA $2006 = 00                 A:10 X:17 Y:00 P:25 SP:F6 CYC: 14 SL:215
15:25:25: E136  A9 00     LDA #$00                       A:10 X:17 Y:00 P:25 SP:F6 CYC: 26 SL:215
15:25:25: E138  8D 06 20  STA $2006 = 00                 A:00 X:17 Y:00 P:27 SP:F6 CYC: 32 SL:215
15:25:25: E13B  8D 06 20  STA $2006 = 00                 A:00 X:17 Y:00 P:27 SP:F6 CYC: 44 SL:215
15:25:25: E13E  68        PLA                            A:00 X:17 Y:00 P:27 SP:F6 CYC: 56 SL:215
15:25:25: E13F  60        RTS                            A:7B X:17 Y:00 P:25 SP:F7 CYC: 68 SL:215
15:25:25: E121  CA        DEX                            A:7B X:17 Y:00 P:25 SP:F9 CYC: 86 SL:215
15:25:25: E122  D0 FA     BNE $E11E                      A:7B X:16 Y:00 P:25 SP:F9 CYC: 92 SL:215
15:25:25: E11E  20 25 E1  JSR $E125                      A:7B X:16 Y:00 P:25 SP:F9 CYC:101 SL:215
15:25:25: E125  48        PHA                            A:7B X:16 Y:00 P:25 SP:F7 CYC:119 SL:215
15:25:25: E126  A9 00     LDA #$00                       A:7B X:16 Y:00 P:25 SP:F6 CYC:128 SL:215
15:25:25: E128  8D 06 20  STA $2006 = 00                 A:00 X:16 Y:00 P:27 SP:F6 CYC:134 SL:215
15:25:25: E12B  8D 06 20  STA $2006 = 00                 A:00 X:16 Y:00 P:27 SP:F6 CYC:146 SL:215
15:25:25: E12E  A9 10     LDA #$10                       A:00 X:16 Y:00 P:27 SP:F6 CYC:158 SL:215
15:25:25: E130  8D 06 20  STA $2006 = 00                 A:10 X:16 Y:00 P:25 SP:F6 CYC:164 SL:215
15:25:25: E133  8D 06 20  STA $2006 = 00                 A:10 X:16 Y:00 P:25 SP:F6 CYC:176 SL:215
15:25:25: E136  A9 00     LDA #$00                       A:10 X:16 Y:00 P:25 SP:F6 CYC:188 SL:215
15:25:25: E138  8D 06 20  STA $2006 = 00                 A:00 X:16 Y:00 P:27 SP:F6 CYC:194 SL:215
15:25:25: E13B  8D 06 20  STA $2006 = 00                 A:00 X:16 Y:00 P:27 SP:F6 CYC:206 SL:215
15:25:25: E13E  68        PLA                            A:00 X:16 Y:00 P:27 SP:F6 CYC:218 SL:215
15:25:25: E13F  60        RTS                            A:7B X:16 Y:00 P:25 SP:F7 CYC:230 SL:215
15:25:25: E121  CA        DEX                            A:7B X:16 Y:00 P:25 SP:F9 CYC:248 SL:215
15:25:25: E122  D0 FA     BNE $E11E                      A:7B X:15 Y:00 P:25 SP:F9 CYC:254 SL:215
15:25:25: E11E  20 25 E1  JSR $E125                      A:7B X:15 Y:00 P:25 SP:F9 CYC:263 SL:215
15:25:25: E125  48        PHA                            A:7B X:15 Y:00 P:25 SP:F7 CYC:281 SL:215
15:25:25: E126  A9 00     LDA #$00                       A:7B X:15 Y:00 P:25 SP:F6 CYC:290 SL:215
15:25:25: E128  8D 06 20  STA $2006 = 00                 A:00 X:15 Y:00 P:27 SP:F6 CYC:296 SL:215
15:25:25: E12B  8D 06 20  STA $2006 = 00                 A:00 X:15 Y:00 P:27 SP:F6 CYC:308 SL:215
15:25:25: E12E  A9 10     LDA #$10                       A:00 X:15 Y:00 P:27 SP:F6 CYC:320 SL:215
15:25:25: E130  8D 06 20  STA $2006 = 00                 A:10 X:15 Y:00 P:25 SP:F6 CYC:326 SL:215
15:25:25: E133  8D 06 20  STA $2006 = 00                 A:10 X:15 Y:00 P:25 SP:F6 CYC:338 SL:215
15:25:25: E136  A9 00     LDA #$00                       A:10 X:15 Y:00 P:25 SP:F6 CYC:  9 SL:216
15:25:25: E138  8D 06 20  STA $2006 = 00                 A:00 X:15 Y:00 P:27 SP:F6 CYC: 15 SL:216
15:25:25: E13B  8D 06 20  STA $2006 = 00                 A:00 X:15 Y:00 P:27 SP:F6 CYC: 27 SL:216
15:25:25: E13E  68        PLA                            A:00 X:15 Y:00 P:27 SP:F6 CYC: 39 SL:216
15:25:25: E13F  60        RTS                            A:7B X:15 Y:00 P:25 SP:F7 CYC: 51 SL:216
15:25:25: E121  CA        DEX                            A:7B X:15 Y:00 P:25 SP:F9 CYC: 69 SL:216
15:25:25: E122  D0 FA     BNE $E11E                      A:7B X:14 Y:00 P:25 SP:F9 CYC: 75 SL:216
15:25:25: E11E  20 25 E1  JSR $E125                      A:7B X:14 Y:00 P:25 SP:F9 CYC: 84 SL:216
15:25:25: E125  48        PHA                            A:7B X:14 Y:00 P:25 SP:F7 CYC:102 SL:216
15:25:25: E126  A9 00     LDA #$00                       A:7B X:14 Y:00 P:25 SP:F6 CYC:111 SL:216
15:25:25: E128  8D 06 20  STA $2006 = 00                 A:00 X:14 Y:00 P:27 SP:F6 CYC:117 SL:216
15:25:25: E12B  8D 06 20  STA $2006 = 00                 A:00 X:14 Y:00 P:27 SP:F6 CYC:129 SL:216
15:25:25: E12E  A9 10     LDA #$10                       A:00 X:14 Y:00 P:27 SP:F6 CYC:141 SL:216
15:25:25: E130  8D 06 20  STA $2006 = 00                 A:10 X:14 Y:00 P:25 SP:F6 CYC:147 SL:216
15:25:25: E133  8D 06 20  STA $2006 = 00                 A:10 X:14 Y:00 P:25 SP:F6 CYC:159 SL:216
15:25:25: E136  A9 00     LDA #$00                       A:10 X:14 Y:00 P:25 SP:F6 CYC:171 SL:216
15:25:25: E138  8D 06 20  STA $2006 = 00                 A:00 X:14 Y:00 P:27 SP:F6 CYC:177 SL:216
15:25:25: E13B  8D 06 20  STA $2006 = 00                 A:00 X:14 Y:00 P:27 SP:F6 CYC:189 SL:216
15:25:25: E13E  68        PLA                            A:00 X:14 Y:00 P:27 SP:F6 CYC:201 SL:216
15:25:26: E13F  60        RTS                            A:7B X:14 Y:00 P:25 SP:F7 CYC:213 SL:216
15:25:26: E121  CA        DEX                            A:7B X:14 Y:00 P:25 SP:F9 CYC:231 SL:216
15:25:26: E122  D0 FA     BNE $E11E                      A:7B X:13 Y:00 P:25 SP:F9 CYC:237 SL:216
15:25:26: E11E  20 25 E1  JSR $E125                      A:7B X:13 Y:00 P:25 SP:F9 CYC:246 SL:216
15:25:26: E125  48        PHA                            A:7B X:13 Y:00 P:25 SP:F7 CYC:264 SL:216
15:25:26: E126  A9 00     LDA #$00                       A:7B X:13 Y:00 P:25 SP:F6 CYC:273 SL:216
15:25:26: E128  8D 06 20  STA $2006 = 00                 A:00 X:13 Y:00 P:27 SP:F6 CYC:279 SL:216
15:25:26: E12B  8D 06 20  STA $2006 = 00                 A:00 X:13 Y:00 P:27 SP:F6 CYC:291 SL:216
15:25:26: E12E  A9 10     LDA #$10                       A:00 X:13 Y:00 P:27 SP:F6 CYC:303 SL:216
15:25:26: E130  8D 06 20  STA $2006 = 00                 A:10 X:13 Y:00 P:25 SP:F6 CYC:309 SL:216
15:25:26: E133  8D 06 20  STA $2006 = 00                 A:10 X:13 Y:00 P:25 SP:F6 CYC:321 SL:216
15:25:26: E136  A9 00     LDA #$00                       A:10 X:13 Y:00 P:25 SP:F6 CYC:333 SL:216
15:25:26: E138  8D 06 20  STA $2006 = 00                 A:00 X:13 Y:00 P:27 SP:F6 CYC:339 SL:216
15:25:26: E13B  8D 06 20  STA $2006 = 00                 A:00 X:13 Y:00 P:27 SP:F6 CYC: 10 SL:217
15:25:26: E13E  68        PLA                            A:00 X:13 Y:00 P:27 SP:F6 CYC: 22 SL:217
15:25:26: E13F  60        RTS                            A:7B X:13 Y:00 P:25 SP:F7 CYC: 34 SL:217
15:25:26: E121  CA        DEX                            A:7B X:13 Y:00 P:25 SP:F9 CYC: 52 SL:217
15:25:26: E122  D0 FA     BNE $E11E                      A:7B X:12 Y:00 P:25 SP:F9 CYC: 58 SL:217
15:25:26: E11E  20 25 E1  JSR $E125                      A:7B X:12 Y:00 P:25 SP:F9 CYC: 67 SL:217
15:25:26: E125  48        PHA                            A:7B X:12 Y:00 P:25 SP:F7 CYC: 85 SL:217
15:25:26: E126  A9 00     LDA #$00                       A:7B X:12 Y:00 P:25 SP:F6 CYC: 94 SL:217
15:25:26: E128  8D 06 20  STA $2006 = 00                 A:00 X:12 Y:00 P:27 SP:F6 CYC:100 SL:217
15:25:26: E12B  8D 06 20  STA $2006 = 00                 A:00 X:12 Y:00 P:27 SP:F6 CYC:112 SL:217
15:25:26: E12E  A9 10     LDA #$10                       A:00 X:12 Y:00 P:27 SP:F6 CYC:124 SL:217
15:25:26: E130  8D 06 20  STA $2006 = 00                 A:10 X:12 Y:00 P:25 SP:F6 CYC:130 SL:217
15:25:26: E133  8D 06 20  STA $2006 = 00                 A:10 X:12 Y:00 P:25 SP:F6 CYC:142 SL:217
15:25:26: E136  A9 00     LDA #$00                       A:10 X:12 Y:00 P:25 SP:F6 CYC:154 SL:217
15:25:26: E138  8D 06 20  STA $2006 = 00                 A:00 X:12 Y:00 P:27 SP:F6 CYC:160 SL:217
15:25:26: E13B  8D 06 20  STA $2006 = 00                 A:00 X:12 Y:00 P:27 SP:F6 CYC:172 SL:217
15:25:26: E13E  68        PLA                            A:00 X:12 Y:00 P:27 SP:F6 CYC:184 SL:217
15:25:26: E13F  60        RTS                            A:7B X:12 Y:00 P:25 SP:F7 CYC:196 SL:217
15:25:26: E121  CA        DEX                            A:7B X:12 Y:00 P:25 SP:F9 CYC:214 SL:217
15:25:26: E122  D0 FA     BNE $E11E                      A:7B X:11 Y:00 P:25 SP:F9 CYC:220 SL:217
15:25:26: E11E  20 25 E1  JSR $E125                      A:7B X:11 Y:00 P:25 SP:F9 CYC:229 SL:217
15:25:26: E125  48        PHA                            A:7B X:11 Y:00 P:25 SP:F7 CYC:247 SL:217
15:25:26: E126  A9 00     LDA #$00                       A:7B X:11 Y:00 P:25 SP:F6 CYC:256 SL:217
15:25:26: E128  8D 06 20  STA $2006 = 00                 A:00 X:11 Y:00 P:27 SP:F6 CYC:262 SL:217
15:25:26: E12B  8D 06 20  STA $2006 = 00                 A:00 X:11 Y:00 P:27 SP:F6 CYC:274 SL:217
15:25:26: E12E  A9 10     LDA #$10                       A:00 X:11 Y:00 P:27 SP:F6 CYC:286 SL:217
15:25:26: E130  8D 06 20  STA $2006 = 00                 A:10 X:11 Y:00 P:25 SP:F6 CYC:292 SL:217
15:25:26: E133  8D 06 20  STA $2006 = 00                 A:10 X:11 Y:00 P:25 SP:F6 CYC:304 SL:217
15:25:26: E136  A9 00     LDA #$00                       A:10 X:11 Y:00 P:25 SP:F6 CYC:316 SL:217
15:25:26: E138  8D 06 20  STA $2006 = 00                 A:00 X:11 Y:00 P:27 SP:F6 CYC:322 SL:217
15:25:26: E13B  8D 06 20  STA $2006 = 00                 A:00 X:11 Y:00 P:27 SP:F6 CYC:334 SL:217
15:25:26: E13E  68        PLA                            A:00 X:11 Y:00 P:27 SP:F6 CYC:  5 SL:218
15:25:26: E13F  60        RTS                            A:7B X:11 Y:00 P:25 SP:F7 CYC: 17 SL:218
15:25:26: E121  CA        DEX                            A:7B X:11 Y:00 P:25 SP:F9 CYC: 35 SL:218
15:25:26: E122  D0 FA     BNE $E11E                      A:7B X:10 Y:00 P:25 SP:F9 CYC: 41 SL:218
15:25:26: E11E  20 25 E1  JSR $E125                      A:7B X:10 Y:00 P:25 SP:F9 CYC: 50 SL:218
15:25:26: E125  48        PHA                            A:7B X:10 Y:00 P:25 SP:F7 CYC: 68 SL:218
15:25:26: E126  A9 00     LDA #$00                       A:7B X:10 Y:00 P:25 SP:F6 CYC: 77 SL:218
15:25:26: E128  8D 06 20  STA $2006 = 00                 A:00 X:10 Y:00 P:27 SP:F6 CYC: 83 SL:218
15:25:26: E12B  8D 06 20  STA $2006 = 00                 A:00 X:10 Y:00 P:27 SP:F6 CYC: 95 SL:218
15:25:26: E12E  A9 10     LDA #$10                       A:00 X:10 Y:00 P:27 SP:F6 CYC:107 SL:218
15:25:26: E130  8D 06 20  STA $2006 = 00                 A:10 X:10 Y:00 P:25 SP:F6 CYC:113 SL:218
15:25:26: E133  8D 06 20  STA $2006 = 00                 A:10 X:10 Y:00 P:25 SP:F6 CYC:125 SL:218
15:25:26: E136  A9 00     LDA #$00                       A:10 X:10 Y:00 P:25 SP:F6 CYC:137 SL:218
15:25:26: E138  8D 06 20  STA $2006 = 00                 A:00 X:10 Y:00 P:27 SP:F6 CYC:143 SL:218
15:25:26: E13B  8D 06 20  STA $2006 = 00                 A:00 X:10 Y:00 P:27 SP:F6 CYC:155 SL:218
15:25:26: E13E  68        PLA                            A:00 X:10 Y:00 P:27 SP:F6 CYC:167 SL:218
15:25:26: E13F  60        RTS                            A:7B X:10 Y:00 P:25 SP:F7 CYC:179 SL:218
15:25:26: E121  CA        DEX                            A:7B X:10 Y:00 P:25 SP:F9 CYC:197 SL:218
15:25:26: E122  D0 FA     BNE $E11E                      A:7B X:0F Y:00 P:25 SP:F9 CYC:203 SL:218
15:25:26: E11E  20 25 E1  JSR $E125                      A:7B X:0F Y:00 P:25 SP:F9 CYC:212 SL:218
15:25:26: E125  48        PHA                            A:7B X:0F Y:00 P:25 SP:F7 CYC:230 SL:218
15:25:26: E126  A9 00     LDA #$00                       A:7B X:0F Y:00 P:25 SP:F6 CYC:239 SL:218
15:25:26: E128  8D 06 20  STA $2006 = 00                 A:00 X:0F Y:00 P:27 SP:F6 CYC:245 SL:218
15:25:26: E12B  8D 06 20  STA $2006 = 00                 A:00 X:0F Y:00 P:27 SP:F6 CYC:257 SL:218
15:25:26: E12E  A9 10     LDA #$10                       A:00 X:0F Y:00 P:27 SP:F6 CYC:269 SL:218
15:25:26: E130  8D 06 20  STA $2006 = 00                 A:10 X:0F Y:00 P:25 SP:F6 CYC:275 SL:218
15:25:26: E133  8D 06 20  STA $2006 = 00                 A:10 X:0F Y:00 P:25 SP:F6 CYC:287 SL:218
15:25:26: E136  A9 00     LDA #$00                       A:10 X:0F Y:00 P:25 SP:F6 CYC:299 SL:218
15:25:26: E138  8D 06 20  STA $2006 = 00                 A:00 X:0F Y:00 P:27 SP:F6 CYC:305 SL:218
15:25:26: E13B  8D 06 20  STA $2006 = 00                 A:00 X:0F Y:00 P:27 SP:F6 CYC:317 SL:218
15:25:26: E13E  68        PLA                            A:00 X:0F Y:00 P:27 SP:F6 CYC:329 SL:218
15:25:26: E13F  60        RTS                            A:7B X:0F Y:00 P:25 SP:F7 CYC:  0 SL:219
15:25:26: E121  CA        DEX                            A:7B X:0F Y:00 P:25 SP:F9 CYC: 18 SL:219
15:25:26: E122  D0 FA     BNE $E11E                      A:7B X:0E Y:00 P:25 SP:F9 CYC: 24 SL:219
15:25:26: E11E  20 25 E1  JSR $E125                      A:7B X:0E Y:00 P:25 SP:F9 CYC: 33 SL:219
15:25:26: E125  48        PHA                            A:7B X:0E Y:00 P:25 SP:F7 CYC: 51 SL:219
15:25:26: E126  A9 00     LDA #$00                       A:7B X:0E Y:00 P:25 SP:F6 CYC: 60 SL:219
15:25:26: E128  8D 06 20  STA $2006 = 00                 A:00 X:0E Y:00 P:27 SP:F6 CYC: 66 SL:219
15:25:26: E12B  8D 06 20  STA $2006 = 00                 A:00 X:0E Y:00 P:27 SP:F6 CYC: 78 SL:219
15:25:26: E12E  A9 10     LDA #$10                       A:00 X:0E Y:00 P:27 SP:F6 CYC: 90 SL:219
15:25:26: E130  8D 06 20  STA $2006 = 00                 A:10 X:0E Y:00 P:25 SP:F6 CYC: 96 SL:219
15:25:26: E133  8D 06 20  STA $2006 = 00                 A:10 X:0E Y:00 P:25 SP:F6 CYC:108 SL:219
15:25:26: E136  A9 00     LDA #$00                       A:10 X:0E Y:00 P:25 SP:F6 CYC:120 SL:219
15:25:26: E138  8D 06 20  STA $2006 = 00                 A:00 X:0E Y:00 P:27 SP:F6 CYC:126 SL:219
15:25:26: E13B  8D 06 20  STA $2006 = 00                 A:00 X:0E Y:00 P:27 SP:F6 CYC:138 SL:219
15:25:26: E13E  68        PLA                            A:00 X:0E Y:00 P:27 SP:F6 CYC:150 SL:219
15:25:26: E13F  60        RTS                            A:7B X:0E Y:00 P:25 SP:F7 CYC:162 SL:219
15:25:26: E121  CA        DEX                            A:7B X:0E Y:00 P:25 SP:F9 CYC:180 SL:219
15:25:26: E122  D0 FA     BNE $E11E                      A:7B X:0D Y:00 P:25 SP:F9 CYC:186 SL:219
15:25:26: E11E  20 25 E1  JSR $E125                      A:7B X:0D Y:00 P:25 SP:F9 CYC:195 SL:219
15:25:26: E125  48        PHA                            A:7B X:0D Y:00 P:25 SP:F7 CYC:213 SL:219
15:25:26: E126  A9 00     LDA #$00                       A:7B X:0D Y:00 P:25 SP:F6 CYC:222 SL:219
15:25:26: E128  8D 06 20  STA $2006 = 00                 A:00 X:0D Y:00 P:27 SP:F6 CYC:228 SL:219
15:25:26: E12B  8D 06 20  STA $2006 = 00                 A:00 X:0D Y:00 P:27 SP:F6 CYC:240 SL:219
15:25:26: E12E  A9 10     LDA #$10                       A:00 X:0D Y:00 P:27 SP:F6 CYC:252 SL:219
15:25:26: E130  8D 06 20  STA $2006 = 00                 A:10 X:0D Y:00 P:25 SP:F6 CYC:258 SL:219
15:25:26: E133  8D 06 20  STA $2006 = 00                 A:10 X:0D Y:00 P:25 SP:F6 CYC:270 SL:219
15:25:26: E136  A9 00     LDA #$00                       A:10 X:0D Y:00 P:25 SP:F6 CYC:282 SL:219
15:25:26: E138  8D 06 20  STA $2006 = 00                 A:00 X:0D Y:00 P:27 SP:F6 CYC:288 SL:219
15:25:26: E13B  8D 06 20  STA $2006 = 00                 A:00 X:0D Y:00 P:27 SP:F6 CYC:300 SL:219
15:25:26: E13E  68        PLA                            A:00 X:0D Y:00 P:27 SP:F6 CYC:312 SL:219
15:25:26: E13F  60        RTS                            A:7B X:0D Y:00 P:25 SP:F7 CYC:324 SL:219
15:25:26: E121  CA        DEX                            A:7B X:0D Y:00 P:25 SP:F9 CYC:  1 SL:220
15:25:26: E122  D0 FA     BNE $E11E                      A:7B X:0C Y:00 P:25 SP:F9 CYC:  7 SL:220
15:25:26: E11E  20 25 E1  JSR $E125                      A:7B X:0C Y:00 P:25 SP:F9 CYC: 16 SL:220
15:25:26: E125  48        PHA                            A:7B X:0C Y:00 P:25 SP:F7 CYC: 34 SL:220
15:25:26: E126  A9 00     LDA #$00                       A:7B X:0C Y:00 P:25 SP:F6 CYC: 43 SL:220
15:25:26: E128  8D 06 20  STA $2006 = 00                 A:00 X:0C Y:00 P:27 SP:F6 CYC: 49 SL:220
15:25:26: E12B  8D 06 20  STA $2006 = 00                 A:00 X:0C Y:00 P:27 SP:F6 CYC: 61 SL:220
15:25:26: E12E  A9 10     LDA #$10                       A:00 X:0C Y:00 P:27 SP:F6 CYC: 73 SL:220
15:25:26: E130  8D 06 20  STA $2006 = 00                 A:10 X:0C Y:00 P:25 SP:F6 CYC: 79 SL:220
15:25:26: E133  8D 06 20  STA $2006 = 00                 A:10 X:0C Y:00 P:25 SP:F6 CYC: 91 SL:220
15:25:26: E136  A9 00     LDA #$00                       A:10 X:0C Y:00 P:25 SP:F6 CYC:103 SL:220
15:25:26: E138  8D 06 20  STA $2006 = 00                 A:00 X:0C Y:00 P:27 SP:F6 CYC:109 SL:220
15:25:26: E13B  8D 06 20  STA $2006 = 00                 A:00 X:0C Y:00 P:27 SP:F6 CYC:121 SL:220
15:25:26: E13E  68        PLA                            A:00 X:0C Y:00 P:27 SP:F6 CYC:133 SL:220
15:25:26: E13F  60        RTS                            A:7B X:0C Y:00 P:25 SP:F7 CYC:145 SL:220
15:25:26: E121  CA        DEX                            A:7B X:0C Y:00 P:25 SP:F9 CYC:163 SL:220
15:25:26: E122  D0 FA     BNE $E11E                      A:7B X:0B Y:00 P:25 SP:F9 CYC:169 SL:220
15:25:26: E11E  20 25 E1  JSR $E125                      A:7B X:0B Y:00 P:25 SP:F9 CYC:178 SL:220
15:25:26: E125  48        PHA                            A:7B X:0B Y:00 P:25 SP:F7 CYC:196 SL:220
15:25:26: E126  A9 00     LDA #$00                       A:7B X:0B Y:00 P:25 SP:F6 CYC:205 SL:220
15:25:26: E128  8D 06 20  STA $2006 = 00                 A:00 X:0B Y:00 P:27 SP:F6 CYC:211 SL:220
15:25:26: E12B  8D 06 20  STA $2006 = 00                 A:00 X:0B Y:00 P:27 SP:F6 CYC:223 SL:220
15:25:26: E12E  A9 10     LDA #$10                       A:00 X:0B Y:00 P:27 SP:F6 CYC:235 SL:220
15:25:26: E130  8D 06 20  STA $2006 = 00                 A:10 X:0B Y:00 P:25 SP:F6 CYC:241 SL:220
15:25:26: E133  8D 06 20  STA $2006 = 00                 A:10 X:0B Y:00 P:25 SP:F6 CYC:253 SL:220
15:25:26: E136  A9 00     LDA #$00                       A:10 X:0B Y:00 P:25 SP:F6 CYC:265 SL:220
15:25:26: E138  8D 06 20  STA $2006 = 00                 A:00 X:0B Y:00 P:27 SP:F6 CYC:271 SL:220
15:25:26: E13B  8D 06 20  STA $2006 = 00                 A:00 X:0B Y:00 P:27 SP:F6 CYC:283 SL:220
15:25:26: E13E  68        PLA                            A:00 X:0B Y:00 P:27 SP:F6 CYC:295 SL:220
15:25:26: E13F  60        RTS                            A:7B X:0B Y:00 P:25 SP:F7 CYC:307 SL:220
15:25:26: E121  CA        DEX                            A:7B X:0B Y:00 P:25 SP:F9 CYC:325 SL:220
15:25:26: E122  D0 FA     BNE $E11E                      A:7B X:0A Y:00 P:25 SP:F9 CYC:331 SL:220
15:25:26: E11E  20 25 E1  JSR $E125                      A:7B X:0A Y:00 P:25 SP:F9 CYC:340 SL:220
15:25:26: E125  48        PHA                            A:7B X:0A Y:00 P:25 SP:F7 CYC: 17 SL:221
15:25:26: E126  A9 00     LDA #$00                       A:7B X:0A Y:00 P:25 SP:F6 CYC: 26 SL:221
15:25:26: E128  8D 06 20  STA $2006 = 00                 A:00 X:0A Y:00 P:27 SP:F6 CYC: 32 SL:221
15:25:26: E12B  8D 06 20  STA $2006 = 00                 A:00 X:0A Y:00 P:27 SP:F6 CYC: 44 SL:221
15:25:26: E12E  A9 10     LDA #$10                       A:00 X:0A Y:00 P:27 SP:F6 CYC: 56 SL:221
15:25:26: E130  8D 06 20  STA $2006 = 00                 A:10 X:0A Y:00 P:25 SP:F6 CYC: 62 SL:221
15:25:26: E133  8D 06 20  STA $2006 = 00                 A:10 X:0A Y:00 P:25 SP:F6 CYC: 74 SL:221
15:25:26: E136  A9 00     LDA #$00                       A:10 X:0A Y:00 P:25 SP:F6 CYC: 86 SL:221
15:25:26: E138  8D 06 20  STA $2006 = 00                 A:00 X:0A Y:00 P:27 SP:F6 CYC: 92 SL:221
15:25:26: E13B  8D 06 20  STA $2006 = 00                 A:00 X:0A Y:00 P:27 SP:F6 CYC:104 SL:221
15:25:26: E13E  68        PLA                            A:00 X:0A Y:00 P:27 SP:F6 CYC:116 SL:221
15:25:26: E13F  60        RTS                            A:7B X:0A Y:00 P:25 SP:F7 CYC:128 SL:221
15:25:26: E121  CA        DEX                            A:7B X:0A Y:00 P:25 SP:F9 CYC:146 SL:221
15:25:26: E122  D0 FA     BNE $E11E                      A:7B X:09 Y:00 P:25 SP:F9 CYC:152 SL:221
15:25:26: E11E  20 25 E1  JSR $E125                      A:7B X:09 Y:00 P:25 SP:F9 CYC:161 SL:221
15:25:26: E125  48        PHA                            A:7B X:09 Y:00 P:25 SP:F7 CYC:179 SL:221
15:25:26: E126  A9 00     LDA #$00                       A:7B X:09 Y:00 P:25 SP:F6 CYC:188 SL:221
15:25:26: E128  8D 06 20  STA $2006 = 00                 A:00 X:09 Y:00 P:27 SP:F6 CYC:194 SL:221
15:25:26: E12B  8D 06 20  STA $2006 = 00                 A:00 X:09 Y:00 P:27 SP:F6 CYC:206 SL:221
15:25:26: E12E  A9 10     LDA #$10                       A:00 X:09 Y:00 P:27 SP:F6 CYC:218 SL:221
15:25:26: E130  8D 06 20  STA $2006 = 00                 A:10 X:09 Y:00 P:25 SP:F6 CYC:224 SL:221
15:25:26: E133  8D 06 20  STA $2006 = 00                 A:10 X:09 Y:00 P:25 SP:F6 CYC:236 SL:221
15:25:26: E136  A9 00     LDA #$00                       A:10 X:09 Y:00 P:25 SP:F6 CYC:248 SL:221
15:25:26: E138  8D 06 20  STA $2006 = 00                 A:00 X:09 Y:00 P:27 SP:F6 CYC:254 SL:221
15:25:26: E13B  8D 06 20  STA $2006 = 00                 A:00 X:09 Y:00 P:27 SP:F6 CYC:266 SL:221
15:25:26: E13E  68        PLA                            A:00 X:09 Y:00 P:27 SP:F6 CYC:278 SL:221
15:25:26: E13F  60        RTS                            A:7B X:09 Y:00 P:25 SP:F7 CYC:290 SL:221
15:25:26: E121  CA        DEX                            A:7B X:09 Y:00 P:25 SP:F9 CYC:308 SL:221
15:25:26: E122  D0 FA     BNE $E11E                      A:7B X:08 Y:00 P:25 SP:F9 CYC:314 SL:221
15:25:26: E11E  20 25 E1  JSR $E125                      A:7B X:08 Y:00 P:25 SP:F9 CYC:323 SL:221
15:25:26: E125  48        PHA                            A:7B X:08 Y:00 P:25 SP:F7 CYC:  0 SL:222
15:25:26: E126  A9 00     LDA #$00                       A:7B X:08 Y:00 P:25 SP:F6 CYC:  9 SL:222
15:25:26: E128  8D 06 20  STA $2006 = 00                 A:00 X:08 Y:00 P:27 SP:F6 CYC: 15 SL:222
15:25:26: E12B  8D 06 20  STA $2006 = 00                 A:00 X:08 Y:00 P:27 SP:F6 CYC: 27 SL:222
15:25:26: E12E  A9 10     LDA #$10                       A:00 X:08 Y:00 P:27 SP:F6 CYC: 39 SL:222
15:25:26: E130  8D 06 20  STA $2006 = 00                 A:10 X:08 Y:00 P:25 SP:F6 CYC: 45 SL:222
15:25:26: E133  8D 06 20  STA $2006 = 00                 A:10 X:08 Y:00 P:25 SP:F6 CYC: 57 SL:222
15:25:26: E136  A9 00     LDA #$00                       A:10 X:08 Y:00 P:25 SP:F6 CYC: 69 SL:222
15:25:26: E138  8D 06 20  STA $2006 = 00                 A:00 X:08 Y:00 P:27 SP:F6 CYC: 75 SL:222
15:25:26: E13B  8D 06 20  STA $2006 = 00                 A:00 X:08 Y:00 P:27 SP:F6 CYC: 87 SL:222
15:25:26: E13E  68        PLA                            A:00 X:08 Y:00 P:27 SP:F6 CYC: 99 SL:222
15:25:26: E13F  60        RTS                            A:7B X:08 Y:00 P:25 SP:F7 CYC:111 SL:222
15:25:26: E121  CA        DEX                            A:7B X:08 Y:00 P:25 SP:F9 CYC:129 SL:222
15:25:26: E122  D0 FA     BNE $E11E                      A:7B X:07 Y:00 P:25 SP:F9 CYC:135 SL:222
15:25:26: E11E  20 25 E1  JSR $E125                      A:7B X:07 Y:00 P:25 SP:F9 CYC:144 SL:222
15:25:26: E125  48        PHA                            A:7B X:07 Y:00 P:25 SP:F7 CYC:162 SL:222
15:25:26: E126  A9 00     LDA #$00                       A:7B X:07 Y:00 P:25 SP:F6 CYC:171 SL:222
15:25:26: E128  8D 06 20  STA $2006 = 00                 A:00 X:07 Y:00 P:27 SP:F6 CYC:177 SL:222
15:25:26: E12B  8D 06 20  STA $2006 = 00                 A:00 X:07 Y:00 P:27 SP:F6 CYC:189 SL:222
15:25:26: E12E  A9 10     LDA #$10                       A:00 X:07 Y:00 P:27 SP:F6 CYC:201 SL:222
15:25:26: E130  8D 06 20  STA $2006 = 00                 A:10 X:07 Y:00 P:25 SP:F6 CYC:207 SL:222
15:25:26: E133  8D 06 20  STA $2006 = 00                 A:10 X:07 Y:00 P:25 SP:F6 CYC:219 SL:222
15:25:26: E136  A9 00     LDA #$00                       A:10 X:07 Y:00 P:25 SP:F6 CYC:231 SL:222
15:25:26: E138  8D 06 20  STA $2006 = 00                 A:00 X:07 Y:00 P:27 SP:F6 CYC:237 SL:222
15:25:26: E13B  8D 06 20  STA $2006 = 00                 A:00 X:07 Y:00 P:27 SP:F6 CYC:249 SL:222
15:25:26: E13E  68        PLA                            A:00 X:07 Y:00 P:27 SP:F6 CYC:261 SL:222
15:25:26: E13F  60        RTS                            A:7B X:07 Y:00 P:25 SP:F7 CYC:273 SL:222
15:25:26: E121  CA        DEX                            A:7B X:07 Y:00 P:25 SP:F9 CYC:291 SL:222
15:25:26: E122  D0 FA     BNE $E11E                      A:7B X:06 Y:00 P:25 SP:F9 CYC:297 SL:222
15:25:26: E11E  20 25 E1  JSR $E125                      A:7B X:06 Y:00 P:25 SP:F9 CYC:306 SL:222
15:25:26: E125  48        PHA                            A:7B X:06 Y:00 P:25 SP:F7 CYC:324 SL:222
15:25:26: E126  A9 00     LDA #$00                       A:7B X:06 Y:00 P:25 SP:F6 CYC:333 SL:222
15:25:26: E128  8D 06 20  STA $2006 = 00                 A:00 X:06 Y:00 P:27 SP:F6 CYC:339 SL:222
15:25:26: E12B  8D 06 20  STA $2006 = 00                 A:00 X:06 Y:00 P:27 SP:F6 CYC: 10 SL:223
15:25:26: E12E  A9 10     LDA #$10                       A:00 X:06 Y:00 P:27 SP:F6 CYC: 22 SL:223
15:25:26: E130  8D 06 20  STA $2006 = 00                 A:10 X:06 Y:00 P:25 SP:F6 CYC: 28 SL:223
15:25:26: E133  8D 06 20  STA $2006 = 00                 A:10 X:06 Y:00 P:25 SP:F6 CYC: 40 SL:223
15:25:26: E136  A9 00     LDA #$00                       A:10 X:06 Y:00 P:25 SP:F6 CYC: 52 SL:223
15:25:26: E138  8D 06 20  STA $2006 = 00                 A:00 X:06 Y:00 P:27 SP:F6 CYC: 58 SL:223
15:25:26: E13B  8D 06 20  STA $2006 = 00                 A:00 X:06 Y:00 P:27 SP:F6 CYC: 70 SL:223
15:25:26: E13E  68        PLA                            A:00 X:06 Y:00 P:27 SP:F6 CYC: 82 SL:223
15:25:26: E13F  60        RTS                            A:7B X:06 Y:00 P:25 SP:F7 CYC: 94 SL:223
15:25:26: E121  CA        DEX                            A:7B X:06 Y:00 P:25 SP:F9 CYC:112 SL:223
15:25:26: E122  D0 FA     BNE $E11E                      A:7B X:05 Y:00 P:25 SP:F9 CYC:118 SL:223
15:25:26: E11E  20 25 E1  JSR $E125                      A:7B X:05 Y:00 P:25 SP:F9 CYC:127 SL:223
15:25:26: E125  48        PHA                            A:7B X:05 Y:00 P:25 SP:F7 CYC:145 SL:223
15:25:26: E126  A9 00     LDA #$00                       A:7B X:05 Y:00 P:25 SP:F6 CYC:154 SL:223
15:25:26: E128  8D 06 20  STA $2006 = 00                 A:00 X:05 Y:00 P:27 SP:F6 CYC:160 SL:223
15:25:26: E12B  8D 06 20  STA $2006 = 00                 A:00 X:05 Y:00 P:27 SP:F6 CYC:172 SL:223
15:25:26: E12E  A9 10     LDA #$10                       A:00 X:05 Y:00 P:27 SP:F6 CYC:184 SL:223
15:25:26: E130  8D 06 20  STA $2006 = 00                 A:10 X:05 Y:00 P:25 SP:F6 CYC:190 SL:223
15:25:26: E133  8D 06 20  STA $2006 = 00                 A:10 X:05 Y:00 P:25 SP:F6 CYC:202 SL:223
15:25:26: E136  A9 00     LDA #$00                       A:10 X:05 Y:00 P:25 SP:F6 CYC:214 SL:223
15:25:26: E138  8D 06 20  STA $2006 = 00                 A:00 X:05 Y:00 P:27 SP:F6 CYC:220 SL:223
15:25:26: E13B  8D 06 20  STA $2006 = 00                 A:00 X:05 Y:00 P:27 SP:F6 CYC:232 SL:223
15:25:26: E13E  68        PLA                            A:00 X:05 Y:00 P:27 SP:F6 CYC:244 SL:223
15:25:26: E13F  60        RTS                            A:7B X:05 Y:00 P:25 SP:F7 CYC:256 SL:223
15:25:26: E121  CA        DEX                            A:7B X:05 Y:00 P:25 SP:F9 CYC:274 SL:223
15:25:26: E122  D0 FA     BNE $E11E                      A:7B X:04 Y:00 P:25 SP:F9 CYC:280 SL:223
15:25:26: E11E  20 25 E1  JSR $E125                      A:7B X:04 Y:00 P:25 SP:F9 CYC:289 SL:223
15:25:26: E125  48        PHA                            A:7B X:04 Y:00 P:25 SP:F7 CYC:307 SL:223
15:25:26: E126  A9 00     LDA #$00                       A:7B X:04 Y:00 P:25 SP:F6 CYC:316 SL:223
15:25:26: E128  8D 06 20  STA $2006 = 00                 A:00 X:04 Y:00 P:27 SP:F6 CYC:322 SL:223
15:25:26: E12B  8D 06 20  STA $2006 = 00                 A:00 X:04 Y:00 P:27 SP:F6 CYC:334 SL:223
15:25:26: E12E  A9 10     LDA #$10                       A:00 X:04 Y:00 P:27 SP:F6 CYC:  5 SL:224
15:25:26: E130  8D 06 20  STA $2006 = 00                 A:10 X:04 Y:00 P:25 SP:F6 CYC: 11 SL:224
15:25:26: E133  8D 06 20  STA $2006 = 00                 A:10 X:04 Y:00 P:25 SP:F6 CYC: 23 SL:224
15:25:26: E136  A9 00     LDA #$00                       A:10 X:04 Y:00 P:25 SP:F6 CYC: 35 SL:224
15:25:26: E138  8D 06 20  STA $2006 = 00                 A:00 X:04 Y:00 P:27 SP:F6 CYC: 41 SL:224
15:25:26: E13B  8D 06 20  STA $2006 = 00                 A:00 X:04 Y:00 P:27 SP:F6 CYC: 53 SL:224
15:25:26: E13E  68        PLA                            A:00 X:04 Y:00 P:27 SP:F6 CYC: 65 SL:224
15:25:26: E13F  60        RTS                            A:7B X:04 Y:00 P:25 SP:F7 CYC: 77 SL:224
15:25:26: E121  CA        DEX                            A:7B X:04 Y:00 P:25 SP:F9 CYC: 95 SL:224
15:25:26: E122  D0 FA     BNE $E11E                      A:7B X:03 Y:00 P:25 SP:F9 CYC:101 SL:224
15:25:26: E11E  20 25 E1  JSR $E125                      A:7B X:03 Y:00 P:25 SP:F9 CYC:110 SL:224
15:25:26: E125  48        PHA                            A:7B X:03 Y:00 P:25 SP:F7 CYC:128 SL:224
15:25:26: E126  A9 00     LDA #$00                       A:7B X:03 Y:00 P:25 SP:F6 CYC:137 SL:224
15:25:26: E128  8D 06 20  STA $2006 = 00                 A:00 X:03 Y:00 P:27 SP:F6 CYC:143 SL:224
15:25:26: E12B  8D 06 20  STA $2006 = 00                 A:00 X:03 Y:00 P:27 SP:F6 CYC:155 SL:224
15:25:26: E12E  A9 10     LDA #$10                       A:00 X:03 Y:00 P:27 SP:F6 CYC:167 SL:224
15:25:26: E130  8D 06 20  STA $2006 = 00                 A:10 X:03 Y:00 P:25 SP:F6 CYC:173 SL:224
15:25:26: E133  8D 06 20  STA $2006 = 00                 A:10 X:03 Y:00 P:25 SP:F6 CYC:185 SL:224
15:25:26: E136  A9 00     LDA #$00                       A:10 X:03 Y:00 P:25 SP:F6 CYC:197 SL:224
15:25:26: E138  8D 06 20  STA $2006 = 00                 A:00 X:03 Y:00 P:27 SP:F6 CYC:203 SL:224
15:25:26: E13B  8D 06 20  STA $2006 = 00                 A:00 X:03 Y:00 P:27 SP:F6 CYC:215 SL:224
15:25:26: E13E  68        PLA                            A:00 X:03 Y:00 P:27 SP:F6 CYC:227 SL:224
15:25:26: E13F  60        RTS                            A:7B X:03 Y:00 P:25 SP:F7 CYC:239 SL:224
15:25:26: E121  CA        DEX                            A:7B X:03 Y:00 P:25 SP:F9 CYC:257 SL:224
15:25:26: E122  D0 FA     BNE $E11E                      A:7B X:02 Y:00 P:25 SP:F9 CYC:263 SL:224
15:25:26: E11E  20 25 E1  JSR $E125                      A:7B X:02 Y:00 P:25 SP:F9 CYC:272 SL:224
15:25:26: E125  48        PHA                            A:7B X:02 Y:00 P:25 SP:F7 CYC:290 SL:224
15:25:26: E126  A9 00     LDA #$00                       A:7B X:02 Y:00 P:25 SP:F6 CYC:299 SL:224
15:25:26: E128  8D 06 20  STA $2006 = 00                 A:00 X:02 Y:00 P:27 SP:F6 CYC:305 SL:224
15:25:26: E12B  8D 06 20  STA $2006 = 00                 A:00 X:02 Y:00 P:27 SP:F6 CYC:317 SL:224
15:25:26: E12E  A9 10     LDA #$10                       A:00 X:02 Y:00 P:27 SP:F6 CYC:329 SL:224
15:25:26: E130  8D 06 20  STA $2006 = 00                 A:10 X:02 Y:00 P:25 SP:F6 CYC:335 SL:224
15:25:26: E133  8D 06 20  STA $2006 = 00                 A:10 X:02 Y:00 P:25 SP:F6 CYC:  6 SL:225
15:25:26: E136  A9 00     LDA #$00                       A:10 X:02 Y:00 P:25 SP:F6 CYC: 18 SL:225
15:25:26: E138  8D 06 20  STA $2006 = 00                 A:00 X:02 Y:00 P:27 SP:F6 CYC: 24 SL:225
15:25:26: E13B  8D 06 20  STA $2006 = 00                 A:00 X:02 Y:00 P:27 SP:F6 CYC: 36 SL:225
15:25:26: E13E  68        PLA                            A:00 X:02 Y:00 P:27 SP:F6 CYC: 48 SL:225
15:25:26: E13F  60        RTS                            A:7B X:02 Y:00 P:25 SP:F7 CYC: 60 SL:225
15:25:26: E121  CA        DEX                            A:7B X:02 Y:00 P:25 SP:F9 CYC: 78 SL:225
15:25:26: E122  D0 FA     BNE $E11E                      A:7B X:01 Y:00 P:25 SP:F9 CYC: 84 SL:225
15:25:26: E11E  20 25 E1  JSR $E125                      A:7B X:01 Y:00 P:25 SP:F9 CYC: 93 SL:225
15:25:26: E125  48        PHA                            A:7B X:01 Y:00 P:25 SP:F7 CYC:111 SL:225
15:25:26: E126  A9 00     LDA #$00                       A:7B X:01 Y:00 P:25 SP:F6 CYC:120 SL:225
15:25:26: E128  8D 06 20  STA $2006 = 00                 A:00 X:01 Y:00 P:27 SP:F6 CYC:126 SL:225
15:25:26: E12B  8D 06 20  STA $2006 = 00                 A:00 X:01 Y:00 P:27 SP:F6 CYC:138 SL:225
15:25:26: E12E  A9 10     LDA #$10                       A:00 X:01 Y:00 P:27 SP:F6 CYC:150 SL:225
15:25:26: E130  8D 06 20  STA $2006 = 00                 A:10 X:01 Y:00 P:25 SP:F6 CYC:156 SL:225
15:25:26: E133  8D 06 20  STA $2006 = 00                 A:10 X:01 Y:00 P:25 SP:F6 CYC:168 SL:225
15:25:26: E136  A9 00     LDA #$00                       A:10 X:01 Y:00 P:25 SP:F6 CYC:180 SL:225
15:25:26: E138  8D 06 20  STA $2006 = 00                 A:00 X:01 Y:00 P:27 SP:F6 CYC:186 SL:225
15:25:26: E13B  8D 06 20  STA $2006 = 00                 A:00 X:01 Y:00 P:27 SP:F6 CYC:198 SL:225
15:25:26: E13E  68        PLA                            A:00 X:01 Y:00 P:27 SP:F6 CYC:210 SL:225
15:25:26: E13F  60        RTS                            A:7B X:01 Y:00 P:25 SP:F7 CYC:222 SL:225
15:25:26: E121  CA        DEX                            A:7B X:01 Y:00 P:25 SP:F9 CYC:240 SL:225
15:25:26: E122  D0 FA     BNE $E11E                      A:7B X:00 Y:00 P:27 SP:F9 CYC:246 SL:225
15:25:26: E124  60        RTS                            A:7B X:00 Y:00 P:27 SP:F9 CYC:252 SL:225
15:25:26: E0FE  20 13 E1  JSR $E113                      A:7B X:00 Y:00 P:27 SP:FB CYC:270 SL:225
15:25:26: E113  A9 7B     LDA #$7B                       A:7B X:00 Y:00 P:27 SP:F9 CYC:288 SL:225
15:25:26: E115  8D 00 E0  STA $E000 = 00                 A:7B X:00 Y:00 P:25 SP:F9 CYC:294 SL:225
15:25:26: Interrupts disabled on mapper
15:25:26: E118  A9 7B     LDA #$7B                       A:7B X:00 Y:00 P:25 SP:F9 CYC:306 SL:225
15:25:26: E11A  8D 01 E0  STA $E001 = 00                 A:7B X:00 Y:00 P:25 SP:F9 CYC:312 SL:225
15:25:26: Interrupts enabled on mapper
15:25:26: E11D  60        RTS                            A:7B X:00 Y:00 P:25 SP:F9 CYC:324 SL:225
15:25:26: E101  60        RTS                            A:7B X:00 Y:00 P:25 SP:FB CYC:  1 SL:226
15:25:26: E1B0  A9 02     LDA #$02                       A:7B X:00 Y:00 P:25 SP:FD CYC: 19 SL:226
15:25:26: E1B2  A2 0A     LDX #$0A                       A:02 X:00 Y:00 P:25 SP:FD CYC: 25 SL:226
15:25:26: E1B4  20 71 E1  JSR $E171                      A:02 X:0A Y:00 P:25 SP:FD CYC: 31 SL:226
15:25:26: E171  85 F8     STA $F8 = 00                   A:02 X:0A Y:00 P:25 SP:FB CYC: 49 SL:226
15:25:26: E173  20 25 E1  JSR $E125                      A:02 X:0A Y:00 P:25 SP:FB CYC: 58 SL:226
15:25:26: E125  48        PHA                            A:02 X:0A Y:00 P:25 SP:F9 CYC: 76 SL:226
15:25:26: E126  A9 00     LDA #$00                       A:02 X:0A Y:00 P:25 SP:F8 CYC: 85 SL:226
15:25:26: E128  8D 06 20  STA $2006 = 00                 A:00 X:0A Y:00 P:27 SP:F8 CYC: 91 SL:226
15:25:26: E12B  8D 06 20  STA $2006 = 00                 A:00 X:0A Y:00 P:27 SP:F8 CYC:103 SL:226
15:25:26: E12E  A9 10     LDA #$10                       A:00 X:0A Y:00 P:27 SP:F8 CYC:115 SL:226
15:25:26: E130  8D 06 20  STA $2006 = 00                 A:10 X:0A Y:00 P:25 SP:F8 CYC:121 SL:226
15:25:26: E133  8D 06 20  STA $2006 = 00                 A:10 X:0A Y:00 P:25 SP:F8 CYC:133 SL:226
15:25:26: E136  A9 00     LDA #$00                       A:10 X:0A Y:00 P:25 SP:F8 CYC:145 SL:226
15:25:26: E138  8D 06 20  STA $2006 = 00                 A:00 X:0A Y:00 P:27 SP:F8 CYC:151 SL:226
15:25:26: E13B  8D 06 20  STA $2006 = 00                 A:00 X:0A Y:00 P:27 SP:F8 CYC:163 SL:226
15:25:26: E13E  68        PLA                            A:00 X:0A Y:00 P:27 SP:F8 CYC:175 SL:226
15:25:26: E13F  60        RTS                            A:02 X:0A Y:00 P:25 SP:F9 CYC:187 SL:226
15:25:26: E176  20 25 E1  JSR $E125                      A:02 X:0A Y:00 P:25 SP:FB CYC:205 SL:226
15:25:26: E125  48        PHA                            A:02 X:0A Y:00 P:25 SP:F9 CYC:223 SL:226
15:25:26: E126  A9 00     LDA #$00                       A:02 X:0A Y:00 P:25 SP:F8 CYC:232 SL:226
15:25:26: E128  8D 06 20  STA $2006 = 00                 A:00 X:0A Y:00 P:27 SP:F8 CYC:238 SL:226
15:25:26: E12B  8D 06 20  STA $2006 = 00                 A:00 X:0A Y:00 P:27 SP:F8 CYC:250 SL:226
15:25:26: E12E  A9 10     LDA #$10                       A:00 X:0A Y:00 P:27 SP:F8 CYC:262 SL:226
15:25:26: E130  8D 06 20  STA $2006 = 00                 A:10 X:0A Y:00 P:25 SP:F8 CYC:268 SL:226
15:25:26: E133  8D 06 20  STA $2006 = 00                 A:10 X:0A Y:00 P:25 SP:F8 CYC:280 SL:226
15:25:26: E136  A9 00     LDA #$00                       A:10 X:0A Y:00 P:25 SP:F8 CYC:292 SL:226
15:25:26: E138  8D 06 20  STA $2006 = 00                 A:00 X:0A Y:00 P:27 SP:F8 CYC:298 SL:226
15:25:26: E13B  8D 06 20  STA $2006 = 00                 A:00 X:0A Y:00 P:27 SP:F8 CYC:310 SL:226
15:25:26: E13E  68        PLA                            A:00 X:0A Y:00 P:27 SP:F8 CYC:322 SL:226
15:25:26: E13F  60        RTS                            A:02 X:0A Y:00 P:25 SP:F9 CYC:334 SL:226
15:25:26: E179  8A        TXA                            A:02 X:0A Y:00 P:25 SP:FB CYC: 11 SL:227
15:25:26: E17A  20 03 E1  JSR $E103                      A:0A X:0A Y:00 P:25 SP:FB CYC: 17 SL:227
15:25:26: E103  8D 00 C0  STA $C000 = 00                 A:0A X:0A Y:00 P:25 SP:F9 CYC: 35 SL:227
15:25:26: IRQ counter manually set: 10
15:25:26: E106  60        RTS                            A:0A X:0A Y:00 P:25 SP:F9 CYC: 47 SL:227
15:25:26: E17D  20 07 E1  JSR $E107                      A:0A X:0A Y:00 P:25 SP:FB CYC: 65 SL:227
15:25:26: E107  A9 7B     LDA #$7B                       A:0A X:0A Y:00 P:25 SP:F9 CYC: 83 SL:227
15:25:26: E109  8D 01 C0  STA $C001 = 00                 A:7B X:0A Y:00 P:25 SP:F9 CYC: 89 SL:227
15:25:26: IRQ latch manually set: Counter: 10 Latch: 123
15:25:26: E10C  60        RTS                            A:7B X:0A Y:00 P:25 SP:F9 CYC:101 SL:227
15:25:26: E180  20 13 E1  JSR $E113                      A:7B X:0A Y:00 P:25 SP:FB CYC:119 SL:227
15:25:26: E113  A9 7B     LDA #$7B                       A:7B X:0A Y:00 P:25 SP:F9 CYC:137 SL:227
15:25:26: E115  8D 00 E0  STA $E000 = 00                 A:7B X:0A Y:00 P:25 SP:F9 CYC:143 SL:227
15:25:26: Interrupts disabled on mapper
15:25:26: E118  A9 7B     LDA #$7B                       A:7B X:0A Y:00 P:25 SP:F9 CYC:155 SL:227
15:25:26: E11A  8D 01 E0  STA $E001 = 00                 A:7B X:0A Y:00 P:25 SP:F9 CYC:161 SL:227
15:25:26: Interrupts enabled on mapper
15:25:26: E11D  60        RTS                            A:7B X:0A Y:00 P:25 SP:F9 CYC:173 SL:227
15:25:26: E183  60        RTS                            A:7B X:0A Y:00 P:25 SP:FB CYC:191 SL:227
15:25:26: E1B7  20 25 E1  JSR $E125                      A:7B X:0A Y:00 P:25 SP:FD CYC:209 SL:227
15:25:26: E125  48        PHA                            A:7B X:0A Y:00 P:25 SP:FB CYC:227 SL:227
15:25:26: E126  A9 00     LDA #$00                       A:7B X:0A Y:00 P:25 SP:FA CYC:236 SL:227
15:25:26: E128  8D 06 20  STA $2006 = 00                 A:00 X:0A Y:00 P:27 SP:FA CYC:242 SL:227
15:25:26: E12B  8D 06 20  STA $2006 = 00                 A:00 X:0A Y:00 P:27 SP:FA CYC:254 SL:227
15:25:26: E12E  A9 10     LDA #$10                       A:00 X:0A Y:00 P:27 SP:FA CYC:266 SL:227
15:25:26: E130  8D 06 20  STA $2006 = 00                 A:10 X:0A Y:00 P:25 SP:FA CYC:272 SL:227
15:25:26: E133  8D 06 20  STA $2006 = 00                 A:10 X:0A Y:00 P:25 SP:FA CYC:284 SL:227
15:25:26: E136  A9 00     LDA #$00                       A:10 X:0A Y:00 P:25 SP:FA CYC:296 SL:227
15:25:26: E138  8D 06 20  STA $2006 = 00                 A:00 X:0A Y:00 P:27 SP:FA CYC:302 SL:227
15:25:26: E13B  8D 06 20  STA $2006 = 00                 A:00 X:0A Y:00 P:27 SP:FA CYC:314 SL:227
15:25:26: E13E  68        PLA                            A:00 X:0A Y:00 P:27 SP:FA CYC:326 SL:227
15:25:26: E13F  60        RTS                            A:7B X:0A Y:00 P:25 SP:FB CYC:338 SL:227
15:25:26: E1BA  20 25 E1  JSR $E125                      A:7B X:0A Y:00 P:25 SP:FD CYC: 15 SL:228
15:25:26: E125  48        PHA                            A:7B X:0A Y:00 P:25 SP:FB CYC: 33 SL:228
15:25:26: E126  A9 00     LDA #$00                       A:7B X:0A Y:00 P:25 SP:FA CYC: 42 SL:228
15:25:26: E128  8D 06 20  STA $2006 = 00                 A:00 X:0A Y:00 P:27 SP:FA CYC: 48 SL:228
15:25:26: E12B  8D 06 20  STA $2006 = 00                 A:00 X:0A Y:00 P:27 SP:FA CYC: 60 SL:228
15:25:26: E12E  A9 10     LDA #$10                       A:00 X:0A Y:00 P:27 SP:FA CYC: 72 SL:228
15:25:26: E130  8D 06 20  STA $2006 = 00                 A:10 X:0A Y:00 P:25 SP:FA CYC: 78 SL:228
15:25:26: E133  8D 06 20  STA $2006 = 00                 A:10 X:0A Y:00 P:25 SP:FA CYC: 90 SL:228
15:25:26: E136  A9 00     LDA #$00                       A:10 X:0A Y:00 P:25 SP:FA CYC:102 SL:228
15:25:26: E138  8D 06 20  STA $2006 = 00                 A:00 X:0A Y:00 P:27 SP:FA CYC:108 SL:228
15:25:26: E13B  8D 06 20  STA $2006 = 00                 A:00 X:0A Y:00 P:27 SP:FA CYC:120 SL:228
15:25:26: E13E  68        PLA                            A:00 X:0A Y:00 P:27 SP:FA CYC:132 SL:228
15:25:26: E13F  60        RTS                            A:7B X:0A Y:00 P:25 SP:FB CYC:144 SL:228
15:25:26: E1BD  20 84 E1  JSR $E184                      A:7B X:0A Y:00 P:25 SP:FD CYC:162 SL:228
15:25:26: E184  20 40 E1  JSR $E140                      A:7B X:0A Y:00 P:25 SP:FB CYC:180 SL:228
15:25:26: E140  A2 01     LDX #$01                       A:7B X:0A Y:00 P:25 SP:F9 CYC:198 SL:228
15:25:26: E142  58        CLI                            A:7B X:01 Y:00 P:25 SP:F9 CYC:204 SL:228
15:25:26: E143  EA        NOP                            A:7B X:01 Y:00 P:21 SP:F9 CYC:210 SL:228
15:25:26: E144  78        SEI                            A:7B X:01 Y:00 P:21 SP:F9 CYC:216 SL:228
15:25:26: E145  EA        NOP                            A:7B X:01 Y:00 P:25 SP:F9 CYC:222 SL:228
15:25:26: E146  A2 00     LDX #$00                       A:7B X:01 Y:00 P:25 SP:F9 CYC:228 SL:228
15:25:26: E148  60        RTS                            A:7B X:00 Y:00 P:27 SP:F9 CYC:234 SL:228
15:25:26: E187  E0 00     CPX #$00                       A:7B X:00 Y:00 P:27 SP:FB CYC:252 SL:228
15:25:26: E189  20 01 E0  JSR $E001                      A:7B X:00 Y:00 P:27 SP:FB CYC:258 SL:228
15:25:26: E001  D0 1A     BNE $E01D                      A:7B X:00 Y:00 P:27 SP:F9 CYC:276 SL:228
15:25:26: E003  60        RTS                            A:7B X:00 Y:00 P:27 SP:F9 CYC:282 SL:228
15:25:26: E18C  20 13 E1  JSR $E113                      A:7B X:00 Y:00 P:27 SP:FB CYC:300 SL:228
15:25:26: E113  A9 7B     LDA #$7B                       A:7B X:00 Y:00 P:27 SP:F9 CYC:318 SL:228
15:25:26: E115  8D 00 E0  STA $E000 = 00                 A:7B X:00 Y:00 P:25 SP:F9 CYC:324 SL:228
15:25:26: Interrupts disabled on mapper
15:25:26: E118  A9 7B     LDA #$7B                       A:7B X:00 Y:00 P:25 SP:F9 CYC:336 SL:228
15:25:26: E11A  8D 01 E0  STA $E001 = 00                 A:7B X:00 Y:00 P:25 SP:F9 CYC:  1 SL:229
15:25:26: Interrupts enabled on mapper
15:25:26: E11D  60        RTS                            A:7B X:00 Y:00 P:25 SP:F9 CYC: 13 SL:229
15:25:26: E18F  60        RTS                            A:7B X:00 Y:00 P:25 SP:FB CYC: 31 SL:229
15:25:26: E1C0  A9 03     LDA #$03                       A:7B X:00 Y:00 P:25 SP:FD CYC: 49 SL:229
15:25:26: E1C2  A2 02     LDX #$02                       A:03 X:00 Y:00 P:25 SP:FD CYC: 55 SL:229
15:25:26: E1C4  20 71 E1  JSR $E171                      A:03 X:02 Y:00 P:25 SP:FD CYC: 61 SL:229
15:25:26: E171  85 F8     STA $F8 = 00                   A:03 X:02 Y:00 P:25 SP:FB CYC: 79 SL:229
15:25:26: E173  20 25 E1  JSR $E125                      A:03 X:02 Y:00 P:25 SP:FB CYC: 88 SL:229
15:25:26: E125  48        PHA                            A:03 X:02 Y:00 P:25 SP:F9 CYC:106 SL:229
15:25:26: E126  A9 00     LDA #$00                       A:03 X:02 Y:00 P:25 SP:F8 CYC:115 SL:229
15:25:26: E128  8D 06 20  STA $2006 = 00                 A:00 X:02 Y:00 P:27 SP:F8 CYC:121 SL:229
15:25:26: E12B  8D 06 20  STA $2006 = 00                 A:00 X:02 Y:00 P:27 SP:F8 CYC:133 SL:229
15:25:26: E12E  A9 10     LDA #$10                       A:00 X:02 Y:00 P:27 SP:F8 CYC:145 SL:229
15:25:26: E130  8D 06 20  STA $2006 = 00                 A:10 X:02 Y:00 P:25 SP:F8 CYC:151 SL:229
15:25:26: E133  8D 06 20  STA $2006 = 00                 A:10 X:02 Y:00 P:25 SP:F8 CYC:163 SL:229
15:25:26: E136  A9 00     LDA #$00                       A:10 X:02 Y:00 P:25 SP:F8 CYC:175 SL:229
15:25:26: E138  8D 06 20  STA $2006 = 00                 A:00 X:02 Y:00 P:27 SP:F8 CYC:181 SL:229
15:25:26: E13B  8D 06 20  STA $2006 = 00                 A:00 X:02 Y:00 P:27 SP:F8 CYC:193 SL:229
15:25:26: E13E  68        PLA                            A:00 X:02 Y:00 P:27 SP:F8 CYC:205 SL:229
15:25:26: E13F  60        RTS                            A:03 X:02 Y:00 P:25 SP:F9 CYC:217 SL:229
15:25:26: E176  20 25 E1  JSR $E125                      A:03 X:02 Y:00 P:25 SP:FB CYC:235 SL:229
15:25:26: E125  48        PHA                            A:03 X:02 Y:00 P:25 SP:F9 CYC:253 SL:229
15:25:26: E126  A9 00     LDA #$00                       A:03 X:02 Y:00 P:25 SP:F8 CYC:262 SL:229
15:25:26: E128  8D 06 20  STA $2006 = 00                 A:00 X:02 Y:00 P:27 SP:F8 CYC:268 SL:229
15:25:26: E12B  8D 06 20  STA $2006 = 00                 A:00 X:02 Y:00 P:27 SP:F8 CYC:280 SL:229
15:25:26: E12E  A9 10     LDA #$10                       A:00 X:02 Y:00 P:27 SP:F8 CYC:292 SL:229
15:25:26: E130  8D 06 20  STA $2006 = 00                 A:10 X:02 Y:00 P:25 SP:F8 CYC:298 SL:229
15:25:26: E133  8D 06 20  STA $2006 = 00                 A:10 X:02 Y:00 P:25 SP:F8 CYC:310 SL:229
15:25:26: E136  A9 00     LDA #$00                       A:10 X:02 Y:00 P:25 SP:F8 CYC:322 SL:229
15:25:26: E138  8D 06 20  STA $2006 = 00                 A:00 X:02 Y:00 P:27 SP:F8 CYC:328 SL:229
15:25:26: E13B  8D 06 20  STA $2006 = 00                 A:00 X:02 Y:00 P:27 SP:F8 CYC:340 SL:229
15:25:26: E13E  68        PLA                            A:00 X:02 Y:00 P:27 SP:F8 CYC: 11 SL:230
15:25:26: E13F  60        RTS                            A:03 X:02 Y:00 P:25 SP:F9 CYC: 23 SL:230
15:25:26: E179  8A        TXA                            A:03 X:02 Y:00 P:25 SP:FB CYC: 41 SL:230
15:25:26: E17A  20 03 E1  JSR $E103                      A:02 X:02 Y:00 P:25 SP:FB CYC: 47 SL:230
15:25:26: E103  8D 00 C0  STA $C000 = 00                 A:02 X:02 Y:00 P:25 SP:F9 CYC: 65 SL:230
15:25:26: IRQ counter manually set: 2
15:25:26: E106  60        RTS                            A:02 X:02 Y:00 P:25 SP:F9 CYC: 77 SL:230
15:25:26: E17D  20 07 E1  JSR $E107                      A:02 X:02 Y:00 P:25 SP:FB CYC: 95 SL:230
15:25:26: E107  A9 7B     LDA #$7B                       A:02 X:02 Y:00 P:25 SP:F9 CYC:113 SL:230
15:25:26: E109  8D 01 C0  STA $C001 = 00                 A:7B X:02 Y:00 P:25 SP:F9 CYC:119 SL:230
15:25:26: IRQ latch manually set: Counter: 2 Latch: 123
15:25:26: E10C  60        RTS                            A:7B X:02 Y:00 P:25 SP:F9 CYC:131 SL:230
15:25:26: E180  20 13 E1  JSR $E113                      A:7B X:02 Y:00 P:25 SP:FB CYC:149 SL:230
15:25:26: E113  A9 7B     LDA #$7B                       A:7B X:02 Y:00 P:25 SP:F9 CYC:167 SL:230
15:25:26: E115  8D 00 E0  STA $E000 = 00                 A:7B X:02 Y:00 P:25 SP:F9 CYC:173 SL:230
15:25:26: Interrupts disabled on mapper
15:25:26: E118  A9 7B     LDA #$7B                       A:7B X:02 Y:00 P:25 SP:F9 CYC:185 SL:230
15:25:26: E11A  8D 01 E0  STA $E001 = 00                 A:7B X:02 Y:00 P:25 SP:F9 CYC:191 SL:230
15:25:26: Interrupts enabled on mapper
15:25:26: E11D  60        RTS                            A:7B X:02 Y:00 P:25 SP:F9 CYC:203 SL:230
15:25:26: E183  60        RTS                            A:7B X:02 Y:00 P:25 SP:FB CYC:221 SL:230
15:25:26: E1C7  A2 09     LDX #$09                       A:7B X:02 Y:00 P:25 SP:FD CYC:239 SL:230
15:25:26: E1C9  20 1E E1  JSR $E11E                      A:7B X:09 Y:00 P:25 SP:FD CYC:245 SL:230
15:25:26: E11E  20 25 E1  JSR $E125                      A:7B X:09 Y:00 P:25 SP:FB CYC:263 SL:230
15:25:26: E125  48        PHA                            A:7B X:09 Y:00 P:25 SP:F9 CYC:281 SL:230
15:25:26: E126  A9 00     LDA #$00                       A:7B X:09 Y:00 P:25 SP:F8 CYC:290 SL:230
15:25:26: E128  8D 06 20  STA $2006 = 00                 A:00 X:09 Y:00 P:27 SP:F8 CYC:296 SL:230
15:25:26: E12B  8D 06 20  STA $2006 = 00                 A:00 X:09 Y:00 P:27 SP:F8 CYC:308 SL:230
15:25:26: E12E  A9 10     LDA #$10                       A:00 X:09 Y:00 P:27 SP:F8 CYC:320 SL:230
15:25:26: E130  8D 06 20  STA $2006 = 00                 A:10 X:09 Y:00 P:25 SP:F8 CYC:326 SL:230
15:25:26: E133  8D 06 20  STA $2006 = 00                 A:10 X:09 Y:00 P:25 SP:F8 CYC:338 SL:230
15:25:26: E136  A9 00     LDA #$00                       A:10 X:09 Y:00 P:25 SP:F8 CYC:  9 SL:231
15:25:26: E138  8D 06 20  STA $2006 = 00                 A:00 X:09 Y:00 P:27 SP:F8 CYC: 15 SL:231
15:25:26: E13B  8D 06 20  STA $2006 = 00                 A:00 X:09 Y:00 P:27 SP:F8 CYC: 27 SL:231
15:25:26: E13E  68        PLA                            A:00 X:09 Y:00 P:27 SP:F8 CYC: 39 SL:231
15:25:26: E13F  60        RTS                            A:7B X:09 Y:00 P:25 SP:F9 CYC: 51 SL:231
15:25:26: E121  CA        DEX                            A:7B X:09 Y:00 P:25 SP:FB CYC: 69 SL:231
15:25:26: E122  D0 FA     BNE $E11E                      A:7B X:08 Y:00 P:25 SP:FB CYC: 75 SL:231
15:25:26: E11E  20 25 E1  JSR $E125                      A:7B X:08 Y:00 P:25 SP:FB CYC: 84 SL:231
15:25:26: E125  48        PHA                            A:7B X:08 Y:00 P:25 SP:F9 CYC:102 SL:231
15:25:26: E126  A9 00     LDA #$00                       A:7B X:08 Y:00 P:25 SP:F8 CYC:111 SL:231
15:25:26: E128  8D 06 20  STA $2006 = 00                 A:00 X:08 Y:00 P:27 SP:F8 CYC:117 SL:231
15:25:26: E12B  8D 06 20  STA $2006 = 00                 A:00 X:08 Y:00 P:27 SP:F8 CYC:129 SL:231
15:25:26: E12E  A9 10     LDA #$10                       A:00 X:08 Y:00 P:27 SP:F8 CYC:141 SL:231
15:25:26: E130  8D 06 20  STA $2006 = 00                 A:10 X:08 Y:00 P:25 SP:F8 CYC:147 SL:231
15:25:26: E133  8D 06 20  STA $2006 = 00                 A:10 X:08 Y:00 P:25 SP:F8 CYC:159 SL:231
15:25:26: E136  A9 00     LDA #$00                       A:10 X:08 Y:00 P:25 SP:F8 CYC:171 SL:231
15:25:26: E138  8D 06 20  STA $2006 = 00                 A:00 X:08 Y:00 P:27 SP:F8 CYC:177 SL:231
15:25:26: E13B  8D 06 20  STA $2006 = 00                 A:00 X:08 Y:00 P:27 SP:F8 CYC:189 SL:231
15:25:26: E13E  68        PLA                            A:00 X:08 Y:00 P:27 SP:F8 CYC:201 SL:231
15:25:26: E13F  60        RTS                            A:7B X:08 Y:00 P:25 SP:F9 CYC:213 SL:231
15:25:26: E121  CA        DEX                            A:7B X:08 Y:00 P:25 SP:FB CYC:231 SL:231
15:25:26: E122  D0 FA     BNE $E11E                      A:7B X:07 Y:00 P:25 SP:FB CYC:237 SL:231
15:25:26: E11E  20 25 E1  JSR $E125                      A:7B X:07 Y:00 P:25 SP:FB CYC:246 SL:231
15:25:26: E125  48        PHA                            A:7B X:07 Y:00 P:25 SP:F9 CYC:264 SL:231
15:25:26: E126  A9 00     LDA #$00                       A:7B X:07 Y:00 P:25 SP:F8 CYC:273 SL:231
15:25:26: E128  8D 06 20  STA $2006 = 00                 A:00 X:07 Y:00 P:27 SP:F8 CYC:279 SL:231
15:25:26: E12B  8D 06 20  STA $2006 = 00                 A:00 X:07 Y:00 P:27 SP:F8 CYC:291 SL:231
15:25:26: E12E  A9 10     LDA #$10                       A:00 X:07 Y:00 P:27 SP:F8 CYC:303 SL:231
15:25:26: E130  8D 06 20  STA $2006 = 00                 A:10 X:07 Y:00 P:25 SP:F8 CYC:309 SL:231
15:25:26: E133  8D 06 20  STA $2006 = 00                 A:10 X:07 Y:00 P:25 SP:F8 CYC:321 SL:231
15:25:26: E136  A9 00     LDA #$00                       A:10 X:07 Y:00 P:25 SP:F8 CYC:333 SL:231
15:25:26: E138  8D 06 20  STA $2006 = 00                 A:00 X:07 Y:00 P:27 SP:F8 CYC:339 SL:231
15:25:26: E13B  8D 06 20  STA $2006 = 00                 A:00 X:07 Y:00 P:27 SP:F8 CYC: 10 SL:232
15:25:26: E13E  68        PLA                            A:00 X:07 Y:00 P:27 SP:F8 CYC: 22 SL:232
15:25:26: E13F  60        RTS                            A:7B X:07 Y:00 P:25 SP:F9 CYC: 34 SL:232
15:25:26: E121  CA        DEX                            A:7B X:07 Y:00 P:25 SP:FB CYC: 52 SL:232
15:25:26: E122  D0 FA     BNE $E11E                      A:7B X:06 Y:00 P:25 SP:FB CYC: 58 SL:232
15:25:26: E11E  20 25 E1  JSR $E125                      A:7B X:06 Y:00 P:25 SP:FB CYC: 67 SL:232
15:25:26: E125  48        PHA                            A:7B X:06 Y:00 P:25 SP:F9 CYC: 85 SL:232
15:25:26: E126  A9 00     LDA #$00                       A:7B X:06 Y:00 P:25 SP:F8 CYC: 94 SL:232
15:25:26: E128  8D 06 20  STA $2006 = 00                 A:00 X:06 Y:00 P:27 SP:F8 CYC:100 SL:232
15:25:26: E12B  8D 06 20  STA $2006 = 00                 A:00 X:06 Y:00 P:27 SP:F8 CYC:112 SL:232
15:25:26: E12E  A9 10     LDA #$10                       A:00 X:06 Y:00 P:27 SP:F8 CYC:124 SL:232
15:25:26: E130  8D 06 20  STA $2006 = 00                 A:10 X:06 Y:00 P:25 SP:F8 CYC:130 SL:232
15:25:26: E133  8D 06 20  STA $2006 = 00                 A:10 X:06 Y:00 P:25 SP:F8 CYC:142 SL:232
15:25:26: E136  A9 00     LDA #$00                       A:10 X:06 Y:00 P:25 SP:F8 CYC:154 SL:232
15:25:26: E138  8D 06 20  STA $2006 = 00                 A:00 X:06 Y:00 P:27 SP:F8 CYC:160 SL:232
15:25:26: E13B  8D 06 20  STA $2006 = 00                 A:00 X:06 Y:00 P:27 SP:F8 CYC:172 SL:232
15:25:26: E13E  68        PLA                            A:00 X:06 Y:00 P:27 SP:F8 CYC:184 SL:232
15:25:26: E13F  60        RTS                            A:7B X:06 Y:00 P:25 SP:F9 CYC:196 SL:232
15:25:26: E121  CA        DEX                            A:7B X:06 Y:00 P:25 SP:FB CYC:214 SL:232
15:25:26: E122  D0 FA     BNE $E11E                      A:7B X:05 Y:00 P:25 SP:FB CYC:220 SL:232
15:25:26: E11E  20 25 E1  JSR $E125                      A:7B X:05 Y:00 P:25 SP:FB CYC:229 SL:232
15:25:26: E125  48        PHA                            A:7B X:05 Y:00 P:25 SP:F9 CYC:247 SL:232
15:25:26: E126  A9 00     LDA #$00                       A:7B X:05 Y:00 P:25 SP:F8 CYC:256 SL:232
15:25:26: E128  8D 06 20  STA $2006 = 00                 A:00 X:05 Y:00 P:27 SP:F8 CYC:262 SL:232
15:25:26: E12B  8D 06 20  STA $2006 = 00                 A:00 X:05 Y:00 P:27 SP:F8 CYC:274 SL:232
15:25:26: E12E  A9 10     LDA #$10                       A:00 X:05 Y:00 P:27 SP:F8 CYC:286 SL:232
15:25:26: E130  8D 06 20  STA $2006 = 00                 A:10 X:05 Y:00 P:25 SP:F8 CYC:292 SL:232
15:25:26: E133  8D 06 20  STA $2006 = 00                 A:10 X:05 Y:00 P:25 SP:F8 CYC:304 SL:232
15:25:26: E136  A9 00     LDA #$00                       A:10 X:05 Y:00 P:25 SP:F8 CYC:316 SL:232
15:25:26: E138  8D 06 20  STA $2006 = 00                 A:00 X:05 Y:00 P:27 SP:F8 CYC:322 SL:232
15:25:26: E13B  8D 06 20  STA $2006 = 00                 A:00 X:05 Y:00 P:27 SP:F8 CYC:334 SL:232
15:25:26: E13E  68        PLA                            A:00 X:05 Y:00 P:27 SP:F8 CYC:  5 SL:233
15:25:26: E13F  60        RTS                            A:7B X:05 Y:00 P:25 SP:F9 CYC: 17 SL:233
15:25:26: E121  CA        DEX                            A:7B X:05 Y:00 P:25 SP:FB CYC: 35 SL:233
15:25:26: E122  D0 FA     BNE $E11E                      A:7B X:04 Y:00 P:25 SP:FB CYC: 41 SL:233
15:25:26: E11E  20 25 E1  JSR $E125                      A:7B X:04 Y:00 P:25 SP:FB CYC: 50 SL:233
15:25:26: E125  48        PHA                            A:7B X:04 Y:00 P:25 SP:F9 CYC: 68 SL:233
15:25:26: E126  A9 00     LDA #$00                       A:7B X:04 Y:00 P:25 SP:F8 CYC: 77 SL:233
15:25:26: E128  8D 06 20  STA $2006 = 00                 A:00 X:04 Y:00 P:27 SP:F8 CYC: 83 SL:233
15:25:26: E12B  8D 06 20  STA $2006 = 00                 A:00 X:04 Y:00 P:27 SP:F8 CYC: 95 SL:233
15:25:26: E12E  A9 10     LDA #$10                       A:00 X:04 Y:00 P:27 SP:F8 CYC:107 SL:233
15:25:26: E130  8D 06 20  STA $2006 = 00                 A:10 X:04 Y:00 P:25 SP:F8 CYC:113 SL:233
15:25:26: E133  8D 06 20  STA $2006 = 00                 A:10 X:04 Y:00 P:25 SP:F8 CYC:125 SL:233
15:25:26: E136  A9 00     LDA #$00                       A:10 X:04 Y:00 P:25 SP:F8 CYC:137 SL:233
15:25:26: E138  8D 06 20  STA $2006 = 00                 A:00 X:04 Y:00 P:27 SP:F8 CYC:143 SL:233
15:25:26: E13B  8D 06 20  STA $2006 = 00                 A:00 X:04 Y:00 P:27 SP:F8 CYC:155 SL:233
15:25:26: E13E  68        PLA                            A:00 X:04 Y:00 P:27 SP:F8 CYC:167 SL:233
15:25:26: E13F  60        RTS                            A:7B X:04 Y:00 P:25 SP:F9 CYC:179 SL:233
15:25:26: E121  CA        DEX                            A:7B X:04 Y:00 P:25 SP:FB CYC:197 SL:233
15:25:26: E122  D0 FA     BNE $E11E                      A:7B X:03 Y:00 P:25 SP:FB CYC:203 SL:233
15:25:26: E11E  20 25 E1  JSR $E125                      A:7B X:03 Y:00 P:25 SP:FB CYC:212 SL:233
15:25:26: E125  48        PHA                            A:7B X:03 Y:00 P:25 SP:F9 CYC:230 SL:233
15:25:26: E126  A9 00     LDA #$00                       A:7B X:03 Y:00 P:25 SP:F8 CYC:239 SL:233
15:25:26: E128  8D 06 20  STA $2006 = 00                 A:00 X:03 Y:00 P:27 SP:F8 CYC:245 SL:233
15:25:26: E12B  8D 06 20  STA $2006 = 00                 A:00 X:03 Y:00 P:27 SP:F8 CYC:257 SL:233
15:25:26: E12E  A9 10     LDA #$10                       A:00 X:03 Y:00 P:27 SP:F8 CYC:269 SL:233
15:25:26: E130  8D 06 20  STA $2006 = 00                 A:10 X:03 Y:00 P:25 SP:F8 CYC:275 SL:233
15:25:26: E133  8D 06 20  STA $2006 = 00                 A:10 X:03 Y:00 P:25 SP:F8 CYC:287 SL:233
15:25:26: E136  A9 00     LDA #$00                       A:10 X:03 Y:00 P:25 SP:F8 CYC:299 SL:233
15:25:26: E138  8D 06 20  STA $2006 = 00                 A:00 X:03 Y:00 P:27 SP:F8 CYC:305 SL:233
15:25:26: E13B  8D 06 20  STA $2006 = 00                 A:00 X:03 Y:00 P:27 SP:F8 CYC:317 SL:233
15:25:26: E13E  68        PLA                            A:00 X:03 Y:00 P:27 SP:F8 CYC:329 SL:233
15:25:26: E13F  60        RTS                            A:7B X:03 Y:00 P:25 SP:F9 CYC:  0 SL:234
15:25:26: E121  CA        DEX                            A:7B X:03 Y:00 P:25 SP:FB CYC: 18 SL:234
15:25:26: E122  D0 FA     BNE $E11E                      A:7B X:02 Y:00 P:25 SP:FB CYC: 24 SL:234
15:25:26: E11E  20 25 E1  JSR $E125                      A:7B X:02 Y:00 P:25 SP:FB CYC: 33 SL:234
15:25:26: E125  48        PHA                            A:7B X:02 Y:00 P:25 SP:F9 CYC: 51 SL:234
15:25:26: E126  A9 00     LDA #$00                       A:7B X:02 Y:00 P:25 SP:F8 CYC: 60 SL:234
15:25:26: E128  8D 06 20  STA $2006 = 00                 A:00 X:02 Y:00 P:27 SP:F8 CYC: 66 SL:234
15:25:26: E12B  8D 06 20  STA $2006 = 00                 A:00 X:02 Y:00 P:27 SP:F8 CYC: 78 SL:234
15:25:26: E12E  A9 10     LDA #$10                       A:00 X:02 Y:00 P:27 SP:F8 CYC: 90 SL:234
15:25:26: E130  8D 06 20  STA $2006 = 00                 A:10 X:02 Y:00 P:25 SP:F8 CYC: 96 SL:234
15:25:26: E133  8D 06 20  STA $2006 = 00                 A:10 X:02 Y:00 P:25 SP:F8 CYC:108 SL:234
15:25:26: E136  A9 00     LDA #$00                       A:10 X:02 Y:00 P:25 SP:F8 CYC:120 SL:234
15:25:26: E138  8D 06 20  STA $2006 = 00                 A:00 X:02 Y:00 P:27 SP:F8 CYC:126 SL:234
15:25:26: E13B  8D 06 20  STA $2006 = 00                 A:00 X:02 Y:00 P:27 SP:F8 CYC:138 SL:234
15:25:26: E13E  68        PLA                            A:00 X:02 Y:00 P:27 SP:F8 CYC:150 SL:234
15:25:26: E13F  60        RTS                            A:7B X:02 Y:00 P:25 SP:F9 CYC:162 SL:234
15:25:26: E121  CA        DEX                            A:7B X:02 Y:00 P:25 SP:FB CYC:180 SL:234
15:25:26: E122  D0 FA     BNE $E11E                      A:7B X:01 Y:00 P:25 SP:FB CYC:186 SL:234
15:25:26: E11E  20 25 E1  JSR $E125                      A:7B X:01 Y:00 P:25 SP:FB CYC:195 SL:234
15:25:26: E125  48        PHA                            A:7B X:01 Y:00 P:25 SP:F9 CYC:213 SL:234
15:25:26: E126  A9 00     LDA #$00                       A:7B X:01 Y:00 P:25 SP:F8 CYC:222 SL:234
15:25:26: E128  8D 06 20  STA $2006 = 00                 A:00 X:01 Y:00 P:27 SP:F8 CYC:228 SL:234
15:25:26: E12B  8D 06 20  STA $2006 = 00                 A:00 X:01 Y:00 P:27 SP:F8 CYC:240 SL:234
15:25:26: E12E  A9 10     LDA #$10                       A:00 X:01 Y:00 P:27 SP:F8 CYC:252 SL:234
15:25:26: E130  8D 06 20  STA $2006 = 00                 A:10 X:01 Y:00 P:25 SP:F8 CYC:258 SL:234
15:25:26: E133  8D 06 20  STA $2006 = 00                 A:10 X:01 Y:00 P:25 SP:F8 CYC:270 SL:234
15:25:26: E136  A9 00     LDA #$00                       A:10 X:01 Y:00 P:25 SP:F8 CYC:282 SL:234
15:25:26: E138  8D 06 20  STA $2006 = 00                 A:00 X:01 Y:00 P:27 SP:F8 CYC:288 SL:234
15:25:26: E13B  8D 06 20  STA $2006 = 00                 A:00 X:01 Y:00 P:27 SP:F8 CYC:300 SL:234
15:25:26: E13E  68        PLA                            A:00 X:01 Y:00 P:27 SP:F8 CYC:312 SL:234
15:25:26: E13F  60        RTS                            A:7B X:01 Y:00 P:25 SP:F9 CYC:324 SL:234
15:25:26: E121  CA        DEX                            A:7B X:01 Y:00 P:25 SP:FB CYC:  1 SL:235
15:25:26: E122  D0 FA     BNE $E11E                      A:7B X:00 Y:00 P:27 SP:FB CYC:  7 SL:235
15:25:26: E124  60        RTS                            A:7B X:00 Y:00 P:27 SP:FB CYC: 13 SL:235
15:25:26: E1CC  20 90 E1  JSR $E190                      A:7B X:00 Y:00 P:27 SP:FD CYC: 31 SL:235
15:25:27: E190  20 40 E1  JSR $E140                      A:7B X:00 Y:00 P:27 SP:FB CYC: 49 SL:235
15:25:27: E140  A2 01     LDX #$01                       A:7B X:00 Y:00 P:27 SP:F9 CYC: 67 SL:235
15:25:27: E142  58        CLI                            A:7B X:01 Y:00 P:25 SP:F9 CYC: 73 SL:235
15:25:27: E143  EA        NOP                            A:7B X:01 Y:00 P:21 SP:F9 CYC: 79 SL:235
15:25:27: E144  78        SEI                            A:7B X:01 Y:00 P:21 SP:F9 CYC: 85 SL:235
15:25:27: E145  EA        NOP                            A:7B X:01 Y:00 P:25 SP:F9 CYC: 91 SL:235
15:25:27: E146  A2 00     LDX #$00                       A:7B X:01 Y:00 P:25 SP:F9 CYC: 97 SL:235
15:25:27: E148  60        RTS                            A:7B X:00 Y:00 P:27 SP:F9 CYC:103 SL:235
15:25:27: E193  E0 01     CPX #$01                       A:7B X:00 Y:00 P:27 SP:FB CYC:121 SL:235
15:25:27: E195  20 01 E0  JSR $E001                      A:7B X:00 Y:00 P:A4 SP:FB CYC:127 SL:235
15:25:27: E001  D0 1A     BNE $E01D                      A:7B X:00 Y:00 P:A4 SP:F9 CYC:145 SL:235
15:25:27: E01D  78        SEI                            A:7B X:00 Y:00 P:A4 SP:F9 CYC:154 SL:235
15:25:27: E01E  A9 00     LDA #$00                       A:7B X:00 Y:00 P:A4 SP:F9 CYC:160 SL:235
15:25:27: E020  8D 00 20  STA $2000 = 00                 A:00 X:00 Y:00 P:26 SP:F9 CYC:166 SL:235
15:25:27: E023  20 D7 E5  JSR $E5D7                      A:00 X:00 Y:00 P:26 SP:F9 CYC:178 SL:235
15:25:27: E5D7  A9 00     LDA #$00                       A:00 X:00 Y:00 P:26 SP:F7 CYC:196 SL:235
15:25:27: E5D9  8D F1 07  STA $07F1 = 00                 A:00 X:00 Y:00 P:26 SP:F7 CYC:202 SL:235
15:25:27: E5DC  60        RTS                            A:00 X:00 Y:00 P:26 SP:F7 CYC:214 SL:235
15:25:27: E026  AD 9C E1  LDA $E19C = 00                 A:00 X:00 Y:00 P:26 SP:F9 CYC:232 SL:235
15:25:27: E029  F0 11     BEQ $E03C                      A:4D X:00 Y:00 P:24 SP:F9 CYC:244 SL:235
15:25:27: E02B  20 B4 E5  JSR $E5B4                      A:4D X:00 Y:00 P:24 SP:F9 CYC:250 SL:235
15:25:27: E5B4  48        PHA                            A:4D X:00 Y:00 P:24 SP:F7 CYC:268 SL:235
15:25:27: E5B5  A9 A5     LDA #$A5                       A:4D X:00 Y:00 P:24 SP:F6 CYC:277 SL:235
15:25:27: E5B7  CD F1 07  CMP $07F1 = 00                 A:A5 X:00 Y:00 P:A4 SP:F6 CYC:283 SL:235
15:25:27: E5BA  F0 0E     BEQ $E5CA                      A:A5 X:00 Y:00 P:A5 SP:F6 CYC:295 SL:235
15:25:27: E5BC  8D F1 07  STA $07F1 = 00                 A:A5 X:00 Y:00 P:A5 SP:F6 CYC:301 SL:235
15:25:27: E5BF  8A        TXA                            A:A5 X:00 Y:00 P:A5 SP:F6 CYC:313 SL:235
15:25:27: E5C0  48        PHA                            A:00 X:00 Y:00 P:27 SP:F6 CYC:319 SL:235
15:25:27: E5C1  98        TYA                            A:00 X:00 Y:00 P:27 SP:F5 CYC:328 SL:235
15:25:27: E5C2  48        PHA                            A:00 X:00 Y:00 P:27 SP:F5 CYC:334 SL:235
15:25:27: E5C3  20 00 E3  JSR $E300                      A:00 X:00 Y:00 P:27 SP:F4 CYC:  2 SL:236
15:25:27: E300  A9 81     LDA #$81                       A:00 X:00 Y:00 P:27 SP:F2 CYC: 20 SL:236
15:25:27: E302  8D F0 07  STA $07F0 = 00                 A:81 X:00 Y:00 P:A5 SP:F2 CYC: 26 SL:236
15:25:27: E305  20 7A E5  JSR $E57A                      A:81 X:00 Y:00 P:A5 SP:F2 CYC: 38 SL:236
15:25:27: E57A  2C 02 20  BIT $2002 = 00                 A:81 X:00 Y:00 P:A5 SP:F0 CYC: 56 SL:236
15:25:27: E57D  2C 02 20  BIT $2002 = 00                 A:81 X:00 Y:00 P:27 SP:F0 CYC: 68 SL:236
15:25:27: E580  10 FB     BPL $E57D                      A:81 X:00 Y:00 P:27 SP:F0 CYC: 80 SL:236
15:25:27: Frame finished, vblank set
15:25:27: 
LOOP: e580 -> e57d x 78

15:25:27: E582  60        RTS                            A:81 X:00 Y:00 P:A5 SP:F0 CYC: 19 SL:-21
15:25:27: E308  A9 00     LDA #$00                       A:81 X:00 Y:00 P:A5 SP:F2 CYC: 37 SL:-21
15:25:27: E30A  8D 00 20  STA $2000 = 00                 A:00 X:00 Y:00 P:27 SP:F2 CYC: 43 SL:-21
15:25:27: E30D  8D 01 20  STA $2001 = 00                 A:00 X:00 Y:00 P:27 SP:F2 CYC: 55 SL:-21
15:25:27: E310  A9 3F     LDA #$3F                       A:00 X:00 Y:00 P:27 SP:F2 CYC: 67 SL:-21
15:25:27: E312  20 83 E5  JSR $E583                      A:3F X:00 Y:00 P:25 SP:F2 CYC: 73 SL:-21
15:25:27: E583  2C 02 20  BIT $2002 = 00                 A:3F X:00 Y:00 P:25 SP:F0 CYC: 91 SL:-21
15:25:27: E586  8D 06 20  STA $2006 = 00                 A:3F X:00 Y:00 P:27 SP:F0 CYC:103 SL:-21
15:25:27: E589  A9 00     LDA #$00                       A:3F X:00 Y:00 P:27 SP:F0 CYC:115 SL:-21
15:25:27: E58B  8D 06 20  STA $2006 = 00                 A:00 X:00 Y:00 P:27 SP:F0 CYC:121 SL:-21
15:25:27: E58E  60        RTS                            A:00 X:00 Y:00 P:27 SP:F0 CYC:133 SL:-21
15:25:27: E315  A9 0F     LDA #$0F                       A:00 X:00 Y:00 P:27 SP:F2 CYC:151 SL:-21
15:25:27: E317  A2 30     LDX #$30                       A:0F X:00 Y:00 P:25 SP:F2 CYC:157 SL:-21
15:25:27: E319  A0 08     LDY #$08                       A:0F X:30 Y:00 P:25 SP:F2 CYC:163 SL:-21
15:25:27: E31B  8D 07 20  STA $2007 = 00                 A:0F X:30 Y:08 P:25 SP:F2 CYC:169 SL:-21
15:25:27: E31E  8E 07 20  STX $2007 = 00                 A:0F X:30 Y:08 P:25 SP:F2 CYC:181 SL:-21
15:25:27: E321  8E 07 20  STX $2007 = 00                 A:0F X:30 Y:08 P:25 SP:F2 CYC:193 SL:-21
15:25:27: E324  8E 07 20  STX $2007 = 00                 A:0F X:30 Y:08 P:25 SP:F2 CYC:205 SL:-21
15:25:27: E327  88        DEY                            A:0F X:30 Y:08 P:25 SP:F2 CYC:217 SL:-21
15:25:27: E328  D0 F1     BNE $E31B                      A:0F X:30 Y:07 P:25 SP:F2 CYC:223 SL:-21
15:25:27: 
LOOP: e328 -> e31b x 7

15:25:27: E32A  A9 02     LDA #$02                       A:0F X:30 Y:00 P:27 SP:F2 CYC:329 SL:-20
15:25:27: E32C  20 83 E5  JSR $E583                      A:02 X:30 Y:00 P:25 SP:F2 CYC:335 SL:-20
15:25:27: E583  2C 02 20  BIT $2002 = 00                 A:02 X:30 Y:00 P:25 SP:F0 CYC: 12 SL:-19
15:25:27: E586  8D 06 20  STA $2006 = 00                 A:02 X:30 Y:00 P:27 SP:F0 CYC: 24 SL:-19
15:25:27: E589  A9 00     LDA #$00                       A:02 X:30 Y:00 P:27 SP:F0 CYC: 36 SL:-19
15:25:27: E58B  8D 06 20  STA $2006 = 00                 A:00 X:30 Y:00 P:27 SP:F0 CYC: 42 SL:-19
15:25:27: E58E  60        RTS                            A:00 X:30 Y:00 P:27 SP:F0 CYC: 54 SL:-19
15:25:27: E32F  A9 71     LDA #$71                       A:00 X:30 Y:00 P:27 SP:F2 CYC: 72 SL:-19
15:25:27: E331  85 F0     STA $F0 = 00                   A:71 X:30 Y:00 P:25 SP:F2 CYC: 78 SL:-19
15:25:27: E333  A9 E3     LDA #$E3                       A:71 X:30 Y:00 P:25 SP:F2 CYC: 87 SL:-19
15:25:27: E335  85 F1     STA $F1 = 00                   A:E3 X:30 Y:00 P:A5 SP:F2 CYC: 93 SL:-19
15:25:27: E337  A0 00     LDY #$00                       A:E3 X:30 Y:00 P:A5 SP:F2 CYC:102 SL:-19
15:25:27: E339  A9 3B     LDA #$3B                       A:E3 X:30 Y:00 P:27 SP:F2 CYC:108 SL:-19
15:25:27: E33B  85 F2     STA $F2 = 00                   A:3B X:30 Y:00 P:25 SP:F2 CYC:114 SL:-19
15:25:27: E33D  A2 08     LDX #$08                       A:3B X:30 Y:00 P:25 SP:F2 CYC:123 SL:-19
15:25:27: E33F  A9 00     LDA #$00                       A:3B X:08 Y:00 P:25 SP:F2 CYC:129 SL:-19
15:25:27: E341  8D 07 20  STA $2007 = 00                 A:00 X:08 Y:00 P:27 SP:F2 CYC:135 SL:-19
15:25:27: E344  CA        DEX                            A:00 X:08 Y:00 P:27 SP:F2 CYC:147 SL:-19
15:25:27: E345  D0 FA     BNE $E341                      A:00 X:07 Y:00 P:25 SP:F2 CYC:153 SL:-19
15:25:27: 
LOOP: e345 -> e341 x 7

15:25:27: E347  A2 08     LDX #$08                       A:00 X:00 Y:00 P:27 SP:F2 CYC:  7 SL:-18
15:25:27: E349  B1 F0     LDA ($F0), Y = 00              A:00 X:08 Y:00 P:25 SP:F2 CYC: 13 SL:-18
15:25:27: E34B  C8        INY                            A:00 X:08 Y:00 P:27 SP:F2 CYC: 28 SL:-18
15:25:27: E34C  8D 07 20  STA $2007 = 00                 A:00 X:08 Y:01 P:25 SP:F2 CYC: 34 SL:-18
15:25:27: E34F  CA        DEX                            A:00 X:08 Y:01 P:25 SP:F2 CYC: 46 SL:-18
15:25:27: E350  D0 F7     BNE $E349                      A:00 X:07 Y:01 P:25 SP:F2 CYC: 52 SL:-18
15:25:27: 
LOOP: e350 -> e349 x 7

15:25:27: E352  98        TYA                            A:00 X:00 Y:08 P:27 SP:F2 CYC: 53 SL:-17
15:25:27: E353  D0 02     BNE $E357                      A:08 X:00 Y:08 P:25 SP:F2 CYC: 59 SL:-17
15:25:27: E357  C6 F2     DEC $F2 = 00                   A:08 X:00 Y:08 P:25 SP:F2 CYC: 68 SL:-17
15:25:27: E359  D0 E2     BNE $E33D                      A:08 X:00 Y:08 P:25 SP:F2 CYC: 83 SL:-17
15:25:27: E33D  A2 08     LDX #$08                       A:08 X:00 Y:08 P:25 SP:F2 CYC: 92 SL:-17
15:25:27: E33F  A9 00     LDA #$00                       A:08 X:08 Y:08 P:25 SP:F2 CYC: 98 SL:-17
15:25:27: E341  8D 07 20  STA $2007 = 00                 A:00 X:08 Y:08 P:27 SP:F2 CYC:104 SL:-17
15:25:27: E344  CA        DEX                            A:00 X:08 Y:08 P:27 SP:F2 CYC:116 SL:-17
15:25:27: E345  D0 FA     BNE $E341                      A:00 X:07 Y:08 P:25 SP:F2 CYC:122 SL:-17
15:25:27: 
LOOP: e345 -> e341 x 7

15:25:27: E347  A2 08     LDX #$08                       A:00 X:00 Y:08 P:27 SP:F2 CYC:317 SL:-17
15:25:27: E349  B1 F0     LDA ($F0), Y = 00              A:00 X:08 Y:08 P:25 SP:F2 CYC:323 SL:-17
15:25:27: E34B  C8        INY                            A:18 X:08 Y:08 P:25 SP:F2 CYC:338 SL:-17
15:25:27: E34C  8D 07 20  STA $2007 = 00                 A:18 X:08 Y:09 P:25 SP:F2 CYC:  3 SL:-16
15:25:27: E34F  CA        DEX                            A:18 X:08 Y:09 P:25 SP:F2 CYC: 15 SL:-16
15:25:27: E350  D0 F7     BNE $E349                      A:18 X:07 Y:09 P:25 SP:F2 CYC: 21 SL:-16
15:25:27: 
LOOP: e350 -> e349 x 7

15:25:27: E352  98        TYA                            A:00 X:00 Y:10 P:27 SP:F2 CYC: 22 SL:-15
15:25:27: E353  D0 02     BNE $E357                      A:10 X:00 Y:10 P:25 SP:F2 CYC: 28 SL:-15
15:25:27: E357  C6 F2     DEC $F2 = 00                   A:10 X:00 Y:10 P:25 SP:F2 CYC: 37 SL:-15
15:25:27: E359  D0 E2     BNE $E33D                      A:10 X:00 Y:10 P:25 SP:F2 CYC: 52 SL:-15
15:25:27: E33D  A2 08     LDX #$08                       A:10 X:00 Y:10 P:25 SP:F2 CYC: 61 SL:-15
15:25:27: E33F  A9 00     LDA #$00                       A:10 X:08 Y:10 P:25 SP:F2 CYC: 67 SL:-15
15:25:27: E341  8D 07 20  STA $2007 = 00                 A:00 X:08 Y:10 P:27 SP:F2 CYC: 73 SL:-15
15:25:27: E344  CA        DEX                            A:00 X:08 Y:10 P:27 SP:F2 CYC: 85 SL:-15
15:25:27: E345  D0 FA     BNE $E341                      A:00 X:07 Y:10 P:25 SP:F2 CYC: 91 SL:-15
15:25:27: 
LOOP: e345 -> e341 x 7

15:25:27: E347  A2 08     LDX #$08                       A:00 X:00 Y:10 P:27 SP:F2 CYC:286 SL:-15
15:25:27: E349  B1 F0     LDA ($F0), Y = 00              A:00 X:08 Y:10 P:25 SP:F2 CYC:292 SL:-15
15:25:27: E34B  C8        INY                            A:28 X:08 Y:10 P:25 SP:F2 CYC:307 SL:-15
15:25:27: E34C  8D 07 20  STA $2007 = 00                 A:28 X:08 Y:11 P:25 SP:F2 CYC:313 SL:-15
15:25:27: E34F  CA        DEX                            A:28 X:08 Y:11 P:25 SP:F2 CYC:325 SL:-15
15:25:27: E350  D0 F7     BNE $E349                      A:28 X:07 Y:11 P:25 SP:F2 CYC:331 SL:-15
15:25:27: 
LOOP: e350 -> e349 x 7

15:25:27: E352  98        TYA                            A:00 X:00 Y:18 P:27 SP:F2 CYC:332 SL:-14
15:25:27: E353  D0 02     BNE $E357                      A:18 X:00 Y:18 P:25 SP:F2 CYC:338 SL:-14
15:25:27: E357  C6 F2     DEC $F2 = 00                   A:18 X:00 Y:18 P:25 SP:F2 CYC:  6 SL:-13
15:25:27: E359  D0 E2     BNE $E33D                      A:18 X:00 Y:18 P:25 SP:F2 CYC: 21 SL:-13
15:25:27: E33D  A2 08     LDX #$08                       A:18 X:00 Y:18 P:25 SP:F2 CYC: 30 SL:-13
15:25:27: E33F  A9 00     LDA #$00                       A:18 X:08 Y:18 P:25 SP:F2 CYC: 36 SL:-13
15:25:27: E341  8D 07 20  STA $2007 = 00                 A:00 X:08 Y:18 P:27 SP:F2 CYC: 42 SL:-13
15:25:27: E344  CA        DEX                            A:00 X:08 Y:18 P:27 SP:F2 CYC: 54 SL:-13
15:25:27: E345  D0 FA     BNE $E341                      A:00 X:07 Y:18 P:25 SP:F2 CYC: 60 SL:-13
15:25:27: 
LOOP: e345 -> e341 x 7

15:25:27: E347  A2 08     LDX #$08                       A:00 X:00 Y:18 P:27 SP:F2 CYC:255 SL:-13
15:25:27: E349  B1 F0     LDA ($F0), Y = 00              A:00 X:08 Y:18 P:25 SP:F2 CYC:261 SL:-13
15:25:27: E34B  C8        INY                            A:28 X:08 Y:18 P:25 SP:F2 CYC:276 SL:-13
15:25:27: E34C  8D 07 20  STA $2007 = 00                 A:28 X:08 Y:19 P:25 SP:F2 CYC:282 SL:-13
15:25:27: E34F  CA        DEX                            A:28 X:08 Y:19 P:25 SP:F2 CYC:294 SL:-13
15:25:27: E350  D0 F7     BNE $E349                      A:28 X:07 Y:19 P:25 SP:F2 CYC:300 SL:-13
15:25:27: 
LOOP: e350 -> e349 x 7

15:25:27: E352  98        TYA                            A:00 X:00 Y:20 P:27 SP:F2 CYC:301 SL:-12
15:25:27: E353  D0 02     BNE $E357                      A:20 X:00 Y:20 P:25 SP:F2 CYC:307 SL:-12
15:25:27: E357  C6 F2     DEC $F2 = 00                   A:20 X:00 Y:20 P:25 SP:F2 CYC:316 SL:-12
15:25:27: E359  D0 E2     BNE $E33D                      A:20 X:00 Y:20 P:25 SP:F2 CYC:331 SL:-12
15:25:27: E33D  A2 08     LDX #$08                       A:20 X:00 Y:20 P:25 SP:F2 CYC:340 SL:-12
15:25:27: E33F  A9 00     LDA #$00                       A:20 X:08 Y:20 P:25 SP:F2 CYC:  5 SL:-11
15:25:27: E341  8D 07 20  STA $2007 = 00                 A:00 X:08 Y:20 P:27 SP:F2 CYC: 11 SL:-11
15:25:27: E344  CA        DEX                            A:00 X:08 Y:20 P:27 SP:F2 CYC: 23 SL:-11
15:25:27: E345  D0 FA     BNE $E341                      A:00 X:07 Y:20 P:25 SP:F2 CYC: 29 SL:-11
15:25:27: 
LOOP: e345 -> e341 x 7

15:25:27: E347  A2 08     LDX #$08                       A:00 X:00 Y:20 P:27 SP:F2 CYC:224 SL:-11
15:25:27: E349  B1 F0     LDA ($F0), Y = 00              A:00 X:08 Y:20 P:25 SP:F2 CYC:230 SL:-11
15:25:27: E34B  C8        INY                            A:10 X:08 Y:20 P:25 SP:F2 CYC:245 SL:-11
15:25:27: E34C  8D 07 20  STA $2007 = 00                 A:10 X:08 Y:21 P:25 SP:F2 CYC:251 SL:-11
15:25:27: E34F  CA        DEX                            A:10 X:08 Y:21 P:25 SP:F2 CYC:263 SL:-11
15:25:27: E350  D0 F7     BNE $E349                      A:10 X:07 Y:21 P:25 SP:F2 CYC:269 SL:-11
15:25:27: 
LOOP: e350 -> e349 x 7

15:25:27: E352  98        TYA                            A:00 X:00 Y:28 P:27 SP:F2 CYC:270 SL:-10
15:25:27: E353  D0 02     BNE $E357                      A:28 X:00 Y:28 P:25 SP:F2 CYC:276 SL:-10
15:25:27: E357  C6 F2     DEC $F2 = 00                   A:28 X:00 Y:28 P:25 SP:F2 CYC:285 SL:-10
15:25:27: E359  D0 E2     BNE $E33D                      A:28 X:00 Y:28 P:25 SP:F2 CYC:300 SL:-10
15:25:27: E33D  A2 08     LDX #$08                       A:28 X:00 Y:28 P:25 SP:F2 CYC:309 SL:-10
15:25:27: E33F  A9 00     LDA #$00                       A:28 X:08 Y:28 P:25 SP:F2 CYC:315 SL:-10
15:25:27: E341  8D 07 20  STA $2007 = 00                 A:00 X:08 Y:28 P:27 SP:F2 CYC:321 SL:-10
15:25:27: E344  CA        DEX                            A:00 X:08 Y:28 P:27 SP:F2 CYC:333 SL:-10
15:25:27: E345  D0 FA     BNE $E341                      A:00 X:07 Y:28 P:25 SP:F2 CYC:339 SL:-10
15:25:27: 
LOOP: e345 -> e341 x 7

15:25:27: E347  A2 08     LDX #$08                       A:00 X:00 Y:28 P:27 SP:F2 CYC:193 SL:-9
15:25:27: E349  B1 F0     LDA ($F0), Y = 00              A:00 X:08 Y:28 P:25 SP:F2 CYC:199 SL:-9
15:25:27: E34B  C8        INY                            A:00 X:08 Y:28 P:27 SP:F2 CYC:214 SL:-9
15:25:27: E34C  8D 07 20  STA $2007 = 00                 A:00 X:08 Y:29 P:25 SP:F2 CYC:220 SL:-9
15:25:27: E34F  CA        DEX                            A:00 X:08 Y:29 P:25 SP:F2 CYC:232 SL:-9
15:25:27: E350  D0 F7     BNE $E349                      A:00 X:07 Y:29 P:25 SP:F2 CYC:238 SL:-9
15:25:27: 
LOOP: e350 -> e349 x 7

15:25:27: E352  98        TYA                            A:00 X:00 Y:30 P:27 SP:F2 CYC:239 SL:-8
15:25:27: E353  D0 02     BNE $E357                      A:30 X:00 Y:30 P:25 SP:F2 CYC:245 SL:-8
15:25:27: E357  C6 F2     DEC $F2 = 00                   A:30 X:00 Y:30 P:25 SP:F2 CYC:254 SL:-8
15:25:27: E359  D0 E2     BNE $E33D                      A:30 X:00 Y:30 P:25 SP:F2 CYC:269 SL:-8
15:25:27: E33D  A2 08     LDX #$08                       A:30 X:00 Y:30 P:25 SP:F2 CYC:278 SL:-8
15:25:27: E33F  A9 00     LDA #$00                       A:30 X:08 Y:30 P:25 SP:F2 CYC:284 SL:-8
15:25:27: E341  8D 07 20  STA $2007 = 00                 A:00 X:08 Y:30 P:27 SP:F2 CYC:290 SL:-8
15:25:27: E344  CA        DEX                            A:00 X:08 Y:30 P:27 SP:F2 CYC:302 SL:-8
15:25:27: E345  D0 FA     BNE $E341                      A:00 X:07 Y:30 P:25 SP:F2 CYC:308 SL:-8
15:25:27: 
LOOP: e345 -> e341 x 7

15:25:27: E347  A2 08     LDX #$08                       A:00 X:00 Y:30 P:27 SP:F2 CYC:162 SL:-7
15:25:27: E349  B1 F0     LDA ($F0), Y = 00              A:00 X:08 Y:30 P:25 SP:F2 CYC:168 SL:-7
15:25:27: E34B  C8        INY                            A:30 X:08 Y:30 P:25 SP:F2 CYC:183 SL:-7
15:25:27: E34C  8D 07 20  STA $2007 = 00                 A:30 X:08 Y:31 P:25 SP:F2 CYC:189 SL:-7
15:25:27: E34F  CA        DEX                            A:30 X:08 Y:31 P:25 SP:F2 CYC:201 SL:-7
15:25:27: E350  D0 F7     BNE $E349                      A:30 X:07 Y:31 P:25 SP:F2 CYC:207 SL:-7
15:25:27: 
LOOP: e350 -> e349 x 7

15:25:27: E352  98        TYA                            A:00 X:00 Y:38 P:27 SP:F2 CYC:208 SL:-6
15:25:27: E353  D0 02     BNE $E357                      A:38 X:00 Y:38 P:25 SP:F2 CYC:214 SL:-6
15:25:27: E357  C6 F2     DEC $F2 = 00                   A:38 X:00 Y:38 P:25 SP:F2 CYC:223 SL:-6
15:25:27: E359  D0 E2     BNE $E33D                      A:38 X:00 Y:38 P:25 SP:F2 CYC:238 SL:-6
15:25:27: E33D  A2 08     LDX #$08                       A:38 X:00 Y:38 P:25 SP:F2 CYC:247 SL:-6
15:25:27: E33F  A9 00     LDA #$00                       A:38 X:08 Y:38 P:25 SP:F2 CYC:253 SL:-6
15:25:27: E341  8D 07 20  STA $2007 = 00                 A:00 X:08 Y:38 P:27 SP:F2 CYC:259 SL:-6
15:25:27: E344  CA        DEX                            A:00 X:08 Y:38 P:27 SP:F2 CYC:271 SL:-6
15:25:27: E345  D0 FA     BNE $E341                      A:00 X:07 Y:38 P:25 SP:F2 CYC:277 SL:-6
15:25:27: 
LOOP: e345 -> e341 x 7

15:25:27: E347  A2 08     LDX #$08                       A:00 X:00 Y:38 P:27 SP:F2 CYC:131 SL:-5
15:25:27: E349  B1 F0     LDA ($F0), Y = 00              A:00 X:08 Y:38 P:25 SP:F2 CYC:137 SL:-5
15:25:27: E34B  C8        INY                            A:10 X:08 Y:38 P:25 SP:F2 CYC:152 SL:-5
15:25:27: E34C  8D 07 20  STA $2007 = 00                 A:10 X:08 Y:39 P:25 SP:F2 CYC:158 SL:-5
15:25:27: E34F  CA        DEX                            A:10 X:08 Y:39 P:25 SP:F2 CYC:170 SL:-5
15:25:27: E350  D0 F7     BNE $E349                      A:10 X:07 Y:39 P:25 SP:F2 CYC:176 SL:-5
15:25:27: 
LOOP: e350 -> e349 x 7

15:25:27: E352  98        TYA                            A:00 X:00 Y:40 P:27 SP:F2 CYC:177 SL:-4
15:25:27: E353  D0 02     BNE $E357                      A:40 X:00 Y:40 P:25 SP:F2 CYC:183 SL:-4
15:25:27: E357  C6 F2     DEC $F2 = 00                   A:40 X:00 Y:40 P:25 SP:F2 CYC:192 SL:-4
15:25:27: E359  D0 E2     BNE $E33D                      A:40 X:00 Y:40 P:25 SP:F2 CYC:207 SL:-4
15:25:27: E33D  A2 08     LDX #$08                       A:40 X:00 Y:40 P:25 SP:F2 CYC:216 SL:-4
15:25:27: E33F  A9 00     LDA #$00                       A:40 X:08 Y:40 P:25 SP:F2 CYC:222 SL:-4
15:25:27: E341  8D 07 20  STA $2007 = 00                 A:00 X:08 Y:40 P:27 SP:F2 CYC:228 SL:-4
15:25:27: E344  CA        DEX                            A:00 X:08 Y:40 P:27 SP:F2 CYC:240 SL:-4
15:25:27: E345  D0 FA     BNE $E341                      A:00 X:07 Y:40 P:25 SP:F2 CYC:246 SL:-4
15:25:27: 
LOOP: e345 -> e341 x 7

15:25:27: E347  A2 08     LDX #$08                       A:00 X:00 Y:40 P:27 SP:F2 CYC:100 SL:-3
15:25:27: E349  B1 F0     LDA ($F0), Y = 00              A:00 X:08 Y:40 P:25 SP:F2 CYC:106 SL:-3
15:25:27: E34B  C8        INY                            A:10 X:08 Y:40 P:25 SP:F2 CYC:121 SL:-3
15:25:27: E34C  8D 07 20  STA $2007 = 00                 A:10 X:08 Y:41 P:25 SP:F2 CYC:127 SL:-3
15:25:27: E34F  CA        DEX                            A:10 X:08 Y:41 P:25 SP:F2 CYC:139 SL:-3
15:25:27: E350  D0 F7     BNE $E349                      A:10 X:07 Y:41 P:25 SP:F2 CYC:145 SL:-3
15:25:27: 
LOOP: e350 -> e349 x 7

15:25:27: E352  98        TYA                            A:00 X:00 Y:48 P:27 SP:F2 CYC:146 SL:-2
15:25:27: E353  D0 02     BNE $E357                      A:48 X:00 Y:48 P:25 SP:F2 CYC:152 SL:-2
15:25:27: E357  C6 F2     DEC $F2 = 00                   A:48 X:00 Y:48 P:25 SP:F2 CYC:161 SL:-2
15:25:27: E359  D0 E2     BNE $E33D                      A:48 X:00 Y:48 P:25 SP:F2 CYC:176 SL:-2
15:25:27: E33D  A2 08     LDX #$08                       A:48 X:00 Y:48 P:25 SP:F2 CYC:185 SL:-2
15:25:27: E33F  A9 00     LDA #$00                       A:48 X:08 Y:48 P:25 SP:F2 CYC:191 SL:-2
15:25:27: E341  8D 07 20  STA $2007 = 00                 A:00 X:08 Y:48 P:27 SP:F2 CYC:197 SL:-2
15:25:27: E344  CA        DEX                            A:00 X:08 Y:48 P:27 SP:F2 CYC:209 SL:-2
15:25:27: E345  D0 FA     BNE $E341                      A:00 X:07 Y:48 P:25 SP:F2 CYC:215 SL:-2
15:25:27: VBL CLEARED HT: 22 VT: 20 FX: 0 FY: 0 RX: 0 RY: -1
15:25:27: 
LOOP: e345 -> e341 x 7

15:25:27: E347  A2 08     LDX #$08                       A:00 X:00 Y:48 P:27 SP:F2 CYC: 69 SL:-1
15:25:27: E349  B1 F0     LDA ($F0), Y = 00              A:00 X:08 Y:48 P:25 SP:F2 CYC: 75 SL:-1
15:25:27: E34B  C8        INY                            A:10 X:08 Y:48 P:25 SP:F2 CYC: 90 SL:-1
15:25:27: E34C  8D 07 20  STA $2007 = 00                 A:10 X:08 Y:49 P:25 SP:F2 CYC: 96 SL:-1
15:25:27: E34F  CA        DEX                            A:10 X:08 Y:49 P:25 SP:F2 CYC:108 SL:-1
15:25:27: E350  D0 F7     BNE $E349                      A:10 X:07 Y:49 P:25 SP:F2 CYC:114 SL:-1
15:25:27: 
LOOP: e350 -> e349 x 7

15:25:27: E352  98        TYA                            A:00 X:00 Y:50 P:27 SP:F2 CYC:115 SL:0
15:25:27: E353  D0 02     BNE $E357                      A:50 X:00 Y:50 P:25 SP:F2 CYC:121 SL:0
15:25:27: E357  C6 F2     DEC $F2 = 00                   A:50 X:00 Y:50 P:25 SP:F2 CYC:130 SL:0
15:25:27: E359  D0 E2     BNE $E33D                      A:50 X:00 Y:50 P:25 SP:F2 CYC:145 SL:0
15:25:27: E33D  A2 08     LDX #$08                       A:50 X:00 Y:50 P:25 SP:F2 CYC:154 SL:0
15:25:27: E33F  A9 00     LDA #$00                       A:50 X:08 Y:50 P:25 SP:F2 CYC:160 SL:0
15:25:27: E341  8D 07 20  STA $2007 = 00                 A:00 X:08 Y:50 P:27 SP:F2 CYC:166 SL:0
15:25:27: E344  CA        DEX                            A:00 X:08 Y:50 P:27 SP:F2 CYC:178 SL:0
15:25:27: E345  D0 FA     BNE $E341                      A:00 X:07 Y:50 P:25 SP:F2 CYC:184 SL:0
15:25:27: 
LOOP: e345 -> e341 x 7

15:25:27: E347  A2 08     LDX #$08                       A:00 X:00 Y:50 P:27 SP:F2 CYC: 38 SL:1
15:25:27: E349  B1 F0     LDA ($F0), Y = 00              A:00 X:08 Y:50 P:25 SP:F2 CYC: 44 SL:1
15:25:27: E34B  C8        INY                            A:10 X:08 Y:50 P:25 SP:F2 CYC: 59 SL:1
15:25:27: E34C  8D 07 20  STA $2007 = 00                 A:10 X:08 Y:51 P:25 SP:F2 CYC: 65 SL:1
15:25:27: E34F  CA        DEX                            A:10 X:08 Y:51 P:25 SP:F2 CYC: 77 SL:1
15:25:27: E350  D0 F7     BNE $E349                      A:10 X:07 Y:51 P:25 SP:F2 CYC: 83 SL:1
15:25:27: 
LOOP: e350 -> e349 x 7

15:25:27: E352  98        TYA                            A:00 X:00 Y:58 P:27 SP:F2 CYC: 84 SL:2
15:25:27: E353  D0 02     BNE $E357                      A:58 X:00 Y:58 P:25 SP:F2 CYC: 90 SL:2
15:25:27: E357  C6 F2     DEC $F2 = 00                   A:58 X:00 Y:58 P:25 SP:F2 CYC: 99 SL:2
15:25:27: E359  D0 E2     BNE $E33D                      A:58 X:00 Y:58 P:25 SP:F2 CYC:114 SL:2
15:25:27: E33D  A2 08     LDX #$08                       A:58 X:00 Y:58 P:25 SP:F2 CYC:123 SL:2
15:25:27: E33F  A9 00     LDA #$00                       A:58 X:08 Y:58 P:25 SP:F2 CYC:129 SL:2
15:25:27: E341  8D 07 20  STA $2007 = 00                 A:00 X:08 Y:58 P:27 SP:F2 CYC:135 SL:2
15:25:27: E344  CA        DEX                            A:00 X:08 Y:58 P:27 SP:F2 CYC:147 SL:2
15:25:27: E345  D0 FA     BNE $E341                      A:00 X:07 Y:58 P:25 SP:F2 CYC:153 SL:2
15:25:27: 
LOOP: e345 -> e341 x 7

15:25:27: E347  A2 08     LDX #$08                       A:00 X:00 Y:58 P:27 SP:F2 CYC:  7 SL:3
15:25:27: E349  B1 F0     LDA ($F0), Y = 00              A:00 X:08 Y:58 P:25 SP:F2 CYC: 13 SL:3
15:25:27: E34B  C8        INY                            A:00 X:08 Y:58 P:27 SP:F2 CYC: 28 SL:3
15:25:27: E34C  8D 07 20  STA $2007 = 00                 A:00 X:08 Y:59 P:25 SP:F2 CYC: 34 SL:3
15:25:27: E34F  CA        DEX                            A:00 X:08 Y:59 P:25 SP:F2 CYC: 46 SL:3
15:25:27: E350  D0 F7     BNE $E349                      A:00 X:07 Y:59 P:25 SP:F2 CYC: 52 SL:3
15:25:27: 
LOOP: e350 -> e349 x 7

15:25:27: E352  98        TYA                            A:00 X:00 Y:60 P:27 SP:F2 CYC: 53 SL:4
15:25:27: E353  D0 02     BNE $E357                      A:60 X:00 Y:60 P:25 SP:F2 CYC: 59 SL:4
15:25:27: E357  C6 F2     DEC $F2 = 00                   A:60 X:00 Y:60 P:25 SP:F2 CYC: 68 SL:4
15:25:27: E359  D0 E2     BNE $E33D                      A:60 X:00 Y:60 P:25 SP:F2 CYC: 83 SL:4
15:25:27: E33D  A2 08     LDX #$08                       A:60 X:00 Y:60 P:25 SP:F2 CYC: 92 SL:4
15:25:27: E33F  A9 00     LDA #$00                       A:60 X:08 Y:60 P:25 SP:F2 CYC: 98 SL:4
15:25:27: E341  8D 07 20  STA $2007 = 00                 A:00 X:08 Y:60 P:27 SP:F2 CYC:104 SL:4
15:25:27: E344  CA        DEX                            A:00 X:08 Y:60 P:27 SP:F2 CYC:116 SL:4
15:25:27: E345  D0 FA     BNE $E341                      A:00 X:07 Y:60 P:25 SP:F2 CYC:122 SL:4
15:25:27: 
LOOP: e345 -> e341 x 7

15:25:27: E347  A2 08     LDX #$08                       A:00 X:00 Y:60 P:27 SP:F2 CYC:317 SL:4
15:25:27: E349  B1 F0     LDA ($F0), Y = 00              A:00 X:08 Y:60 P:25 SP:F2 CYC:323 SL:4
15:25:27: E34B  C8        INY                            A:00 X:08 Y:60 P:27 SP:F2 CYC:338 SL:4
15:25:27: E34C  8D 07 20  STA $2007 = 00                 A:00 X:08 Y:61 P:25 SP:F2 CYC:  3 SL:5
15:25:27: E34F  CA        DEX                            A:00 X:08 Y:61 P:25 SP:F2 CYC: 15 SL:5
15:25:27: E350  D0 F7     BNE $E349                      A:00 X:07 Y:61 P:25 SP:F2 CYC: 21 SL:5
15:25:27: 
LOOP: e350 -> e349 x 7

15:25:27: E352  98        TYA                            A:00 X:00 Y:68 P:27 SP:F2 CYC: 22 SL:6
15:25:27: E353  D0 02     BNE $E357                      A:68 X:00 Y:68 P:25 SP:F2 CYC: 28 SL:6
15:25:27: E357  C6 F2     DEC $F2 = 00                   A:68 X:00 Y:68 P:25 SP:F2 CYC: 37 SL:6
15:25:27: E359  D0 E2     BNE $E33D                      A:68 X:00 Y:68 P:25 SP:F2 CYC: 52 SL:6
15:25:27: E33D  A2 08     LDX #$08                       A:68 X:00 Y:68 P:25 SP:F2 CYC: 61 SL:6
15:25:27: E33F  A9 00     LDA #$00                       A:68 X:08 Y:68 P:25 SP:F2 CYC: 67 SL:6
15:25:27: E341  8D 07 20  STA $2007 = 00                 A:00 X:08 Y:68 P:27 SP:F2 CYC: 73 SL:6
15:25:27: E344  CA        DEX                            A:00 X:08 Y:68 P:27 SP:F2 CYC: 85 SL:6
15:25:27: E345  D0 FA     BNE $E341                      A:00 X:07 Y:68 P:25 SP:F2 CYC: 91 SL:6
15:25:27: 
LOOP: e345 -> e341 x 7

15:25:27: E347  A2 08     LDX #$08                       A:00 X:00 Y:68 P:27 SP:F2 CYC:286 SL:6
15:25:27: E349  B1 F0     LDA ($F0), Y = 00              A:00 X:08 Y:68 P:25 SP:F2 CYC:292 SL:6
15:25:27: E34B  C8        INY                            A:00 X:08 Y:68 P:27 SP:F2 CYC:307 SL:6
15:25:27: E34C  8D 07 20  STA $2007 = 00                 A:00 X:08 Y:69 P:25 SP:F2 CYC:313 SL:6
15:25:27: E34F  CA        DEX                            A:00 X:08 Y:69 P:25 SP:F2 CYC:325 SL:6
15:25:27: E350  D0 F7     BNE $E349                      A:00 X:07 Y:69 P:25 SP:F2 CYC:331 SL:6
15:25:27: 
LOOP: e350 -> e349 x 7

15:25:27: E352  98        TYA                            A:00 X:00 Y:70 P:27 SP:F2 CYC:332 SL:7
15:25:27: E353  D0 02     BNE $E357                      A:70 X:00 Y:70 P:25 SP:F2 CYC:338 SL:7
15:25:27: E357  C6 F2     DEC $F2 = 00                   A:70 X:00 Y:70 P:25 SP:F2 CYC:  6 SL:8
15:25:27: E359  D0 E2     BNE $E33D                      A:70 X:00 Y:70 P:25 SP:F2 CYC: 21 SL:8
15:25:27: E33D  A2 08     LDX #$08                       A:70 X:00 Y:70 P:25 SP:F2 CYC: 30 SL:8
15:25:27: E33F  A9 00     LDA #$00                       A:70 X:08 Y:70 P:25 SP:F2 CYC: 36 SL:8
15:25:27: E341  8D 07 20  STA $2007 = 00                 A:00 X:08 Y:70 P:27 SP:F2 CYC: 42 SL:8
15:25:27: E344  CA        DEX                            A:00 X:08 Y:70 P:27 SP:F2 CYC: 54 SL:8
15:25:27: E345  D0 FA     BNE $E341                      A:00 X:07 Y:70 P:25 SP:F2 CYC: 60 SL:8
15:25:27: 
LOOP: e345 -> e341 x 7

15:25:27: E347  A2 08     LDX #$08                       A:00 X:00 Y:70 P:27 SP:F2 CYC:255 SL:8
15:25:27: E349  B1 F0     LDA ($F0), Y = 00              A:00 X:08 Y:70 P:25 SP:F2 CYC:261 SL:8
15:25:27: E34B  C8        INY                            A:00 X:08 Y:70 P:27 SP:F2 CYC:276 SL:8
15:25:27: E34C  8D 07 20  STA $2007 = 00                 A:00 X:08 Y:71 P:25 SP:F2 CYC:282 SL:8
15:25:27: E34F  CA        DEX                            A:00 X:08 Y:71 P:25 SP:F2 CYC:294 SL:8
15:25:27: E350  D0 F7     BNE $E349                      A:00 X:07 Y:71 P:25 SP:F2 CYC:300 SL:8
15:25:27: 
LOOP: e350 -> e349 x 7

15:25:27: E352  98        TYA                            A:00 X:00 Y:78 P:27 SP:F2 CYC:301 SL:9
15:25:27: E353  D0 02     BNE $E357                      A:78 X:00 Y:78 P:25 SP:F2 CYC:307 SL:9
15:25:27: E357  C6 F2     DEC $F2 = 00                   A:78 X:00 Y:78 P:25 SP:F2 CYC:316 SL:9
15:25:27: E359  D0 E2     BNE $E33D                      A:78 X:00 Y:78 P:25 SP:F2 CYC:331 SL:9
15:25:27: E33D  A2 08     LDX #$08                       A:78 X:00 Y:78 P:25 SP:F2 CYC:340 SL:9
15:25:27: E33F  A9 00     LDA #$00                       A:78 X:08 Y:78 P:25 SP:F2 CYC:  5 SL:10
15:25:27: E341  8D 07 20  STA $2007 = 00                 A:00 X:08 Y:78 P:27 SP:F2 CYC: 11 SL:10
15:25:27: E344  CA        DEX                            A:00 X:08 Y:78 P:27 SP:F2 CYC: 23 SL:10
15:25:27: E345  D0 FA     BNE $E341                      A:00 X:07 Y:78 P:25 SP:F2 CYC: 29 SL:10
15:25:27: 
LOOP: e345 -> e341 x 7

15:25:27: E347  A2 08     LDX #$08                       A:00 X:00 Y:78 P:27 SP:F2 CYC:224 SL:10
15:25:27: E349  B1 F0     LDA ($F0), Y = 00              A:00 X:08 Y:78 P:25 SP:F2 CYC:230 SL:10
15:25:27: E34B  C8        INY                            A:00 X:08 Y:78 P:27 SP:F2 CYC:245 SL:10
15:25:27: E34C  8D 07 20  STA $2007 = 00                 A:00 X:08 Y:79 P:25 SP:F2 CYC:251 SL:10
15:25:27: E34F  CA        DEX                            A:00 X:08 Y:79 P:25 SP:F2 CYC:263 SL:10
15:25:27: E350  D0 F7     BNE $E349                      A:00 X:07 Y:79 P:25 SP:F2 CYC:269 SL:10
15:25:27: 
LOOP: e350 -> e349 x 7

15:25:27: E352  98        TYA                            A:00 X:00 Y:80 P:27 SP:F2 CYC:270 SL:11
15:25:27: E353  D0 02     BNE $E357                      A:80 X:00 Y:80 P:A5 SP:F2 CYC:276 SL:11
15:25:27: E357  C6 F2     DEC $F2 = 00                   A:80 X:00 Y:80 P:A5 SP:F2 CYC:285 SL:11
15:25:27: E359  D0 E2     BNE $E33D                      A:80 X:00 Y:80 P:25 SP:F2 CYC:300 SL:11
15:25:27: E33D  A2 08     LDX #$08                       A:80 X:00 Y:80 P:25 SP:F2 CYC:309 SL:11
15:25:27: E33F  A9 00     LDA #$00                       A:80 X:08 Y:80 P:25 SP:F2 CYC:315 SL:11
15:25:27: E341  8D 07 20  STA $2007 = 00                 A:00 X:08 Y:80 P:27 SP:F2 CYC:321 SL:11
15:25:27: E344  CA        DEX                            A:00 X:08 Y:80 P:27 SP:F2 CYC:333 SL:11
15:25:27: E345  D0 FA     BNE $E341                      A:00 X:07 Y:80 P:25 SP:F2 CYC:339 SL:11
15:25:27: 
LOOP: e345 -> e341 x 7

15:25:27: E347  A2 08     LDX #$08                       A:00 X:00 Y:80 P:27 SP:F2 CYC:193 SL:12
15:25:27: E349  B1 F0     LDA ($F0), Y = 00              A:00 X:08 Y:80 P:25 SP:F2 CYC:199 SL:12
15:25:27: E34B  C8        INY                            A:38 X:08 Y:80 P:25 SP:F2 CYC:214 SL:12
15:25:27: E34C  8D 07 20  STA $2007 = 00                 A:38 X:08 Y:81 P:A5 SP:F2 CYC:220 SL:12
15:25:27: E34F  CA        DEX                            A:38 X:08 Y:81 P:A5 SP:F2 CYC:232 SL:12
15:25:27: E350  D0 F7     BNE $E349                      A:38 X:07 Y:81 P:25 SP:F2 CYC:238 SL:12
15:25:27: 
LOOP: e350 -> e349 x 7

15:25:27: E352  98        TYA                            A:00 X:00 Y:88 P:27 SP:F2 CYC:239 SL:13
15:25:27: E353  D0 02     BNE $E357                      A:88 X:00 Y:88 P:A5 SP:F2 CYC:245 SL:13
15:25:27: E357  C6 F2     DEC $F2 = 00                   A:88 X:00 Y:88 P:A5 SP:F2 CYC:254 SL:13
15:25:27: E359  D0 E2     BNE $E33D                      A:88 X:00 Y:88 P:25 SP:F2 CYC:269 SL:13
15:25:27: E33D  A2 08     LDX #$08                       A:88 X:00 Y:88 P:25 SP:F2 CYC:278 SL:13
15:25:27: E33F  A9 00     LDA #$00                       A:88 X:08 Y:88 P:25 SP:F2 CYC:284 SL:13
15:25:27: E341  8D 07 20  STA $2007 = 00                 A:00 X:08 Y:88 P:27 SP:F2 CYC:290 SL:13
15:25:27: E344  CA        DEX                            A:00 X:08 Y:88 P:27 SP:F2 CYC:302 SL:13
15:25:27: E345  D0 FA     BNE $E341                      A:00 X:07 Y:88 P:25 SP:F2 CYC:308 SL:13
15:25:27: 
LOOP: e345 -> e341 x 7

15:25:27: E347  A2 08     LDX #$08                       A:00 X:00 Y:88 P:27 SP:F2 CYC:162 SL:14
15:25:27: E349  B1 F0     LDA ($F0), Y = 00              A:00 X:08 Y:88 P:25 SP:F2 CYC:168 SL:14
15:25:27: E34B  C8        INY                            A:18 X:08 Y:88 P:25 SP:F2 CYC:183 SL:14
15:25:27: E34C  8D 07 20  STA $2007 = 00                 A:18 X:08 Y:89 P:A5 SP:F2 CYC:189 SL:14
15:25:27: E34F  CA        DEX                            A:18 X:08 Y:89 P:A5 SP:F2 CYC:201 SL:14
15:25:27: E350  D0 F7     BNE $E349                      A:18 X:07 Y:89 P:25 SP:F2 CYC:207 SL:14
15:25:27: 
LOOP: e350 -> e349 x 7

15:25:27: E352  98        TYA                            A:00 X:00 Y:90 P:27 SP:F2 CYC:211 SL:15
15:25:27: E353  D0 02     BNE $E357                      A:90 X:00 Y:90 P:A5 SP:F2 CYC:217 SL:15
15:25:27: E357  C6 F2     DEC $F2 = 00                   A:90 X:00 Y:90 P:A5 SP:F2 CYC:226 SL:15
15:25:27: E359  D0 E2     BNE $E33D                      A:90 X:00 Y:90 P:25 SP:F2 CYC:241 SL:15
15:25:27: E33D  A2 08     LDX #$08                       A:90 X:00 Y:90 P:25 SP:F2 CYC:250 SL:15
15:25:27: E33F  A9 00     LDA #$00                       A:90 X:08 Y:90 P:25 SP:F2 CYC:256 SL:15
15:25:27: E341  8D 07 20  STA $2007 = 00                 A:00 X:08 Y:90 P:27 SP:F2 CYC:262 SL:15
15:25:27: E344  CA        DEX                            A:00 X:08 Y:90 P:27 SP:F2 CYC:274 SL:15
15:25:27: E345  D0 FA     BNE $E341                      A:00 X:07 Y:90 P:25 SP:F2 CYC:280 SL:15
15:25:27: 
LOOP: e345 -> e341 x 7

15:25:27: E347  A2 08     LDX #$08                       A:00 X:00 Y:90 P:27 SP:F2 CYC:134 SL:16
15:25:27: E349  B1 F0     LDA ($F0), Y = 00              A:00 X:08 Y:90 P:25 SP:F2 CYC:140 SL:16
15:25:27: E34B  C8        INY                            A:7C X:08 Y:90 P:25 SP:F2 CYC:158 SL:16
15:25:27: E34C  8D 07 20  STA $2007 = 00                 A:7C X:08 Y:91 P:A5 SP:F2 CYC:164 SL:16
15:25:27: E34F  CA        DEX                            A:7C X:08 Y:91 P:A5 SP:F2 CYC:176 SL:16
15:25:27: E350  D0 F7     BNE $E349                      A:7C X:07 Y:91 P:25 SP:F2 CYC:182 SL:16
15:25:27: 
LOOP: e350 -> e349 x 7

15:25:27: E352  98        TYA                            A:00 X:00 Y:98 P:27 SP:F2 CYC:204 SL:17
15:25:27: E353  D0 02     BNE $E357                      A:98 X:00 Y:98 P:A5 SP:F2 CYC:210 SL:17
15:25:27: E357  C6 F2     DEC $F2 = 00                   A:98 X:00 Y:98 P:A5 SP:F2 CYC:219 SL:17
15:25:27: E359  D0 E2     BNE $E33D                      A:98 X:00 Y:98 P:25 SP:F2 CYC:234 SL:17
15:25:27: E33D  A2 08     LDX #$08                       A:98 X:00 Y:98 P:25 SP:F2 CYC:243 SL:17
15:25:27: E33F  A9 00     LDA #$00                       A:98 X:08 Y:98 P:25 SP:F2 CYC:249 SL:17
15:25:27: E341  8D 07 20  STA $2007 = 00                 A:00 X:08 Y:98 P:27 SP:F2 CYC:255 SL:17
15:25:27: E344  CA        DEX                            A:00 X:08 Y:98 P:27 SP:F2 CYC:267 SL:17
15:25:27: E345  D0 FA     BNE $E341                      A:00 X:07 Y:98 P:25 SP:F2 CYC:273 SL:17
15:25:27: 
LOOP: e345 -> e341 x 7

15:25:27: E347  A2 08     LDX #$08                       A:00 X:00 Y:98 P:27 SP:F2 CYC:127 SL:18
15:25:27: E349  B1 F0     LDA ($F0), Y = 00              A:00 X:08 Y:98 P:25 SP:F2 CYC:133 SL:18
15:25:27: E34B  C8        INY                            A:7E X:08 Y:98 P:25 SP:F2 CYC:151 SL:18
15:25:27: E34C  8D 07 20  STA $2007 = 00                 A:7E X:08 Y:99 P:A5 SP:F2 CYC:157 SL:18
15:25:27: E34F  CA        DEX                            A:7E X:08 Y:99 P:A5 SP:F2 CYC:169 SL:18
15:25:27: E350  D0 F7     BNE $E349                      A:7E X:07 Y:99 P:25 SP:F2 CYC:175 SL:18
15:25:27: 
LOOP: e350 -> e349 x 7

15:25:27: E352  98        TYA                            A:00 X:00 Y:A0 P:27 SP:F2 CYC:197 SL:19
15:25:27: E353  D0 02     BNE $E357                      A:A0 X:00 Y:A0 P:A5 SP:F2 CYC:203 SL:19
15:25:27: E357  C6 F2     DEC $F2 = 00                   A:A0 X:00 Y:A0 P:A5 SP:F2 CYC:212 SL:19
15:25:27: E359  D0 E2     BNE $E33D                      A:A0 X:00 Y:A0 P:25 SP:F2 CYC:227 SL:19
15:25:27: E33D  A2 08     LDX #$08                       A:A0 X:00 Y:A0 P:25 SP:F2 CYC:236 SL:19
15:25:27: E33F  A9 00     LDA #$00                       A:A0 X:08 Y:A0 P:25 SP:F2 CYC:242 SL:19
15:25:27: E341  8D 07 20  STA $2007 = 00                 A:00 X:08 Y:A0 P:27 SP:F2 CYC:248 SL:19
15:25:27: E344  CA        DEX                            A:00 X:08 Y:A0 P:27 SP:F2 CYC:260 SL:19
15:25:27: E345  D0 FA     BNE $E341                      A:00 X:07 Y:A0 P:25 SP:F2 CYC:266 SL:19
15:25:27: 
LOOP: e345 -> e341 x 7

15:25:27: E347  A2 08     LDX #$08                       A:00 X:00 Y:A0 P:27 SP:F2 CYC:120 SL:20
15:25:27: E349  B1 F0     LDA ($F0), Y = 00              A:00 X:08 Y:A0 P:25 SP:F2 CYC:126 SL:20
15:25:27: E34B  C8        INY                            A:1C X:08 Y:A0 P:25 SP:F2 CYC:144 SL:20
15:25:27: E34C  8D 07 20  STA $2007 = 00                 A:1C X:08 Y:A1 P:A5 SP:F2 CYC:150 SL:20
15:25:27: E34F  CA        DEX                            A:1C X:08 Y:A1 P:A5 SP:F2 CYC:162 SL:20
15:25:27: E350  D0 F7     BNE $E349                      A:1C X:07 Y:A1 P:25 SP:F2 CYC:168 SL:20
15:25:27: 
LOOP: e350 -> e349 x 7

15:25:27: E352  98        TYA                            A:00 X:00 Y:A8 P:27 SP:F2 CYC:190 SL:21
15:25:27: E353  D0 02     BNE $E357                      A:A8 X:00 Y:A8 P:A5 SP:F2 CYC:196 SL:21
15:25:27: E357  C6 F2     DEC $F2 = 00                   A:A8 X:00 Y:A8 P:A5 SP:F2 CYC:205 SL:21
15:25:27: E359  D0 E2     BNE $E33D                      A:A8 X:00 Y:A8 P:25 SP:F2 CYC:220 SL:21
15:25:27: E33D  A2 08     LDX #$08                       A:A8 X:00 Y:A8 P:25 SP:F2 CYC:229 SL:21
15:25:27: E33F  A9 00     LDA #$00                       A:A8 X:08 Y:A8 P:25 SP:F2 CYC:235 SL:21
15:25:27: E341  8D 07 20  STA $2007 = 00                 A:00 X:08 Y:A8 P:27 SP:F2 CYC:241 SL:21
15:25:27: E344  CA        DEX                            A:00 X:08 Y:A8 P:27 SP:F2 CYC:253 SL:21
15:25:27: E345  D0 FA     BNE $E341                      A:00 X:07 Y:A8 P:25 SP:F2 CYC:259 SL:21
15:25:27: 
LOOP: e345 -> e341 x 7

15:25:27: E347  A2 08     LDX #$08                       A:00 X:00 Y:A8 P:27 SP:F2 CYC:113 SL:22
15:25:27: E349  B1 F0     LDA ($F0), Y = 00              A:00 X:08 Y:A8 P:25 SP:F2 CYC:119 SL:22
15:25:27: E34B  C8        INY                            A:FC X:08 Y:A8 P:A5 SP:F2 CYC:137 SL:22
15:25:27: E34C  8D 07 20  STA $2007 = 00                 A:FC X:08 Y:A9 P:A5 SP:F2 CYC:143 SL:22
15:25:27: E34F  CA        DEX                            A:FC X:08 Y:A9 P:A5 SP:F2 CYC:155 SL:22
15:25:27: E350  D0 F7     BNE $E349                      A:FC X:07 Y:A9 P:25 SP:F2 CYC:161 SL:22
15:25:27: 
LOOP: e350 -> e349 x 7

15:25:27: E352  98        TYA                            A:00 X:00 Y:B0 P:27 SP:F2 CYC:183 SL:23
15:25:27: E353  D0 02     BNE $E357                      A:B0 X:00 Y:B0 P:A5 SP:F2 CYC:189 SL:23
15:25:27: E357  C6 F2     DEC $F2 = 00                   A:B0 X:00 Y:B0 P:A5 SP:F2 CYC:198 SL:23
15:25:27: E359  D0 E2     BNE $E33D                      A:B0 X:00 Y:B0 P:25 SP:F2 CYC:213 SL:23
15:25:27: E33D  A2 08     LDX #$08                       A:B0 X:00 Y:B0 P:25 SP:F2 CYC:222 SL:23
15:25:27: E33F  A9 00     LDA #$00                       A:B0 X:08 Y:B0 P:25 SP:F2 CYC:228 SL:23
15:25:27: E341  8D 07 20  STA $2007 = 00                 A:00 X:08 Y:B0 P:27 SP:F2 CYC:234 SL:23
15:25:27: E344  CA        DEX                            A:00 X:08 Y:B0 P:27 SP:F2 CYC:246 SL:23
15:25:27: E345  D0 FA     BNE $E341                      A:00 X:07 Y:B0 P:25 SP:F2 CYC:252 SL:23
15:25:27: 
LOOP: e345 -> e341 x 7

15:25:27: E347  A2 08     LDX #$08                       A:00 X:00 Y:B0 P:27 SP:F2 CYC:106 SL:24
15:25:27: E349  B1 F0     LDA ($F0), Y = 00              A:00 X:08 Y:B0 P:25 SP:F2 CYC:112 SL:24
15:25:27: E34B  C8        INY                            A:3E X:08 Y:B0 P:25 SP:F2 CYC:130 SL:24
15:25:27: E34C  8D 07 20  STA $2007 = 00                 A:3E X:08 Y:B1 P:A5 SP:F2 CYC:136 SL:24
15:25:27: E34F  CA        DEX                            A:3E X:08 Y:B1 P:A5 SP:F2 CYC:148 SL:24
15:25:27: E350  D0 F7     BNE $E349                      A:3E X:07 Y:B1 P:25 SP:F2 CYC:154 SL:24
15:25:27: 
LOOP: e350 -> e349 x 7

15:25:27: E352  98        TYA                            A:00 X:00 Y:B8 P:27 SP:F2 CYC:176 SL:25
15:25:27: E353  D0 02     BNE $E357                      A:B8 X:00 Y:B8 P:A5 SP:F2 CYC:182 SL:25
15:25:27: E357  C6 F2     DEC $F2 = 00                   A:B8 X:00 Y:B8 P:A5 SP:F2 CYC:191 SL:25
15:25:27: E359  D0 E2     BNE $E33D                      A:B8 X:00 Y:B8 P:25 SP:F2 CYC:206 SL:25
15:25:27: E33D  A2 08     LDX #$08                       A:B8 X:00 Y:B8 P:25 SP:F2 CYC:215 SL:25
15:25:27: E33F  A9 00     LDA #$00                       A:B8 X:08 Y:B8 P:25 SP:F2 CYC:221 SL:25
15:25:27: E341  8D 07 20  STA $2007 = 00                 A:00 X:08 Y:B8 P:27 SP:F2 CYC:227 SL:25
15:25:27: E344  CA        DEX                            A:00 X:08 Y:B8 P:27 SP:F2 CYC:239 SL:25
15:25:27: E345  D0 FA     BNE $E341                      A:00 X:07 Y:B8 P:25 SP:F2 CYC:245 SL:25
15:25:27: 
LOOP: e345 -> e341 x 7

15:25:27: E347  A2 08     LDX #$08                       A:00 X:00 Y:B8 P:27 SP:F2 CYC: 99 SL:26
15:25:27: E349  B1 F0     LDA ($F0), Y = 00              A:00 X:08 Y:B8 P:25 SP:F2 CYC:105 SL:26
15:25:27: E34B  C8        INY                            A:FE X:08 Y:B8 P:A5 SP:F2 CYC:123 SL:26
15:25:27: E34C  8D 07 20  STA $2007 = 00                 A:FE X:08 Y:B9 P:A5 SP:F2 CYC:129 SL:26
15:25:27: E34F  CA        DEX                            A:FE X:08 Y:B9 P:A5 SP:F2 CYC:141 SL:26
15:25:27: E350  D0 F7     BNE $E349                      A:FE X:07 Y:B9 P:25 SP:F2 CYC:147 SL:26
15:25:27: 
LOOP: e350 -> e349 x 7

15:25:27: E352  98        TYA                            A:00 X:00 Y:C0 P:27 SP:F2 CYC:169 SL:27
15:25:27: E353  D0 02     BNE $E357                      A:C0 X:00 Y:C0 P:A5 SP:F2 CYC:175 SL:27
15:25:27: E357  C6 F2     DEC $F2 = 00                   A:C0 X:00 Y:C0 P:A5 SP:F2 CYC:184 SL:27
15:25:27: E359  D0 E2     BNE $E33D                      A:C0 X:00 Y:C0 P:25 SP:F2 CYC:199 SL:27
15:25:27: E33D  A2 08     LDX #$08                       A:C0 X:00 Y:C0 P:25 SP:F2 CYC:208 SL:27
15:25:27: E33F  A9 00     LDA #$00                       A:C0 X:08 Y:C0 P:25 SP:F2 CYC:214 SL:27
15:25:27: E341  8D 07 20  STA $2007 = 00                 A:00 X:08 Y:C0 P:27 SP:F2 CYC:220 SL:27
15:25:27: E344  CA        DEX                            A:00 X:08 Y:C0 P:27 SP:F2 CYC:232 SL:27
15:25:27: E345  D0 FA     BNE $E341                      A:00 X:07 Y:C0 P:25 SP:F2 CYC:238 SL:27
15:25:27: 
LOOP: e345 -> e341 x 7

15:25:27: E347  A2 08     LDX #$08                       A:00 X:00 Y:C0 P:27 SP:F2 CYC: 92 SL:28
15:25:27: E349  B1 F0     LDA ($F0), Y = 00              A:00 X:08 Y:C0 P:25 SP:F2 CYC: 98 SL:28
15:25:27: E34B  C8        INY                            A:7C X:08 Y:C0 P:25 SP:F2 CYC:116 SL:28
15:25:27: E34C  8D 07 20  STA $2007 = 00                 A:7C X:08 Y:C1 P:A5 SP:F2 CYC:122 SL:28
15:25:27: E34F  CA        DEX                            A:7C X:08 Y:C1 P:A5 SP:F2 CYC:134 SL:28
15:25:27: E350  D0 F7     BNE $E349                      A:7C X:07 Y:C1 P:25 SP:F2 CYC:140 SL:28
15:25:27: 
LOOP: e350 -> e349 x 7

15:25:27: E352  98        TYA                            A:00 X:00 Y:C8 P:27 SP:F2 CYC:162 SL:29
15:25:27: E353  D0 02     BNE $E357                      A:C8 X:00 Y:C8 P:A5 SP:F2 CYC:168 SL:29
15:25:27: E357  C6 F2     DEC $F2 = 00                   A:C8 X:00 Y:C8 P:A5 SP:F2 CYC:177 SL:29
15:25:27: E359  D0 E2     BNE $E33D                      A:C8 X:00 Y:C8 P:25 SP:F2 CYC:192 SL:29
15:25:27: E33D  A2 08     LDX #$08                       A:C8 X:00 Y:C8 P:25 SP:F2 CYC:201 SL:29
15:25:27: E33F  A9 00     LDA #$00                       A:C8 X:08 Y:C8 P:25 SP:F2 CYC:207 SL:29
15:25:27: E341  8D 07 20  STA $2007 = 00                 A:00 X:08 Y:C8 P:27 SP:F2 CYC:213 SL:29
15:25:27: E344  CA        DEX                            A:00 X:08 Y:C8 P:27 SP:F2 CYC:225 SL:29
15:25:27: E345  D0 FA     BNE $E341                      A:00 X:07 Y:C8 P:25 SP:F2 CYC:231 SL:29
15:25:27: 
LOOP: e345 -> e341 x 7

15:25:27: E347  A2 08     LDX #$08                       A:00 X:00 Y:C8 P:27 SP:F2 CYC: 85 SL:30
15:25:27: E349  B1 F0     LDA ($F0), Y = 00              A:00 X:08 Y:C8 P:25 SP:F2 CYC: 91 SL:30
15:25:27: E34B  C8        INY                            A:7C X:08 Y:C8 P:25 SP:F2 CYC:109 SL:30
15:25:27: E34C  8D 07 20  STA $2007 = 00                 A:7C X:08 Y:C9 P:A5 SP:F2 CYC:115 SL:30
15:25:27: E34F  CA        DEX                            A:7C X:08 Y:C9 P:A5 SP:F2 CYC:127 SL:30
15:25:27: E350  D0 F7     BNE $E349                      A:7C X:07 Y:C9 P:25 SP:F2 CYC:133 SL:30
15:25:27: 
LOOP: e350 -> e349 x 7

15:25:27: E352  98        TYA                            A:00 X:00 Y:D0 P:27 SP:F2 CYC:155 SL:31
15:25:27: E353  D0 02     BNE $E357                      A:D0 X:00 Y:D0 P:A5 SP:F2 CYC:161 SL:31
15:25:27: E357  C6 F2     DEC $F2 = 00                   A:D0 X:00 Y:D0 P:A5 SP:F2 CYC:170 SL:31
15:25:27: E359  D0 E2     BNE $E33D                      A:D0 X:00 Y:D0 P:25 SP:F2 CYC:185 SL:31
15:25:27: E33D  A2 08     LDX #$08                       A:D0 X:00 Y:D0 P:25 SP:F2 CYC:194 SL:31
15:25:27: E33F  A9 00     LDA #$00                       A:D0 X:08 Y:D0 P:25 SP:F2 CYC:200 SL:31
15:25:27: E341  8D 07 20  STA $2007 = 00                 A:00 X:08 Y:D0 P:27 SP:F2 CYC:206 SL:31
15:25:27: E344  CA        DEX                            A:00 X:08 Y:D0 P:27 SP:F2 CYC:218 SL:31
15:25:27: E345  D0 FA     BNE $E341                      A:00 X:07 Y:D0 P:25 SP:F2 CYC:224 SL:31
15:25:27: 
LOOP: e345 -> e341 x 7

15:25:27: E347  A2 08     LDX #$08                       A:00 X:00 Y:D0 P:27 SP:F2 CYC: 78 SL:32
15:25:27: E349  B1 F0     LDA ($F0), Y = 00              A:00 X:08 Y:D0 P:25 SP:F2 CYC: 84 SL:32
15:25:27: E34B  C8        INY                            A:00 X:08 Y:D0 P:27 SP:F2 CYC:102 SL:32
15:25:27: E34C  8D 07 20  STA $2007 = 00                 A:00 X:08 Y:D1 P:A5 SP:F2 CYC:108 SL:32
15:25:27: E34F  CA        DEX                            A:00 X:08 Y:D1 P:A5 SP:F2 CYC:120 SL:32
15:25:27: E350  D0 F7     BNE $E349                      A:00 X:07 Y:D1 P:25 SP:F2 CYC:126 SL:32
15:25:27: 
LOOP: e350 -> e349 x 7

15:25:27: E352  98        TYA                            A:00 X:00 Y:D8 P:27 SP:F2 CYC:148 SL:33
15:25:27: E353  D0 02     BNE $E357                      A:D8 X:00 Y:D8 P:A5 SP:F2 CYC:154 SL:33
15:25:27: E357  C6 F2     DEC $F2 = 00                   A:D8 X:00 Y:D8 P:A5 SP:F2 CYC:163 SL:33
15:25:27: E359  D0 E2     BNE $E33D                      A:D8 X:00 Y:D8 P:25 SP:F2 CYC:178 SL:33
15:25:27: E33D  A2 08     LDX #$08                       A:D8 X:00 Y:D8 P:25 SP:F2 CYC:187 SL:33
15:25:27: E33F  A9 00     LDA #$00                       A:D8 X:08 Y:D8 P:25 SP:F2 CYC:193 SL:33
15:25:27: E341  8D 07 20  STA $2007 = 00                 A:00 X:08 Y:D8 P:27 SP:F2 CYC:199 SL:33
15:25:27: E344  CA        DEX                            A:00 X:08 Y:D8 P:27 SP:F2 CYC:211 SL:33
15:25:27: E345  D0 FA     BNE $E341                      A:00 X:07 Y:D8 P:25 SP:F2 CYC:217 SL:33
15:25:27: 
LOOP: e345 -> e341 x 7

15:25:27: E347  A2 08     LDX #$08                       A:00 X:00 Y:D8 P:27 SP:F2 CYC: 71 SL:34
15:25:27: E349  B1 F0     LDA ($F0), Y = 00              A:00 X:08 Y:D8 P:25 SP:F2 CYC: 77 SL:34
15:25:27: E34B  C8        INY                            A:00 X:08 Y:D8 P:27 SP:F2 CYC: 95 SL:34
15:25:27: E34C  8D 07 20  STA $2007 = 00                 A:00 X:08 Y:D9 P:A5 SP:F2 CYC:101 SL:34
15:25:27: E34F  CA        DEX                            A:00 X:08 Y:D9 P:A5 SP:F2 CYC:113 SL:34
15:25:27: E350  D0 F7     BNE $E349                      A:00 X:07 Y:D9 P:25 SP:F2 CYC:119 SL:34
15:25:27: 
LOOP: e350 -> e349 x 7

15:25:27: E352  98        TYA                            A:00 X:00 Y:E0 P:27 SP:F2 CYC:141 SL:35
15:25:27: E353  D0 02     BNE $E357                      A:E0 X:00 Y:E0 P:A5 SP:F2 CYC:147 SL:35
15:25:27: E357  C6 F2     DEC $F2 = 00                   A:E0 X:00 Y:E0 P:A5 SP:F2 CYC:156 SL:35
15:25:27: E359  D0 E2     BNE $E33D                      A:E0 X:00 Y:E0 P:25 SP:F2 CYC:171 SL:35
15:25:27: E33D  A2 08     LDX #$08                       A:E0 X:00 Y:E0 P:25 SP:F2 CYC:180 SL:35
15:25:27: E33F  A9 00     LDA #$00                       A:E0 X:08 Y:E0 P:25 SP:F2 CYC:186 SL:35
15:25:27: E341  8D 07 20  STA $2007 = 00                 A:00 X:08 Y:E0 P:27 SP:F2 CYC:192 SL:35
15:25:27: E344  CA        DEX                            A:00 X:08 Y:E0 P:27 SP:F2 CYC:204 SL:35
15:25:27: E345  D0 FA     BNE $E341                      A:00 X:07 Y:E0 P:25 SP:F2 CYC:210 SL:35
15:25:27: 
LOOP: e345 -> e341 x 7

15:25:27: E347  A2 08     LDX #$08                       A:00 X:00 Y:E0 P:27 SP:F2 CYC: 64 SL:36
15:25:27: E349  B1 F0     LDA ($F0), Y = 00              A:00 X:08 Y:E0 P:25 SP:F2 CYC: 70 SL:36
15:25:27: E34B  C8        INY                            A:00 X:08 Y:E0 P:27 SP:F2 CYC: 88 SL:36
15:25:27: E34C  8D 07 20  STA $2007 = 00                 A:00 X:08 Y:E1 P:A5 SP:F2 CYC: 94 SL:36
15:25:27: E34F  CA        DEX                            A:00 X:08 Y:E1 P:A5 SP:F2 CYC:106 SL:36
15:25:27: E350  D0 F7     BNE $E349                      A:00 X:07 Y:E1 P:25 SP:F2 CYC:112 SL:36
15:25:27: 
LOOP: e350 -> e349 x 7

15:25:27: E352  98        TYA                            A:00 X:00 Y:E8 P:27 SP:F2 CYC:134 SL:37
15:25:27: E353  D0 02     BNE $E357                      A:E8 X:00 Y:E8 P:A5 SP:F2 CYC:140 SL:37
15:25:27: E357  C6 F2     DEC $F2 = 00                   A:E8 X:00 Y:E8 P:A5 SP:F2 CYC:149 SL:37
15:25:27: E359  D0 E2     BNE $E33D                      A:E8 X:00 Y:E8 P:25 SP:F2 CYC:164 SL:37
15:25:27: E33D  A2 08     LDX #$08                       A:E8 X:00 Y:E8 P:25 SP:F2 CYC:173 SL:37
15:25:27: E33F  A9 00     LDA #$00                       A:E8 X:08 Y:E8 P:25 SP:F2 CYC:179 SL:37
15:25:27: E341  8D 07 20  STA $2007 = 00                 A:00 X:08 Y:E8 P:27 SP:F2 CYC:185 SL:37
15:25:27: E344  CA        DEX                            A:00 X:08 Y:E8 P:27 SP:F2 CYC:197 SL:37
15:25:27: E345  D0 FA     BNE $E341                      A:00 X:07 Y:E8 P:25 SP:F2 CYC:203 SL:37
15:25:27: 
LOOP: e345 -> e341 x 7

15:25:27: E347  A2 08     LDX #$08                       A:00 X:00 Y:E8 P:27 SP:F2 CYC: 57 SL:38
15:25:28: E349  B1 F0     LDA ($F0), Y = 00              A:00 X:08 Y:E8 P:25 SP:F2 CYC: 63 SL:38
15:25:28: E34B  C8        INY                            A:00 X:08 Y:E8 P:27 SP:F2 CYC: 81 SL:38
15:25:28: E34C  8D 07 20  STA $2007 = 00                 A:00 X:08 Y:E9 P:A5 SP:F2 CYC: 87 SL:38
15:25:28: E34F  CA        DEX                            A:00 X:08 Y:E9 P:A5 SP:F2 CYC: 99 SL:38
15:25:28: E350  D0 F7     BNE $E349                      A:00 X:07 Y:E9 P:25 SP:F2 CYC:105 SL:38
15:25:28: 
LOOP: e350 -> e349 x 7

15:25:28: E352  98        TYA                            A:00 X:00 Y:F0 P:27 SP:F2 CYC:127 SL:39
15:25:28: E353  D0 02     BNE $E357                      A:F0 X:00 Y:F0 P:A5 SP:F2 CYC:133 SL:39
15:25:28: E357  C6 F2     DEC $F2 = 00                   A:F0 X:00 Y:F0 P:A5 SP:F2 CYC:142 SL:39
15:25:28: E359  D0 E2     BNE $E33D                      A:F0 X:00 Y:F0 P:25 SP:F2 CYC:157 SL:39
15:25:28: E33D  A2 08     LDX #$08                       A:F0 X:00 Y:F0 P:25 SP:F2 CYC:166 SL:39
15:25:28: E33F  A9 00     LDA #$00                       A:F0 X:08 Y:F0 P:25 SP:F2 CYC:172 SL:39
15:25:28: E341  8D 07 20  STA $2007 = 00                 A:00 X:08 Y:F0 P:27 SP:F2 CYC:178 SL:39
15:25:28: E344  CA        DEX                            A:00 X:08 Y:F0 P:27 SP:F2 CYC:190 SL:39
15:25:28: E345  D0 FA     BNE $E341                      A:00 X:07 Y:F0 P:25 SP:F2 CYC:196 SL:39
15:25:28: 
LOOP: e345 -> e341 x 7

15:25:28: E347  A2 08     LDX #$08                       A:00 X:00 Y:F0 P:27 SP:F2 CYC: 50 SL:40
15:25:28: E349  B1 F0     LDA ($F0), Y = 00              A:00 X:08 Y:F0 P:25 SP:F2 CYC: 56 SL:40
15:25:28: E34B  C8        INY                            A:00 X:08 Y:F0 P:27 SP:F2 CYC: 74 SL:40
15:25:28: E34C  8D 07 20  STA $2007 = 00                 A:00 X:08 Y:F1 P:A5 SP:F2 CYC: 80 SL:40
15:25:28: E34F  CA        DEX                            A:00 X:08 Y:F1 P:A5 SP:F2 CYC: 92 SL:40
15:25:28: E350  D0 F7     BNE $E349                      A:00 X:07 Y:F1 P:25 SP:F2 CYC: 98 SL:40
15:25:28: 
LOOP: e350 -> e349 x 7

15:25:28: E352  98        TYA                            A:00 X:00 Y:F8 P:27 SP:F2 CYC:120 SL:41
15:25:28: E353  D0 02     BNE $E357                      A:F8 X:00 Y:F8 P:A5 SP:F2 CYC:126 SL:41
15:25:28: E357  C6 F2     DEC $F2 = 00                   A:F8 X:00 Y:F8 P:A5 SP:F2 CYC:135 SL:41
15:25:28: E359  D0 E2     BNE $E33D                      A:F8 X:00 Y:F8 P:25 SP:F2 CYC:150 SL:41
15:25:28: E33D  A2 08     LDX #$08                       A:F8 X:00 Y:F8 P:25 SP:F2 CYC:159 SL:41
15:25:28: E33F  A9 00     LDA #$00                       A:F8 X:08 Y:F8 P:25 SP:F2 CYC:165 SL:41
15:25:28: E341  8D 07 20  STA $2007 = 00                 A:00 X:08 Y:F8 P:27 SP:F2 CYC:171 SL:41
15:25:28: E344  CA        DEX                            A:00 X:08 Y:F8 P:27 SP:F2 CYC:183 SL:41
15:25:28: E345  D0 FA     BNE $E341                      A:00 X:07 Y:F8 P:25 SP:F2 CYC:189 SL:41
15:25:28: 
LOOP: e345 -> e341 x 7

15:25:28: E347  A2 08     LDX #$08                       A:00 X:00 Y:F8 P:27 SP:F2 CYC: 43 SL:42
15:25:28: E349  B1 F0     LDA ($F0), Y = 00              A:00 X:08 Y:F8 P:25 SP:F2 CYC: 49 SL:42
15:25:28: E34B  C8        INY                            A:00 X:08 Y:F8 P:27 SP:F2 CYC: 67 SL:42
15:25:28: E34C  8D 07 20  STA $2007 = 00                 A:00 X:08 Y:F9 P:A5 SP:F2 CYC: 73 SL:42
15:25:28: E34F  CA        DEX                            A:00 X:08 Y:F9 P:A5 SP:F2 CYC: 85 SL:42
15:25:28: E350  D0 F7     BNE $E349                      A:00 X:07 Y:F9 P:25 SP:F2 CYC: 91 SL:42
15:25:28: 
LOOP: e350 -> e349 x 7

15:25:28: E352  98        TYA                            A:00 X:00 Y:00 P:27 SP:F2 CYC:113 SL:43
15:25:28: E353  D0 02     BNE $E357                      A:00 X:00 Y:00 P:27 SP:F2 CYC:119 SL:43
15:25:28: E355  E6 F1     INC $F1 = 00                   A:00 X:00 Y:00 P:27 SP:F2 CYC:125 SL:43
15:25:28: E357  C6 F2     DEC $F2 = 00                   A:00 X:00 Y:00 P:A5 SP:F2 CYC:140 SL:43
15:25:28: E359  D0 E2     BNE $E33D                      A:00 X:00 Y:00 P:25 SP:F2 CYC:155 SL:43
15:25:28: E33D  A2 08     LDX #$08                       A:00 X:00 Y:00 P:25 SP:F2 CYC:164 SL:43
15:25:28: E33F  A9 00     LDA #$00                       A:00 X:08 Y:00 P:25 SP:F2 CYC:170 SL:43
15:25:28: E341  8D 07 20  STA $2007 = 00                 A:00 X:08 Y:00 P:27 SP:F2 CYC:176 SL:43
15:25:28: E344  CA        DEX                            A:00 X:08 Y:00 P:27 SP:F2 CYC:188 SL:43
15:25:28: E345  D0 FA     BNE $E341                      A:00 X:07 Y:00 P:25 SP:F2 CYC:194 SL:43
15:25:28: 
LOOP: e345 -> e341 x 7

15:25:28: E347  A2 08     LDX #$08                       A:00 X:00 Y:00 P:27 SP:F2 CYC: 48 SL:44
15:25:28: E349  B1 F0     LDA ($F0), Y = 00              A:00 X:08 Y:00 P:25 SP:F2 CYC: 54 SL:44
15:25:28: E34B  C8        INY                            A:38 X:08 Y:00 P:25 SP:F2 CYC: 69 SL:44
15:25:28: E34C  8D 07 20  STA $2007 = 00                 A:38 X:08 Y:01 P:25 SP:F2 CYC: 75 SL:44
15:25:28: E34F  CA        DEX                            A:38 X:08 Y:01 P:25 SP:F2 CYC: 87 SL:44
15:25:28: E350  D0 F7     BNE $E349                      A:38 X:07 Y:01 P:25 SP:F2 CYC: 93 SL:44
15:25:28: 
LOOP: e350 -> e349 x 7

15:25:28: E352  98        TYA                            A:00 X:00 Y:08 P:27 SP:F2 CYC: 94 SL:45
15:25:28: E353  D0 02     BNE $E357                      A:08 X:00 Y:08 P:25 SP:F2 CYC:100 SL:45
15:25:28: E357  C6 F2     DEC $F2 = 00                   A:08 X:00 Y:08 P:25 SP:F2 CYC:109 SL:45
15:25:28: E359  D0 E2     BNE $E33D                      A:08 X:00 Y:08 P:25 SP:F2 CYC:124 SL:45
15:25:28: E33D  A2 08     LDX #$08                       A:08 X:00 Y:08 P:25 SP:F2 CYC:133 SL:45
15:25:28: E33F  A9 00     LDA #$00                       A:08 X:08 Y:08 P:25 SP:F2 CYC:139 SL:45
15:25:28: E341  8D 07 20  STA $2007 = 00                 A:00 X:08 Y:08 P:27 SP:F2 CYC:145 SL:45
15:25:28: E344  CA        DEX                            A:00 X:08 Y:08 P:27 SP:F2 CYC:157 SL:45
15:25:28: E345  D0 FA     BNE $E341                      A:00 X:07 Y:08 P:25 SP:F2 CYC:163 SL:45
15:25:28: 
LOOP: e345 -> e341 x 7

15:25:28: E347  A2 08     LDX #$08                       A:00 X:00 Y:08 P:27 SP:F2 CYC: 17 SL:46
15:25:28: E349  B1 F0     LDA ($F0), Y = 00              A:00 X:08 Y:08 P:25 SP:F2 CYC: 23 SL:46
15:25:28: E34B  C8        INY                            A:38 X:08 Y:08 P:25 SP:F2 CYC: 38 SL:46
15:25:28: E34C  8D 07 20  STA $2007 = 00                 A:38 X:08 Y:09 P:25 SP:F2 CYC: 44 SL:46
15:25:28: E34F  CA        DEX                            A:38 X:08 Y:09 P:25 SP:F2 CYC: 56 SL:46
15:25:28: E350  D0 F7     BNE $E349                      A:38 X:07 Y:09 P:25 SP:F2 CYC: 62 SL:46
15:25:28: 
LOOP: e350 -> e349 x 7

15:25:28: E352  98        TYA                            A:00 X:00 Y:10 P:27 SP:F2 CYC: 63 SL:47
15:25:28: E353  D0 02     BNE $E357                      A:10 X:00 Y:10 P:25 SP:F2 CYC: 69 SL:47
15:25:28: E357  C6 F2     DEC $F2 = 00                   A:10 X:00 Y:10 P:25 SP:F2 CYC: 78 SL:47
15:25:28: E359  D0 E2     BNE $E33D                      A:10 X:00 Y:10 P:25 SP:F2 CYC: 93 SL:47
15:25:28: E33D  A2 08     LDX #$08                       A:10 X:00 Y:10 P:25 SP:F2 CYC:102 SL:47
15:25:28: E33F  A9 00     LDA #$00                       A:10 X:08 Y:10 P:25 SP:F2 CYC:108 SL:47
15:25:28: E341  8D 07 20  STA $2007 = 00                 A:00 X:08 Y:10 P:27 SP:F2 CYC:114 SL:47
15:25:28: E344  CA        DEX                            A:00 X:08 Y:10 P:27 SP:F2 CYC:126 SL:47
15:25:28: E345  D0 FA     BNE $E341                      A:00 X:07 Y:10 P:25 SP:F2 CYC:132 SL:47
15:25:28: 
LOOP: e345 -> e341 x 7

15:25:28: E347  A2 08     LDX #$08                       A:00 X:00 Y:10 P:27 SP:F2 CYC:327 SL:47
15:25:28: E349  B1 F0     LDA ($F0), Y = 00              A:00 X:08 Y:10 P:25 SP:F2 CYC:333 SL:47
15:25:28: E34B  C8        INY                            A:FC X:08 Y:10 P:A5 SP:F2 CYC:  7 SL:48
15:25:28: E34C  8D 07 20  STA $2007 = 00                 A:FC X:08 Y:11 P:25 SP:F2 CYC: 13 SL:48
15:25:28: E34F  CA        DEX                            A:FC X:08 Y:11 P:25 SP:F2 CYC: 25 SL:48
15:25:28: E350  D0 F7     BNE $E349                      A:FC X:07 Y:11 P:25 SP:F2 CYC: 31 SL:48
15:25:28: 
LOOP: e350 -> e349 x 7

15:25:28: E352  98        TYA                            A:00 X:00 Y:18 P:27 SP:F2 CYC: 32 SL:49
15:25:28: E353  D0 02     BNE $E357                      A:18 X:00 Y:18 P:25 SP:F2 CYC: 38 SL:49
15:25:28: E357  C6 F2     DEC $F2 = 00                   A:18 X:00 Y:18 P:25 SP:F2 CYC: 47 SL:49
15:25:28: E359  D0 E2     BNE $E33D                      A:18 X:00 Y:18 P:25 SP:F2 CYC: 62 SL:49
15:25:28: E33D  A2 08     LDX #$08                       A:18 X:00 Y:18 P:25 SP:F2 CYC: 71 SL:49
15:25:28: E33F  A9 00     LDA #$00                       A:18 X:08 Y:18 P:25 SP:F2 CYC: 77 SL:49
15:25:28: E341  8D 07 20  STA $2007 = 00                 A:00 X:08 Y:18 P:27 SP:F2 CYC: 83 SL:49
15:25:28: E344  CA        DEX                            A:00 X:08 Y:18 P:27 SP:F2 CYC: 95 SL:49
15:25:28: E345  D0 FA     BNE $E341                      A:00 X:07 Y:18 P:25 SP:F2 CYC:101 SL:49
15:25:28: 
LOOP: e345 -> e341 x 7

15:25:28: E347  A2 08     LDX #$08                       A:00 X:00 Y:18 P:27 SP:F2 CYC:296 SL:49
15:25:28: E349  B1 F0     LDA ($F0), Y = 00              A:00 X:08 Y:18 P:25 SP:F2 CYC:302 SL:49
15:25:28: E34B  C8        INY                            A:3C X:08 Y:18 P:25 SP:F2 CYC:317 SL:49
15:25:28: E34C  8D 07 20  STA $2007 = 00                 A:3C X:08 Y:19 P:25 SP:F2 CYC:323 SL:49
15:25:28: E34F  CA        DEX                            A:3C X:08 Y:19 P:25 SP:F2 CYC:335 SL:49
15:25:28: E350  D0 F7     BNE $E349                      A:3C X:07 Y:19 P:25 SP:F2 CYC:  0 SL:50
15:25:28: 
LOOP: e350 -> e349 x 7

15:25:28: E352  98        TYA                            A:00 X:00 Y:20 P:27 SP:F2 CYC:  1 SL:51
15:25:28: E353  D0 02     BNE $E357                      A:20 X:00 Y:20 P:25 SP:F2 CYC:  7 SL:51
15:25:28: E357  C6 F2     DEC $F2 = 00                   A:20 X:00 Y:20 P:25 SP:F2 CYC: 16 SL:51
15:25:28: E359  D0 E2     BNE $E33D                      A:20 X:00 Y:20 P:25 SP:F2 CYC: 31 SL:51
15:25:28: E33D  A2 08     LDX #$08                       A:20 X:00 Y:20 P:25 SP:F2 CYC: 40 SL:51
15:25:28: E33F  A9 00     LDA #$00                       A:20 X:08 Y:20 P:25 SP:F2 CYC: 46 SL:51
15:25:28: E341  8D 07 20  STA $2007 = 00                 A:00 X:08 Y:20 P:27 SP:F2 CYC: 52 SL:51
15:25:28: E344  CA        DEX                            A:00 X:08 Y:20 P:27 SP:F2 CYC: 64 SL:51
15:25:28: E345  D0 FA     BNE $E341                      A:00 X:07 Y:20 P:25 SP:F2 CYC: 70 SL:51
15:25:28: 
LOOP: e345 -> e341 x 7

15:25:28: E347  A2 08     LDX #$08                       A:00 X:00 Y:20 P:27 SP:F2 CYC:265 SL:51
15:25:28: E349  B1 F0     LDA ($F0), Y = 00              A:00 X:08 Y:20 P:25 SP:F2 CYC:271 SL:51
15:25:28: E34B  C8        INY                            A:F8 X:08 Y:20 P:A5 SP:F2 CYC:286 SL:51
15:25:28: E34C  8D 07 20  STA $2007 = 00                 A:F8 X:08 Y:21 P:25 SP:F2 CYC:292 SL:51
15:25:28: E34F  CA        DEX                            A:F8 X:08 Y:21 P:25 SP:F2 CYC:304 SL:51
15:25:28: E350  D0 F7     BNE $E349                      A:F8 X:07 Y:21 P:25 SP:F2 CYC:310 SL:51
15:25:28: 
LOOP: e350 -> e349 x 7

15:25:28: E352  98        TYA                            A:00 X:00 Y:28 P:27 SP:F2 CYC:311 SL:52
15:25:28: E353  D0 02     BNE $E357                      A:28 X:00 Y:28 P:25 SP:F2 CYC:317 SL:52
15:25:28: E357  C6 F2     DEC $F2 = 00                   A:28 X:00 Y:28 P:25 SP:F2 CYC:326 SL:52
15:25:28: E359  D0 E2     BNE $E33D                      A:28 X:00 Y:28 P:25 SP:F2 CYC:  0 SL:53
15:25:28: E33D  A2 08     LDX #$08                       A:28 X:00 Y:28 P:25 SP:F2 CYC:  9 SL:53
15:25:28: E33F  A9 00     LDA #$00                       A:28 X:08 Y:28 P:25 SP:F2 CYC: 15 SL:53
15:25:28: E341  8D 07 20  STA $2007 = 00                 A:00 X:08 Y:28 P:27 SP:F2 CYC: 21 SL:53
15:25:28: E344  CA        DEX                            A:00 X:08 Y:28 P:27 SP:F2 CYC: 33 SL:53
15:25:28: E345  D0 FA     BNE $E341                      A:00 X:07 Y:28 P:25 SP:F2 CYC: 39 SL:53
15:25:28: 
LOOP: e345 -> e341 x 7

15:25:28: E347  A2 08     LDX #$08                       A:00 X:00 Y:28 P:27 SP:F2 CYC:234 SL:53
15:25:28: E349  B1 F0     LDA ($F0), Y = 00              A:00 X:08 Y:28 P:25 SP:F2 CYC:240 SL:53
15:25:28: E34B  C8        INY                            A:FE X:08 Y:28 P:A5 SP:F2 CYC:255 SL:53
15:25:28: E34C  8D 07 20  STA $2007 = 00                 A:FE X:08 Y:29 P:25 SP:F2 CYC:261 SL:53
15:25:28: E34F  CA        DEX                            A:FE X:08 Y:29 P:25 SP:F2 CYC:273 SL:53
15:25:28: E350  D0 F7     BNE $E349                      A:FE X:07 Y:29 P:25 SP:F2 CYC:279 SL:53
15:25:28: 
LOOP: e350 -> e349 x 7

15:25:28: E352  98        TYA                            A:00 X:00 Y:30 P:27 SP:F2 CYC:280 SL:54
15:25:28: E353  D0 02     BNE $E357                      A:30 X:00 Y:30 P:25 SP:F2 CYC:286 SL:54
15:25:28: E357  C6 F2     DEC $F2 = 00                   A:30 X:00 Y:30 P:25 SP:F2 CYC:295 SL:54
15:25:28: E359  D0 E2     BNE $E33D                      A:30 X:00 Y:30 P:25 SP:F2 CYC:310 SL:54
15:25:28: E33D  A2 08     LDX #$08                       A:30 X:00 Y:30 P:25 SP:F2 CYC:319 SL:54
15:25:28: E33F  A9 00     LDA #$00                       A:30 X:08 Y:30 P:25 SP:F2 CYC:325 SL:54
15:25:28: E341  8D 07 20  STA $2007 = 00                 A:00 X:08 Y:30 P:27 SP:F2 CYC:331 SL:54
15:25:28: E344  CA        DEX                            A:00 X:08 Y:30 P:27 SP:F2 CYC:  2 SL:55
15:25:28: E345  D0 FA     BNE $E341                      A:00 X:07 Y:30 P:25 SP:F2 CYC:  8 SL:55
15:25:28: 
LOOP: e345 -> e341 x 7

15:25:28: E347  A2 08     LDX #$08                       A:00 X:00 Y:30 P:27 SP:F2 CYC:203 SL:55
15:25:28: E349  B1 F0     LDA ($F0), Y = 00              A:00 X:08 Y:30 P:25 SP:F2 CYC:209 SL:55
15:25:28: E34B  C8        INY                            A:FE X:08 Y:30 P:A5 SP:F2 CYC:224 SL:55
15:25:28: E34C  8D 07 20  STA $2007 = 00                 A:FE X:08 Y:31 P:25 SP:F2 CYC:230 SL:55
15:25:28: E34F  CA        DEX                            A:FE X:08 Y:31 P:25 SP:F2 CYC:242 SL:55
15:25:28: E350  D0 F7     BNE $E349                      A:FE X:07 Y:31 P:25 SP:F2 CYC:248 SL:55
15:25:28: 
LOOP: e350 -> e349 x 7

15:25:28: E352  98        TYA                            A:00 X:00 Y:38 P:27 SP:F2 CYC:249 SL:56
15:25:28: E353  D0 02     BNE $E357                      A:38 X:00 Y:38 P:25 SP:F2 CYC:255 SL:56
15:25:28: E357  C6 F2     DEC $F2 = 00                   A:38 X:00 Y:38 P:25 SP:F2 CYC:264 SL:56
15:25:28: E359  D0 E2     BNE $E33D                      A:38 X:00 Y:38 P:25 SP:F2 CYC:279 SL:56
15:25:28: E33D  A2 08     LDX #$08                       A:38 X:00 Y:38 P:25 SP:F2 CYC:288 SL:56
15:25:28: E33F  A9 00     LDA #$00                       A:38 X:08 Y:38 P:25 SP:F2 CYC:294 SL:56
15:25:28: E341  8D 07 20  STA $2007 = 00                 A:00 X:08 Y:38 P:27 SP:F2 CYC:300 SL:56
15:25:28: E344  CA        DEX                            A:00 X:08 Y:38 P:27 SP:F2 CYC:312 SL:56
15:25:28: E345  D0 FA     BNE $E341                      A:00 X:07 Y:38 P:25 SP:F2 CYC:318 SL:56
15:25:28: 
LOOP: e345 -> e341 x 7

15:25:28: E347  A2 08     LDX #$08                       A:00 X:00 Y:38 P:27 SP:F2 CYC:172 SL:57
15:25:28: E349  B1 F0     LDA ($F0), Y = 00              A:00 X:08 Y:38 P:25 SP:F2 CYC:178 SL:57
15:25:28: E34B  C8        INY                            A:3C X:08 Y:38 P:25 SP:F2 CYC:193 SL:57
15:25:28: E34C  8D 07 20  STA $2007 = 00                 A:3C X:08 Y:39 P:25 SP:F2 CYC:199 SL:57
15:25:28: E34F  CA        DEX                            A:3C X:08 Y:39 P:25 SP:F2 CYC:211 SL:57
15:25:28: E350  D0 F7     BNE $E349                      A:3C X:07 Y:39 P:25 SP:F2 CYC:217 SL:57
15:25:28: 
LOOP: e350 -> e349 x 7

15:25:28: E352  98        TYA                            A:00 X:00 Y:40 P:27 SP:F2 CYC:218 SL:58
15:25:28: E353  D0 02     BNE $E357                      A:40 X:00 Y:40 P:25 SP:F2 CYC:224 SL:58
15:25:28: E357  C6 F2     DEC $F2 = 00                   A:40 X:00 Y:40 P:25 SP:F2 CYC:233 SL:58
15:25:28: E359  D0 E2     BNE $E33D                      A:40 X:00 Y:40 P:25 SP:F2 CYC:248 SL:58
15:25:28: E33D  A2 08     LDX #$08                       A:40 X:00 Y:40 P:25 SP:F2 CYC:257 SL:58
15:25:28: E33F  A9 00     LDA #$00                       A:40 X:08 Y:40 P:25 SP:F2 CYC:263 SL:58
15:25:28: E341  8D 07 20  STA $2007 = 00                 A:00 X:08 Y:40 P:27 SP:F2 CYC:269 SL:58
15:25:28: E344  CA        DEX                            A:00 X:08 Y:40 P:27 SP:F2 CYC:281 SL:58
15:25:28: E345  D0 FA     BNE $E341                      A:00 X:07 Y:40 P:25 SP:F2 CYC:287 SL:58
15:25:28: 
LOOP: e345 -> e341 x 7

15:25:28: E347  A2 08     LDX #$08                       A:00 X:00 Y:40 P:27 SP:F2 CYC:141 SL:59
15:25:28: E349  B1 F0     LDA ($F0), Y = 00              A:00 X:08 Y:40 P:25 SP:F2 CYC:147 SL:59
15:25:28: E34B  C8        INY                            A:C6 X:08 Y:40 P:A5 SP:F2 CYC:162 SL:59
15:25:28: E34C  8D 07 20  STA $2007 = 00                 A:C6 X:08 Y:41 P:25 SP:F2 CYC:168 SL:59
15:25:28: E34F  CA        DEX                            A:C6 X:08 Y:41 P:25 SP:F2 CYC:180 SL:59
15:25:28: E350  D0 F7     BNE $E349                      A:C6 X:07 Y:41 P:25 SP:F2 CYC:186 SL:59
15:25:28: 
LOOP: e350 -> e349 x 7

15:25:28: E352  98        TYA                            A:00 X:00 Y:48 P:27 SP:F2 CYC:187 SL:60
15:25:28: E353  D0 02     BNE $E357                      A:48 X:00 Y:48 P:25 SP:F2 CYC:193 SL:60
15:25:28: E357  C6 F2     DEC $F2 = 00                   A:48 X:00 Y:48 P:25 SP:F2 CYC:202 SL:60
15:25:28: E359  D0 E2     BNE $E33D                      A:48 X:00 Y:48 P:25 SP:F2 CYC:217 SL:60
15:25:28: E33D  A2 08     LDX #$08                       A:48 X:00 Y:48 P:25 SP:F2 CYC:226 SL:60
15:25:28: E33F  A9 00     LDA #$00                       A:48 X:08 Y:48 P:25 SP:F2 CYC:232 SL:60
15:25:28: E341  8D 07 20  STA $2007 = 00                 A:00 X:08 Y:48 P:27 SP:F2 CYC:238 SL:60
15:25:28: E344  CA        DEX                            A:00 X:08 Y:48 P:27 SP:F2 CYC:250 SL:60
15:25:28: E345  D0 FA     BNE $E341                      A:00 X:07 Y:48 P:25 SP:F2 CYC:256 SL:60
15:25:28: 
LOOP: e345 -> e341 x 7

15:25:28: E347  A2 08     LDX #$08                       A:00 X:00 Y:48 P:27 SP:F2 CYC:110 SL:61
15:25:28: E349  B1 F0     LDA ($F0), Y = 00              A:00 X:08 Y:48 P:25 SP:F2 CYC:116 SL:61
15:25:28: E34B  C8        INY                            A:7E X:08 Y:48 P:25 SP:F2 CYC:131 SL:61
15:25:28: E34C  8D 07 20  STA $2007 = 00                 A:7E X:08 Y:49 P:25 SP:F2 CYC:137 SL:61
15:25:28: E34F  CA        DEX                            A:7E X:08 Y:49 P:25 SP:F2 CYC:149 SL:61
15:25:28: E350  D0 F7     BNE $E349                      A:7E X:07 Y:49 P:25 SP:F2 CYC:155 SL:61
15:25:28: 
LOOP: e350 -> e349 x 7

15:25:28: E352  98        TYA                            A:00 X:00 Y:50 P:27 SP:F2 CYC:156 SL:62
15:25:28: E353  D0 02     BNE $E357                      A:50 X:00 Y:50 P:25 SP:F2 CYC:162 SL:62
15:25:28: E357  C6 F2     DEC $F2 = 00                   A:50 X:00 Y:50 P:25 SP:F2 CYC:171 SL:62
15:25:28: E359  D0 E2     BNE $E33D                      A:50 X:00 Y:50 P:25 SP:F2 CYC:186 SL:62
15:25:28: E33D  A2 08     LDX #$08                       A:50 X:00 Y:50 P:25 SP:F2 CYC:195 SL:62
15:25:28: E33F  A9 00     LDA #$00                       A:50 X:08 Y:50 P:25 SP:F2 CYC:201 SL:62
15:25:28: E341  8D 07 20  STA $2007 = 00                 A:00 X:08 Y:50 P:27 SP:F2 CYC:207 SL:62
15:25:28: E344  CA        DEX                            A:00 X:08 Y:50 P:27 SP:F2 CYC:219 SL:62
15:25:28: E345  D0 FA     BNE $E341                      A:00 X:07 Y:50 P:25 SP:F2 CYC:225 SL:62
15:25:28: 
LOOP: e345 -> e341 x 7

15:25:28: E347  A2 08     LDX #$08                       A:00 X:00 Y:50 P:27 SP:F2 CYC: 79 SL:63
15:25:28: E349  B1 F0     LDA ($F0), Y = 00              A:00 X:08 Y:50 P:25 SP:F2 CYC: 85 SL:63
15:25:28: E34B  C8        INY                            A:0E X:08 Y:50 P:25 SP:F2 CYC:100 SL:63
15:25:28: E34C  8D 07 20  STA $2007 = 00                 A:0E X:08 Y:51 P:25 SP:F2 CYC:106 SL:63
15:25:28: E34F  CA        DEX                            A:0E X:08 Y:51 P:25 SP:F2 CYC:118 SL:63
15:25:28: E350  D0 F7     BNE $E349                      A:0E X:07 Y:51 P:25 SP:F2 CYC:124 SL:63
15:25:28: 
LOOP: e350 -> e349 x 7

15:25:28: E352  98        TYA                            A:00 X:00 Y:58 P:27 SP:F2 CYC:125 SL:64
15:25:28: E353  D0 02     BNE $E357                      A:58 X:00 Y:58 P:25 SP:F2 CYC:131 SL:64
15:25:28: E357  C6 F2     DEC $F2 = 00                   A:58 X:00 Y:58 P:25 SP:F2 CYC:140 SL:64
15:25:28: E359  D0 E2     BNE $E33D                      A:58 X:00 Y:58 P:25 SP:F2 CYC:155 SL:64
15:25:28: E33D  A2 08     LDX #$08                       A:58 X:00 Y:58 P:25 SP:F2 CYC:164 SL:64
15:25:28: E33F  A9 00     LDA #$00                       A:58 X:08 Y:58 P:25 SP:F2 CYC:170 SL:64
15:25:28: E341  8D 07 20  STA $2007 = 00                 A:00 X:08 Y:58 P:27 SP:F2 CYC:176 SL:64
15:25:28: E344  CA        DEX                            A:00 X:08 Y:58 P:27 SP:F2 CYC:188 SL:64
15:25:28: E345  D0 FA     BNE $E341                      A:00 X:07 Y:58 P:25 SP:F2 CYC:194 SL:64
15:25:28: 
LOOP: e345 -> e341 x 7

15:25:28: E347  A2 08     LDX #$08                       A:00 X:00 Y:58 P:27 SP:F2 CYC: 48 SL:65
15:25:28: E349  B1 F0     LDA ($F0), Y = 00              A:00 X:08 Y:58 P:25 SP:F2 CYC: 54 SL:65
15:25:28: E34B  C8        INY                            A:C6 X:08 Y:58 P:A5 SP:F2 CYC: 69 SL:65
15:25:28: E34C  8D 07 20  STA $2007 = 00                 A:C6 X:08 Y:59 P:25 SP:F2 CYC: 75 SL:65
15:25:28: E34F  CA        DEX                            A:C6 X:08 Y:59 P:25 SP:F2 CYC: 87 SL:65
15:25:28: E350  D0 F7     BNE $E349                      A:C6 X:07 Y:59 P:25 SP:F2 CYC: 93 SL:65
15:25:28: 
LOOP: e350 -> e349 x 7

15:25:28: E352  98        TYA                            A:00 X:00 Y:60 P:27 SP:F2 CYC: 94 SL:66
15:25:28: E353  D0 02     BNE $E357                      A:60 X:00 Y:60 P:25 SP:F2 CYC:100 SL:66
15:25:28: E357  C6 F2     DEC $F2 = 00                   A:60 X:00 Y:60 P:25 SP:F2 CYC:109 SL:66
15:25:28: E359  D0 E2     BNE $E33D                      A:60 X:00 Y:60 P:25 SP:F2 CYC:124 SL:66
15:25:28: E33D  A2 08     LDX #$08                       A:60 X:00 Y:60 P:25 SP:F2 CYC:133 SL:66
15:25:28: E33F  A9 00     LDA #$00                       A:60 X:08 Y:60 P:25 SP:F2 CYC:139 SL:66
15:25:28: E341  8D 07 20  STA $2007 = 00                 A:00 X:08 Y:60 P:27 SP:F2 CYC:145 SL:66
15:25:28: E344  CA        DEX                            A:00 X:08 Y:60 P:27 SP:F2 CYC:157 SL:66
15:25:28: E345  D0 FA     BNE $E341                      A:00 X:07 Y:60 P:25 SP:F2 CYC:163 SL:66
15:25:28: 
LOOP: e345 -> e341 x 7

15:25:28: E347  A2 08     LDX #$08                       A:00 X:00 Y:60 P:27 SP:F2 CYC: 17 SL:67
15:25:28: E349  B1 F0     LDA ($F0), Y = 00              A:00 X:08 Y:60 P:25 SP:F2 CYC: 23 SL:67
15:25:28: E34B  C8        INY                            A:60 X:08 Y:60 P:25 SP:F2 CYC: 38 SL:67
15:25:28: E34C  8D 07 20  STA $2007 = 00                 A:60 X:08 Y:61 P:25 SP:F2 CYC: 44 SL:67
15:25:28: E34F  CA        DEX                            A:60 X:08 Y:61 P:25 SP:F2 CYC: 56 SL:67
15:25:28: E350  D0 F7     BNE $E349                      A:60 X:07 Y:61 P:25 SP:F2 CYC: 62 SL:67
15:25:28: 
LOOP: e350 -> e349 x 7

15:25:28: E352  98        TYA                            A:00 X:00 Y:68 P:27 SP:F2 CYC: 63 SL:68
15:25:28: E353  D0 02     BNE $E357                      A:68 X:00 Y:68 P:25 SP:F2 CYC: 69 SL:68
15:25:28: E357  C6 F2     DEC $F2 = 00                   A:68 X:00 Y:68 P:25 SP:F2 CYC: 78 SL:68
15:25:28: E359  D0 E2     BNE $E33D                      A:68 X:00 Y:68 P:25 SP:F2 CYC: 93 SL:68
15:25:28: E33D  A2 08     LDX #$08                       A:68 X:00 Y:68 P:25 SP:F2 CYC:102 SL:68
15:25:28: E33F  A9 00     LDA #$00                       A:68 X:08 Y:68 P:25 SP:F2 CYC:108 SL:68
15:25:28: E341  8D 07 20  STA $2007 = 00                 A:00 X:08 Y:68 P:27 SP:F2 CYC:114 SL:68
15:25:28: E344  CA        DEX                            A:00 X:08 Y:68 P:27 SP:F2 CYC:126 SL:68
15:25:28: E345  D0 FA     BNE $E341                      A:00 X:07 Y:68 P:25 SP:F2 CYC:132 SL:68
15:25:28: 
LOOP: e345 -> e341 x 7

15:25:28: E347  A2 08     LDX #$08                       A:00 X:00 Y:68 P:27 SP:F2 CYC:327 SL:68
15:25:28: E349  B1 F0     LDA ($F0), Y = 00              A:00 X:08 Y:68 P:25 SP:F2 CYC:333 SL:68
15:25:28: E34B  C8        INY                            A:C6 X:08 Y:68 P:A5 SP:F2 CYC:  7 SL:69
15:25:28: E34C  8D 07 20  STA $2007 = 00                 A:C6 X:08 Y:69 P:25 SP:F2 CYC: 13 SL:69
15:25:28: E34F  CA        DEX                            A:C6 X:08 Y:69 P:25 SP:F2 CYC: 25 SL:69
15:25:28: E350  D0 F7     BNE $E349                      A:C6 X:07 Y:69 P:25 SP:F2 CYC: 31 SL:69
15:25:28: 
LOOP: e350 -> e349 x 7

15:25:28: E352  98        TYA                            A:00 X:00 Y:70 P:27 SP:F2 CYC: 32 SL:70
15:25:28: E353  D0 02     BNE $E357                      A:70 X:00 Y:70 P:25 SP:F2 CYC: 38 SL:70
15:25:28: E357  C6 F2     DEC $F2 = 00                   A:70 X:00 Y:70 P:25 SP:F2 CYC: 47 SL:70
15:25:28: E359  D0 E2     BNE $E33D                      A:70 X:00 Y:70 P:25 SP:F2 CYC: 62 SL:70
15:25:28: E33D  A2 08     LDX #$08                       A:70 X:00 Y:70 P:25 SP:F2 CYC: 71 SL:70
15:25:28: E33F  A9 00     LDA #$00                       A:70 X:08 Y:70 P:25 SP:F2 CYC: 77 SL:70
15:25:28: E341  8D 07 20  STA $2007 = 00                 A:00 X:08 Y:70 P:27 SP:F2 CYC: 83 SL:70
15:25:28: E344  CA        DEX                            A:00 X:08 Y:70 P:27 SP:F2 CYC: 95 SL:70
15:25:28: E345  D0 FA     BNE $E341                      A:00 X:07 Y:70 P:25 SP:F2 CYC:101 SL:70
15:25:28: 
LOOP: e345 -> e341 x 7

15:25:28: E347  A2 08     LDX #$08                       A:00 X:00 Y:70 P:27 SP:F2 CYC:296 SL:70
15:25:28: E349  B1 F0     LDA ($F0), Y = 00              A:00 X:08 Y:70 P:25 SP:F2 CYC:302 SL:70
15:25:28: E34B  C8        INY                            A:C6 X:08 Y:70 P:A5 SP:F2 CYC:317 SL:70
15:25:28: E34C  8D 07 20  STA $2007 = 00                 A:C6 X:08 Y:71 P:25 SP:F2 CYC:323 SL:70
15:25:28: E34F  CA        DEX                            A:C6 X:08 Y:71 P:25 SP:F2 CYC:335 SL:70
15:25:28: E350  D0 F7     BNE $E349                      A:C6 X:07 Y:71 P:25 SP:F2 CYC:  0 SL:71
15:25:28: 
LOOP: e350 -> e349 x 7

15:25:28: E352  98        TYA                            A:00 X:00 Y:78 P:27 SP:F2 CYC:  1 SL:72
15:25:28: E353  D0 02     BNE $E357                      A:78 X:00 Y:78 P:25 SP:F2 CYC:  7 SL:72
15:25:28: E357  C6 F2     DEC $F2 = 00                   A:78 X:00 Y:78 P:25 SP:F2 CYC: 16 SL:72
15:25:28: E359  D0 E2     BNE $E33D                      A:78 X:00 Y:78 P:25 SP:F2 CYC: 31 SL:72
15:25:28: E33D  A2 08     LDX #$08                       A:78 X:00 Y:78 P:25 SP:F2 CYC: 40 SL:72
15:25:28: E33F  A9 00     LDA #$00                       A:78 X:08 Y:78 P:25 SP:F2 CYC: 46 SL:72
15:25:28: E341  8D 07 20  STA $2007 = 00                 A:00 X:08 Y:78 P:27 SP:F2 CYC: 52 SL:72
15:25:28: E344  CA        DEX                            A:00 X:08 Y:78 P:27 SP:F2 CYC: 64 SL:72
15:25:28: E345  D0 FA     BNE $E341                      A:00 X:07 Y:78 P:25 SP:F2 CYC: 70 SL:72
15:25:28: 
LOOP: e345 -> e341 x 7

15:25:28: E347  A2 08     LDX #$08                       A:00 X:00 Y:78 P:27 SP:F2 CYC:265 SL:72
15:25:28: E349  B1 F0     LDA ($F0), Y = 00              A:00 X:08 Y:78 P:25 SP:F2 CYC:271 SL:72
15:25:28: E34B  C8        INY                            A:7C X:08 Y:78 P:25 SP:F2 CYC:286 SL:72
15:25:28: E34C  8D 07 20  STA $2007 = 00                 A:7C X:08 Y:79 P:25 SP:F2 CYC:292 SL:72
15:25:28: E34F  CA        DEX                            A:7C X:08 Y:79 P:25 SP:F2 CYC:304 SL:72
15:25:28: E350  D0 F7     BNE $E349                      A:7C X:07 Y:79 P:25 SP:F2 CYC:310 SL:72
15:25:28: 
LOOP: e350 -> e349 x 7

15:25:28: E352  98        TYA                            A:00 X:00 Y:80 P:27 SP:F2 CYC:311 SL:73
15:25:28: E353  D0 02     BNE $E357                      A:80 X:00 Y:80 P:A5 SP:F2 CYC:317 SL:73
15:25:28: E357  C6 F2     DEC $F2 = 00                   A:80 X:00 Y:80 P:A5 SP:F2 CYC:326 SL:73
15:25:28: E359  D0 E2     BNE $E33D                      A:80 X:00 Y:80 P:25 SP:F2 CYC:  0 SL:74
15:25:28: E33D  A2 08     LDX #$08                       A:80 X:00 Y:80 P:25 SP:F2 CYC:  9 SL:74
15:25:28: E33F  A9 00     LDA #$00                       A:80 X:08 Y:80 P:25 SP:F2 CYC: 15 SL:74
15:25:28: E341  8D 07 20  STA $2007 = 00                 A:00 X:08 Y:80 P:27 SP:F2 CYC: 21 SL:74
15:25:28: E344  CA        DEX                            A:00 X:08 Y:80 P:27 SP:F2 CYC: 33 SL:74
15:25:28: E345  D0 FA     BNE $E341                      A:00 X:07 Y:80 P:25 SP:F2 CYC: 39 SL:74
15:25:28: 
LOOP: e345 -> e341 x 7

15:25:28: E347  A2 08     LDX #$08                       A:00 X:00 Y:80 P:27 SP:F2 CYC:234 SL:74
15:25:28: E349  B1 F0     LDA ($F0), Y = 00              A:00 X:08 Y:80 P:25 SP:F2 CYC:240 SL:74
15:25:28: E34B  C8        INY                            A:FC X:08 Y:80 P:A5 SP:F2 CYC:255 SL:74
15:25:28: E34C  8D 07 20  STA $2007 = 00                 A:FC X:08 Y:81 P:A5 SP:F2 CYC:261 SL:74
15:25:28: E34F  CA        DEX                            A:FC X:08 Y:81 P:A5 SP:F2 CYC:273 SL:74
15:25:28: E350  D0 F7     BNE $E349                      A:FC X:07 Y:81 P:25 SP:F2 CYC:279 SL:74
15:25:28: 
LOOP: e350 -> e349 x 7

15:25:28: E352  98        TYA                            A:00 X:00 Y:88 P:27 SP:F2 CYC:280 SL:75
15:25:28: E353  D0 02     BNE $E357                      A:88 X:00 Y:88 P:A5 SP:F2 CYC:286 SL:75
15:25:28: E357  C6 F2     DEC $F2 = 00                   A:88 X:00 Y:88 P:A5 SP:F2 CYC:295 SL:75
15:25:28: E359  D0 E2     BNE $E33D                      A:88 X:00 Y:88 P:25 SP:F2 CYC:310 SL:75
15:25:28: E33D  A2 08     LDX #$08                       A:88 X:00 Y:88 P:25 SP:F2 CYC:319 SL:75
15:25:28: E33F  A9 00     LDA #$00                       A:88 X:08 Y:88 P:25 SP:F2 CYC:325 SL:75
15:25:28: E341  8D 07 20  STA $2007 = 00                 A:00 X:08 Y:88 P:27 SP:F2 CYC:331 SL:75
15:25:28: E344  CA        DEX                            A:00 X:08 Y:88 P:27 SP:F2 CYC:  2 SL:76
15:25:28: E345  D0 FA     BNE $E341                      A:00 X:07 Y:88 P:25 SP:F2 CYC:  8 SL:76
15:25:28: 
LOOP: e345 -> e341 x 7

15:25:28: E347  A2 08     LDX #$08                       A:00 X:00 Y:88 P:27 SP:F2 CYC:203 SL:76
15:25:28: E349  B1 F0     LDA ($F0), Y = 00              A:00 X:08 Y:88 P:25 SP:F2 CYC:209 SL:76
15:25:28: E34B  C8        INY                            A:7C X:08 Y:88 P:25 SP:F2 CYC:224 SL:76
15:25:28: E34C  8D 07 20  STA $2007 = 00                 A:7C X:08 Y:89 P:A5 SP:F2 CYC:230 SL:76
15:25:28: E34F  CA        DEX                            A:7C X:08 Y:89 P:A5 SP:F2 CYC:242 SL:76
15:25:28: E350  D0 F7     BNE $E349                      A:7C X:07 Y:89 P:25 SP:F2 CYC:248 SL:76
15:25:28: 
LOOP: e350 -> e349 x 7

15:25:28: E352  98        TYA                            A:00 X:00 Y:90 P:27 SP:F2 CYC:252 SL:77
15:25:28: E353  D0 02     BNE $E357                      A:90 X:00 Y:90 P:A5 SP:F2 CYC:258 SL:77
15:25:28: E357  C6 F2     DEC $F2 = 00                   A:90 X:00 Y:90 P:A5 SP:F2 CYC:267 SL:77
15:25:28: E359  D0 E2     BNE $E33D                      A:90 X:00 Y:90 P:25 SP:F2 CYC:282 SL:77
15:25:28: E33D  A2 08     LDX #$08                       A:90 X:00 Y:90 P:25 SP:F2 CYC:291 SL:77
15:25:28: E33F  A9 00     LDA #$00                       A:90 X:08 Y:90 P:25 SP:F2 CYC:297 SL:77
15:25:28: E341  8D 07 20  STA $2007 = 00                 A:00 X:08 Y:90 P:27 SP:F2 CYC:303 SL:77
15:25:28: E344  CA        DEX                            A:00 X:08 Y:90 P:27 SP:F2 CYC:315 SL:77
15:25:28: E345  D0 FA     BNE $E341                      A:00 X:07 Y:90 P:25 SP:F2 CYC:321 SL:77
15:25:28: 
LOOP: e345 -> e341 x 7

15:25:28: E347  A2 08     LDX #$08                       A:00 X:00 Y:90 P:27 SP:F2 CYC:175 SL:78
15:25:28: E349  B1 F0     LDA ($F0), Y = 00              A:00 X:08 Y:90 P:25 SP:F2 CYC:181 SL:78
15:25:28: E34B  C8        INY                            A:FC X:08 Y:90 P:A5 SP:F2 CYC:199 SL:78
15:25:28: E34C  8D 07 20  STA $2007 = 00                 A:FC X:08 Y:91 P:A5 SP:F2 CYC:205 SL:78
15:25:28: E34F  CA        DEX                            A:FC X:08 Y:91 P:A5 SP:F2 CYC:217 SL:78
15:25:28: E350  D0 F7     BNE $E349                      A:FC X:07 Y:91 P:25 SP:F2 CYC:223 SL:78
15:25:28: 
LOOP: e350 -> e349 x 7

15:25:28: E352  98        TYA                            A:00 X:00 Y:98 P:27 SP:F2 CYC:245 SL:79
15:25:28: E353  D0 02     BNE $E357                      A:98 X:00 Y:98 P:A5 SP:F2 CYC:251 SL:79
15:25:28: E357  C6 F2     DEC $F2 = 00                   A:98 X:00 Y:98 P:A5 SP:F2 CYC:260 SL:79
15:25:28: E359  D0 E2     BNE $E33D                      A:98 X:00 Y:98 P:25 SP:F2 CYC:275 SL:79
15:25:28: E33D  A2 08     LDX #$08                       A:98 X:00 Y:98 P:25 SP:F2 CYC:284 SL:79
15:25:28: E33F  A9 00     LDA #$00                       A:98 X:08 Y:98 P:25 SP:F2 CYC:290 SL:79
15:25:28: E341  8D 07 20  STA $2007 = 00                 A:00 X:08 Y:98 P:27 SP:F2 CYC:296 SL:79
15:25:28: E344  CA        DEX                            A:00 X:08 Y:98 P:27 SP:F2 CYC:308 SL:79
15:25:28: E345  D0 FA     BNE $E341                      A:00 X:07 Y:98 P:25 SP:F2 CYC:314 SL:79
15:25:28: 
LOOP: e345 -> e341 x 7

15:25:28: E347  A2 08     LDX #$08                       A:00 X:00 Y:98 P:27 SP:F2 CYC:168 SL:80
15:25:28: E349  B1 F0     LDA ($F0), Y = 00              A:00 X:08 Y:98 P:25 SP:F2 CYC:174 SL:80
15:25:28: E34B  C8        INY                            A:78 X:08 Y:98 P:25 SP:F2 CYC:192 SL:80
15:25:28: E34C  8D 07 20  STA $2007 = 00                 A:78 X:08 Y:99 P:A5 SP:F2 CYC:198 SL:80
15:25:28: E34F  CA        DEX                            A:78 X:08 Y:99 P:A5 SP:F2 CYC:210 SL:80
15:25:28: E350  D0 F7     BNE $E349                      A:78 X:07 Y:99 P:25 SP:F2 CYC:216 SL:80
15:25:28: 
LOOP: e350 -> e349 x 7

15:25:28: E352  98        TYA                            A:00 X:00 Y:A0 P:27 SP:F2 CYC:238 SL:81
15:25:28: E353  D0 02     BNE $E357                      A:A0 X:00 Y:A0 P:A5 SP:F2 CYC:244 SL:81
15:25:28: E357  C6 F2     DEC $F2 = 00                   A:A0 X:00 Y:A0 P:A5 SP:F2 CYC:253 SL:81
15:25:28: E359  D0 E2     BNE $E33D                      A:A0 X:00 Y:A0 P:25 SP:F2 CYC:268 SL:81
15:25:28: E33D  A2 08     LDX #$08                       A:A0 X:00 Y:A0 P:25 SP:F2 CYC:277 SL:81
15:25:28: E33F  A9 00     LDA #$00                       A:A0 X:08 Y:A0 P:25 SP:F2 CYC:283 SL:81
15:25:28: E341  8D 07 20  STA $2007 = 00                 A:00 X:08 Y:A0 P:27 SP:F2 CYC:289 SL:81
15:25:28: E344  CA        DEX                            A:00 X:08 Y:A0 P:27 SP:F2 CYC:301 SL:81
15:25:28: E345  D0 FA     BNE $E341                      A:00 X:07 Y:A0 P:25 SP:F2 CYC:307 SL:81
15:25:28: 
LOOP: e345 -> e341 x 7

15:25:28: E347  A2 08     LDX #$08                       A:00 X:00 Y:A0 P:27 SP:F2 CYC:161 SL:82
15:25:28: E349  B1 F0     LDA ($F0), Y = 00              A:00 X:08 Y:A0 P:25 SP:F2 CYC:167 SL:82
15:25:28: E34B  C8        INY                            A:7E X:08 Y:A0 P:25 SP:F2 CYC:185 SL:82
15:25:28: E34C  8D 07 20  STA $2007 = 00                 A:7E X:08 Y:A1 P:A5 SP:F2 CYC:191 SL:82
15:25:28: E34F  CA        DEX                            A:7E X:08 Y:A1 P:A5 SP:F2 CYC:203 SL:82
15:25:28: E350  D0 F7     BNE $E349                      A:7E X:07 Y:A1 P:25 SP:F2 CYC:209 SL:82
15:25:28: 
LOOP: e350 -> e349 x 7

15:25:28: E352  98        TYA                            A:00 X:00 Y:A8 P:27 SP:F2 CYC:231 SL:83
15:25:28: E353  D0 02     BNE $E357                      A:A8 X:00 Y:A8 P:A5 SP:F2 CYC:237 SL:83
15:25:28: E357  C6 F2     DEC $F2 = 00                   A:A8 X:00 Y:A8 P:A5 SP:F2 CYC:246 SL:83
15:25:28: E359  D0 E2     BNE $E33D                      A:A8 X:00 Y:A8 P:25 SP:F2 CYC:261 SL:83
15:25:28: E33D  A2 08     LDX #$08                       A:A8 X:00 Y:A8 P:25 SP:F2 CYC:270 SL:83
15:25:28: E33F  A9 00     LDA #$00                       A:A8 X:08 Y:A8 P:25 SP:F2 CYC:276 SL:83
15:25:28: E341  8D 07 20  STA $2007 = 00                 A:00 X:08 Y:A8 P:27 SP:F2 CYC:282 SL:83
15:25:28: E344  CA        DEX                            A:00 X:08 Y:A8 P:27 SP:F2 CYC:294 SL:83
15:25:28: E345  D0 FA     BNE $E341                      A:00 X:07 Y:A8 P:25 SP:F2 CYC:300 SL:83
15:25:28: 
LOOP: e345 -> e341 x 7

15:25:28: E347  A2 08     LDX #$08                       A:00 X:00 Y:A8 P:27 SP:F2 CYC:154 SL:84
15:25:28: E349  B1 F0     LDA ($F0), Y = 00              A:00 X:08 Y:A8 P:25 SP:F2 CYC:160 SL:84
15:25:28: E34B  C8        INY                            A:C6 X:08 Y:A8 P:A5 SP:F2 CYC:178 SL:84
15:25:28: E34C  8D 07 20  STA $2007 = 00                 A:C6 X:08 Y:A9 P:A5 SP:F2 CYC:184 SL:84
15:25:28: E34F  CA        DEX                            A:C6 X:08 Y:A9 P:A5 SP:F2 CYC:196 SL:84
15:25:28: E350  D0 F7     BNE $E349                      A:C6 X:07 Y:A9 P:25 SP:F2 CYC:202 SL:84
15:25:28: 
LOOP: e350 -> e349 x 7

15:25:28: E352  98        TYA                            A:00 X:00 Y:B0 P:27 SP:F2 CYC:224 SL:85
15:25:28: E353  D0 02     BNE $E357                      A:B0 X:00 Y:B0 P:A5 SP:F2 CYC:230 SL:85
15:25:28: E357  C6 F2     DEC $F2 = 00                   A:B0 X:00 Y:B0 P:A5 SP:F2 CYC:239 SL:85
15:25:28: E359  D0 E2     BNE $E33D                      A:B0 X:00 Y:B0 P:25 SP:F2 CYC:254 SL:85
15:25:28: E33D  A2 08     LDX #$08                       A:B0 X:00 Y:B0 P:25 SP:F2 CYC:263 SL:85
15:25:28: E33F  A9 00     LDA #$00                       A:B0 X:08 Y:B0 P:25 SP:F2 CYC:269 SL:85
15:25:28: E341  8D 07 20  STA $2007 = 00                 A:00 X:08 Y:B0 P:27 SP:F2 CYC:275 SL:85
15:25:28: E344  CA        DEX                            A:00 X:08 Y:B0 P:27 SP:F2 CYC:287 SL:85
15:25:28: E345  D0 FA     BNE $E341                      A:00 X:07 Y:B0 P:25 SP:F2 CYC:293 SL:85
15:25:28: 
LOOP: e345 -> e341 x 7

15:25:28: E347  A2 08     LDX #$08                       A:00 X:00 Y:B0 P:27 SP:F2 CYC:147 SL:86
15:25:28: E349  B1 F0     LDA ($F0), Y = 00              A:00 X:08 Y:B0 P:25 SP:F2 CYC:153 SL:86
15:25:28: E34B  C8        INY                            A:C6 X:08 Y:B0 P:A5 SP:F2 CYC:171 SL:86
15:25:28: E34C  8D 07 20  STA $2007 = 00                 A:C6 X:08 Y:B1 P:A5 SP:F2 CYC:177 SL:86
15:25:28: E34F  CA        DEX                            A:C6 X:08 Y:B1 P:A5 SP:F2 CYC:189 SL:86
15:25:28: E350  D0 F7     BNE $E349                      A:C6 X:07 Y:B1 P:25 SP:F2 CYC:195 SL:86
15:25:28: 
LOOP: e350 -> e349 x 7

15:25:28: E352  98        TYA                            A:00 X:00 Y:B8 P:27 SP:F2 CYC:217 SL:87
15:25:28: E353  D0 02     BNE $E357                      A:B8 X:00 Y:B8 P:A5 SP:F2 CYC:223 SL:87
15:25:28: E357  C6 F2     DEC $F2 = 00                   A:B8 X:00 Y:B8 P:A5 SP:F2 CYC:232 SL:87
15:25:28: E359  D0 E2     BNE $E33D                      A:B8 X:00 Y:B8 P:25 SP:F2 CYC:247 SL:87
15:25:28: E33D  A2 08     LDX #$08                       A:B8 X:00 Y:B8 P:25 SP:F2 CYC:256 SL:87
15:25:28: E33F  A9 00     LDA #$00                       A:B8 X:08 Y:B8 P:25 SP:F2 CYC:262 SL:87
15:25:28: E341  8D 07 20  STA $2007 = 00                 A:00 X:08 Y:B8 P:27 SP:F2 CYC:268 SL:87
15:25:28: E344  CA        DEX                            A:00 X:08 Y:B8 P:27 SP:F2 CYC:280 SL:87
15:25:28: E345  D0 FA     BNE $E341                      A:00 X:07 Y:B8 P:25 SP:F2 CYC:286 SL:87
15:25:28: 
LOOP: e345 -> e341 x 7

15:25:28: E347  A2 08     LDX #$08                       A:00 X:00 Y:B8 P:27 SP:F2 CYC:140 SL:88
15:25:28: E349  B1 F0     LDA ($F0), Y = 00              A:00 X:08 Y:B8 P:25 SP:F2 CYC:146 SL:88
15:25:28: E34B  C8        INY                            A:C6 X:08 Y:B8 P:A5 SP:F2 CYC:164 SL:88
15:25:28: E34C  8D 07 20  STA $2007 = 00                 A:C6 X:08 Y:B9 P:A5 SP:F2 CYC:170 SL:88
15:25:28: E34F  CA        DEX                            A:C6 X:08 Y:B9 P:A5 SP:F2 CYC:182 SL:88
15:25:28: E350  D0 F7     BNE $E349                      A:C6 X:07 Y:B9 P:25 SP:F2 CYC:188 SL:88
15:25:28: 
LOOP: e350 -> e349 x 7

15:25:28: E352  98        TYA                            A:00 X:00 Y:C0 P:27 SP:F2 CYC:210 SL:89
15:25:28: E353  D0 02     BNE $E357                      A:C0 X:00 Y:C0 P:A5 SP:F2 CYC:216 SL:89
15:25:28: E357  C6 F2     DEC $F2 = 00                   A:C0 X:00 Y:C0 P:A5 SP:F2 CYC:225 SL:89
15:25:28: E359  D0 E2     BNE $E33D                      A:C0 X:00 Y:C0 P:25 SP:F2 CYC:240 SL:89
15:25:28: E33D  A2 08     LDX #$08                       A:C0 X:00 Y:C0 P:25 SP:F2 CYC:249 SL:89
15:25:28: E33F  A9 00     LDA #$00                       A:C0 X:08 Y:C0 P:25 SP:F2 CYC:255 SL:89
15:25:28: E341  8D 07 20  STA $2007 = 00                 A:00 X:08 Y:C0 P:27 SP:F2 CYC:261 SL:89
15:25:28: E344  CA        DEX                            A:00 X:08 Y:C0 P:27 SP:F2 CYC:273 SL:89
15:25:28: E345  D0 FA     BNE $E341                      A:00 X:07 Y:C0 P:25 SP:F2 CYC:279 SL:89
15:25:28: 
LOOP: e345 -> e341 x 7

15:25:28: E347  A2 08     LDX #$08                       A:00 X:00 Y:C0 P:27 SP:F2 CYC:133 SL:90
15:25:28: E349  B1 F0     LDA ($F0), Y = 00              A:00 X:08 Y:C0 P:25 SP:F2 CYC:139 SL:90
15:25:28: E34B  C8        INY                            A:C6 X:08 Y:C0 P:A5 SP:F2 CYC:157 SL:90
15:25:28: E34C  8D 07 20  STA $2007 = 00                 A:C6 X:08 Y:C1 P:A5 SP:F2 CYC:163 SL:90
15:25:28: E34F  CA        DEX                            A:C6 X:08 Y:C1 P:A5 SP:F2 CYC:175 SL:90
15:25:28: E350  D0 F7     BNE $E349                      A:C6 X:07 Y:C1 P:25 SP:F2 CYC:181 SL:90
15:25:28: 
LOOP: e350 -> e349 x 7

15:25:28: E352  98        TYA                            A:00 X:00 Y:C8 P:27 SP:F2 CYC:203 SL:91
15:25:28: E353  D0 02     BNE $E357                      A:C8 X:00 Y:C8 P:A5 SP:F2 CYC:209 SL:91
15:25:28: E357  C6 F2     DEC $F2 = 00                   A:C8 X:00 Y:C8 P:A5 SP:F2 CYC:218 SL:91
15:25:28: E359  D0 E2     BNE $E33D                      A:C8 X:00 Y:C8 P:25 SP:F2 CYC:233 SL:91
15:25:28: E33D  A2 08     LDX #$08                       A:C8 X:00 Y:C8 P:25 SP:F2 CYC:242 SL:91
15:25:28: E33F  A9 00     LDA #$00                       A:C8 X:08 Y:C8 P:25 SP:F2 CYC:248 SL:91
15:25:28: E341  8D 07 20  STA $2007 = 00                 A:00 X:08 Y:C8 P:27 SP:F2 CYC:254 SL:91
15:25:28: E344  CA        DEX                            A:00 X:08 Y:C8 P:27 SP:F2 CYC:266 SL:91
15:25:28: E345  D0 FA     BNE $E341                      A:00 X:07 Y:C8 P:25 SP:F2 CYC:272 SL:91
15:25:28: 
LOOP: e345 -> e341 x 7

15:25:28: E347  A2 08     LDX #$08                       A:00 X:00 Y:C8 P:27 SP:F2 CYC:126 SL:92
15:25:28: E349  B1 F0     LDA ($F0), Y = 00              A:00 X:08 Y:C8 P:25 SP:F2 CYC:132 SL:92
15:25:28: E34B  C8        INY                            A:66 X:08 Y:C8 P:25 SP:F2 CYC:150 SL:92
15:25:28: E34C  8D 07 20  STA $2007 = 00                 A:66 X:08 Y:C9 P:A5 SP:F2 CYC:156 SL:92
15:25:28: E34F  CA        DEX                            A:66 X:08 Y:C9 P:A5 SP:F2 CYC:168 SL:92
15:25:28: E350  D0 F7     BNE $E349                      A:66 X:07 Y:C9 P:25 SP:F2 CYC:174 SL:92
15:25:28: 
LOOP: e350 -> e349 x 7

15:25:28: E352  98        TYA                            A:00 X:00 Y:D0 P:27 SP:F2 CYC:196 SL:93
15:25:28: E353  D0 02     BNE $E357                      A:D0 X:00 Y:D0 P:A5 SP:F2 CYC:202 SL:93
15:25:28: E357  C6 F2     DEC $F2 = 00                   A:D0 X:00 Y:D0 P:A5 SP:F2 CYC:211 SL:93
15:25:28: E359  D0 E2     BNE $E33D                      A:D0 X:00 Y:D0 P:25 SP:F2 CYC:226 SL:93
15:25:28: E33D  A2 08     LDX #$08                       A:D0 X:00 Y:D0 P:25 SP:F2 CYC:235 SL:93
15:25:28: E33F  A9 00     LDA #$00                       A:D0 X:08 Y:D0 P:25 SP:F2 CYC:241 SL:93
15:25:28: E341  8D 07 20  STA $2007 = 00                 A:00 X:08 Y:D0 P:27 SP:F2 CYC:247 SL:93
15:25:28: E344  CA        DEX                            A:00 X:08 Y:D0 P:27 SP:F2 CYC:259 SL:93
15:25:28: E345  D0 FA     BNE $E341                      A:00 X:07 Y:D0 P:25 SP:F2 CYC:265 SL:93
15:25:28: 
LOOP: e345 -> e341 x 7

15:25:28: E347  A2 08     LDX #$08                       A:00 X:00 Y:D0 P:27 SP:F2 CYC:119 SL:94
15:25:28: E349  B1 F0     LDA ($F0), Y = 00              A:00 X:08 Y:D0 P:25 SP:F2 CYC:125 SL:94
15:25:28: E34B  C8        INY                            A:FE X:08 Y:D0 P:A5 SP:F2 CYC:143 SL:94
15:25:28: E34C  8D 07 20  STA $2007 = 00                 A:FE X:08 Y:D1 P:A5 SP:F2 CYC:149 SL:94
15:25:28: E34F  CA        DEX                            A:FE X:08 Y:D1 P:A5 SP:F2 CYC:161 SL:94
15:25:28: E350  D0 F7     BNE $E349                      A:FE X:07 Y:D1 P:25 SP:F2 CYC:167 SL:94
15:25:28: 
LOOP: e350 -> e349 x 7

15:25:28: E352  98        TYA                            A:00 X:00 Y:D8 P:27 SP:F2 CYC:189 SL:95
15:25:28: E353  D0 02     BNE $E357                      A:D8 X:00 Y:D8 P:A5 SP:F2 CYC:195 SL:95
15:25:28: E357  C6 F2     DEC $F2 = 00                   A:D8 X:00 Y:D8 P:A5 SP:F2 CYC:204 SL:95
15:25:28: E359  D0 E2     BNE $E33D                      A:D8 X:00 Y:D8 P:27 SP:F2 CYC:219 SL:95
15:25:28: E35B  A9 20     LDA #$20                       A:D8 X:00 Y:D8 P:27 SP:F2 CYC:225 SL:95
15:25:28: E35D  20 91 E5  JSR $E591                      A:20 X:00 Y:D8 P:25 SP:F2 CYC:231 SL:95
15:25:28: E591  48        PHA                            A:20 X:00 Y:D8 P:25 SP:F0 CYC:249 SL:95
15:25:28: E592  A9 20     LDA #$20                       A:20 X:00 Y:D8 P:25 SP:EF CYC:258 SL:95
15:25:28: E594  20 83 E5  JSR $E583                      A:20 X:00 Y:D8 P:25 SP:EF CYC:264 SL:95
15:25:28: E583  2C 02 20  BIT $2002 = 00                 A:20 X:00 Y:D8 P:25 SP:ED CYC:282 SL:95
15:25:28: E586  8D 06 20  STA $2006 = 00                 A:20 X:00 Y:D8 P:27 SP:ED CYC:294 SL:95
15:25:28: E589  A9 00     LDA #$00                       A:20 X:00 Y:D8 P:27 SP:ED CYC:306 SL:95
15:25:28: E58B  8D 06 20  STA $2006 = 00                 A:00 X:00 Y:D8 P:27 SP:ED CYC:312 SL:95
15:25:28: E58E  60        RTS                            A:00 X:00 Y:D8 P:27 SP:ED CYC:324 SL:95
15:25:28: E597  68        PLA                            A:00 X:00 Y:D8 P:27 SP:EF CYC:  1 SL:96
15:25:28: E598  A2 F0     LDX #$F0                       A:20 X:00 Y:D8 P:25 SP:F0 CYC: 13 SL:96
15:25:28: E59A  8D 07 20  STA $2007 = 00                 A:20 X:F0 Y:D8 P:A5 SP:F0 CYC: 19 SL:96
15:25:28: E59D  8D 07 20  STA $2007 = 00                 A:20 X:F0 Y:D8 P:A5 SP:F0 CYC: 31 SL:96
15:25:28: E5A0  8D 07 20  STA $2007 = 00                 A:20 X:F0 Y:D8 P:A5 SP:F0 CYC: 43 SL:96
15:25:28: E5A3  8D 07 20  STA $2007 = 00                 A:20 X:F0 Y:D8 P:A5 SP:F0 CYC: 55 SL:96
15:25:28: E5A6  CA        DEX                            A:20 X:F0 Y:D8 P:A5 SP:F0 CYC: 67 SL:96
15:25:28: E5A7  D0 F1     BNE $E59A                      A:20 X:EF Y:D8 P:A5 SP:F0 CYC: 73 SL:96
15:25:28: 
LOOP: e5a7 -> e59a x 239

15:25:28: E5A9  A9 00     LDA #$00                       A:20 X:00 Y:D8 P:27 SP:F0 CYC:132 SL:140
15:25:28: E5AB  A2 20     LDX #$20                       A:00 X:00 Y:D8 P:27 SP:F0 CYC:138 SL:140
15:25:28: E5AD  8D 07 20  STA $2007 = 00                 A:00 X:20 Y:D8 P:25 SP:F0 CYC:144 SL:140
15:25:28: E5B0  CA        DEX                            A:00 X:20 Y:D8 P:25 SP:F0 CYC:156 SL:140
15:25:28: E5B1  D0 FA     BNE $E5AD                      A:00 X:1F Y:D8 P:25 SP:F0 CYC:162 SL:140
15:25:28: 
LOOP: e5b1 -> e5ad x 31

15:25:28: E5B3  60        RTS                            A:00 X:00 Y:D8 P:27 SP:F0 CYC:323 SL:142
15:25:28: E360  20 7A E5  JSR $E57A                      A:00 X:00 Y:D8 P:27 SP:F2 CYC:  0 SL:143
15:25:28: E57A  2C 02 20  BIT $2002 = 00                 A:00 X:00 Y:D8 P:27 SP:F0 CYC: 18 SL:143
15:25:28: E57D  2C 02 20  BIT $2002 = 00                 A:00 X:00 Y:D8 P:27 SP:F0 CYC: 30 SL:143
15:25:28: E580  10 FB     BPL $E57D                      A:00 X:00 Y:D8 P:27 SP:F0 CYC: 42 SL:143
15:25:28: Frame finished, vblank set
15:25:28: 
LOOP: e580 -> e57d x 1590

15:25:28: E582  60        RTS                            A:00 X:00 Y:D8 P:A7 SP:F0 CYC: 20 SL:-21
15:25:28: E363  A9 00     LDA #$00                       A:00 X:00 Y:D8 P:A7 SP:F2 CYC: 38 SL:-21
15:25:28: E365  8D 05 20  STA $2005 = 00                 A:00 X:00 Y:D8 P:27 SP:F2 CYC: 44 SL:-21
15:25:28: E368  8D 05 20  STA $2005 = 00                 A:00 X:00 Y:D8 P:27 SP:F2 CYC: 56 SL:-21
15:25:28: E36B  A9 08     LDA #$08                       A:00 X:00 Y:D8 P:27 SP:F2 CYC: 68 SL:-21
15:25:28: E36D  8D 01 20  STA $2001 = 00                 A:08 X:00 Y:D8 P:25 SP:F2 CYC: 74 SL:-21
15:25:28: E370  60        RTS                            A:08 X:00 Y:D8 P:25 SP:F2 CYC: 86 SL:-21
15:25:28: E5C6  68        PLA                            A:08 X:00 Y:D8 P:25 SP:F4 CYC:104 SL:-21
15:25:28: E5C7  A8        TAY                            A:00 X:00 Y:D8 P:27 SP:F5 CYC:116 SL:-21
15:25:28: E5C8  68        PLA                            A:00 X:00 Y:00 P:27 SP:F5 CYC:122 SL:-21
15:25:28: E5C9  AA        TAX                            A:00 X:00 Y:00 P:27 SP:F6 CYC:134 SL:-21
15:25:28: E5CA  68        PLA                            A:00 X:00 Y:00 P:27 SP:F6 CYC:140 SL:-21
15:25:28: E5CB  4C 6E E2  JMP $E26E                      A:4D X:00 Y:00 P:25 SP:F7 CYC:152 SL:-21
15:25:28: E26E  20 7A E5  JSR $E57A                      A:4D X:00 Y:00 P:25 SP:F7 CYC:161 SL:-21
15:25:28: E57A  2C 02 20  BIT $2002 = 00                 A:4D X:00 Y:00 P:25 SP:F5 CYC:179 SL:-21
15:25:28: E57D  2C 02 20  BIT $2002 = 00                 A:4D X:00 Y:00 P:27 SP:F5 CYC:191 SL:-21
15:25:28: E580  10 FB     BPL $E57D                      A:4D X:00 Y:00 P:27 SP:F5 CYC:203 SL:-21
15:25:28: VBL CLEARED HT: 0 VT: 31 FX: 0 FY: 2 RX: 4 RY: -1
15:25:28: Frame finished, vblank set
15:25:28: 
LOOP: e580 -> e57d x 4245

15:25:28: E582  60        RTS                            A:4D X:00 Y:00 P:A7 SP:F5 CYC: 12 SL:-21
15:25:28: E271  48        PHA                            A:4D X:00 Y:00 P:A7 SP:F7 CYC: 30 SL:-21
15:25:28: E272  A9 20     LDA #$20                       A:4D X:00 Y:00 P:A7 SP:F6 CYC: 39 SL:-21
15:25:28: E274  8D 06 20  STA $2006 = 00                 A:20 X:00 Y:00 P:25 SP:F6 CYC: 45 SL:-21
15:25:28: E277  EE F0 07  INC $07F0 = 00                 A:20 X:00 Y:00 P:25 SP:F6 CYC: 57 SL:-21
15:25:28: E27A  AD F0 07  LDA $07F0 = 00                 A:20 X:00 Y:00 P:A5 SP:F6 CYC: 75 SL:-21
15:25:28: E27D  8D 06 20  STA $2006 = 00                 A:82 X:00 Y:00 P:A5 SP:F6 CYC: 87 SL:-21
15:25:28: E280  A9 00     LDA #$00                       A:82 X:00 Y:00 P:A5 SP:F6 CYC: 99 SL:-21
15:25:28: E282  8D 05 20  STA $2005 = 00                 A:00 X:00 Y:00 P:27 SP:F6 CYC:105 SL:-21
15:25:28: E285  8D 05 20  STA $2005 = 00                 A:00 X:00 Y:00 P:27 SP:F6 CYC:117 SL:-21
15:25:28: E288  68        PLA                            A:00 X:00 Y:00 P:27 SP:F6 CYC:129 SL:-21
15:25:28: E289  8D 07 20  STA $2007 = 00                 A:4D X:00 Y:00 P:25 SP:F7 CYC:141 SL:-21
15:25:28: E28C  60        RTS                            A:4D X:00 Y:00 P:25 SP:F7 CYC:153 SL:-21
15:25:28: E02E  A2 01     LDX #$01                       A:4D X:00 Y:00 P:25 SP:F9 CYC:171 SL:-21
15:25:28: E030  BD 9C E1  LDA $E19C, X = 00              A:4D X:01 Y:00 P:25 SP:F9 CYC:177 SL:-21
15:25:28: E033  F0 07     BEQ $E03C                      A:4D X:01 Y:00 P:25 SP:F9 CYC:189 SL:-21
15:25:28: E035  20 D4 E5  JSR $E5D4                      A:4D X:01 Y:00 P:25 SP:F9 CYC:195 SL:-21
15:25:29: E5D4  4C 71 E2  JMP $E271                      A:4D X:01 Y:00 P:25 SP:F7 CYC:213 SL:-21
15:25:29: E271  48        PHA                            A:4D X:01 Y:00 P:25 SP:F7 CYC:222 SL:-21
15:25:29: E272  A9 20     LDA #$20                       A:4D X:01 Y:00 P:25 SP:F6 CYC:231 SL:-21
15:25:29: E274  8D 06 20  STA $2006 = 00                 A:20 X:01 Y:00 P:25 SP:F6 CYC:237 SL:-21
15:25:29: E277  EE F0 07  INC $07F0 = 00                 A:20 X:01 Y:00 P:25 SP:F6 CYC:249 SL:-21
15:25:29: E27A  AD F0 07  LDA $07F0 = 00                 A:20 X:01 Y:00 P:A5 SP:F6 CYC:267 SL:-21
15:25:29: E27D  8D 06 20  STA $2006 = 00                 A:83 X:01 Y:00 P:A5 SP:F6 CYC:279 SL:-21
15:25:29: E280  A9 00     LDA #$00                       A:83 X:01 Y:00 P:A5 SP:F6 CYC:291 SL:-21
15:25:29: E282  8D 05 20  STA $2005 = 00                 A:00 X:01 Y:00 P:27 SP:F6 CYC:297 SL:-21
15:25:29: E285  8D 05 20  STA $2005 = 00                 A:00 X:01 Y:00 P:27 SP:F6 CYC:309 SL:-21
15:25:29: E288  68        PLA                            A:00 X:01 Y:00 P:27 SP:F6 CYC:321 SL:-21
15:25:29: E289  8D 07 20  STA $2007 = 00                 A:4D X:01 Y:00 P:25 SP:F7 CYC:333 SL:-21
15:25:29: E28C  60        RTS                            A:4D X:01 Y:00 P:25 SP:F7 CYC:  4 SL:-20
15:25:29: E038  E8        INX                            A:4D X:01 Y:00 P:25 SP:F9 CYC: 22 SL:-20
15:25:29: E039  4C 30 E0  JMP $E030                      A:4D X:02 Y:00 P:25 SP:F9 CYC: 28 SL:-20
15:25:29: E030  BD 9C E1  LDA $E19C, X = 00              A:4D X:02 Y:00 P:25 SP:F9 CYC: 37 SL:-20
15:25:29: E033  F0 07     BEQ $E03C                      A:43 X:02 Y:00 P:25 SP:F9 CYC: 49 SL:-20
15:25:29: E035  20 D4 E5  JSR $E5D4                      A:43 X:02 Y:00 P:25 SP:F9 CYC: 55 SL:-20
15:25:29: E5D4  4C 71 E2  JMP $E271                      A:43 X:02 Y:00 P:25 SP:F7 CYC: 73 SL:-20
15:25:29: E271  48        PHA                            A:43 X:02 Y:00 P:25 SP:F7 CYC: 82 SL:-20
15:25:29: E272  A9 20     LDA #$20                       A:43 X:02 Y:00 P:25 SP:F6 CYC: 91 SL:-20
15:25:29: E274  8D 06 20  STA $2006 = 00                 A:20 X:02 Y:00 P:25 SP:F6 CYC: 97 SL:-20
15:25:29: E277  EE F0 07  INC $07F0 = 00                 A:20 X:02 Y:00 P:25 SP:F6 CYC:109 SL:-20
15:25:29: E27A  AD F0 07  LDA $07F0 = 00                 A:20 X:02 Y:00 P:A5 SP:F6 CYC:127 SL:-20
15:25:29: E27D  8D 06 20  STA $2006 = 00                 A:84 X:02 Y:00 P:A5 SP:F6 CYC:139 SL:-20
15:25:29: E280  A9 00     LDA #$00                       A:84 X:02 Y:00 P:A5 SP:F6 CYC:151 SL:-20
15:25:29: E282  8D 05 20  STA $2005 = 00                 A:00 X:02 Y:00 P:27 SP:F6 CYC:157 SL:-20
15:25:29: E285  8D 05 20  STA $2005 = 00                 A:00 X:02 Y:00 P:27 SP:F6 CYC:169 SL:-20
15:25:29: E288  68        PLA                            A:00 X:02 Y:00 P:27 SP:F6 CYC:181 SL:-20
15:25:29: E289  8D 07 20  STA $2007 = 00                 A:43 X:02 Y:00 P:25 SP:F7 CYC:193 SL:-20
15:25:29: E28C  60        RTS                            A:43 X:02 Y:00 P:25 SP:F7 CYC:205 SL:-20
15:25:29: E038  E8        INX                            A:43 X:02 Y:00 P:25 SP:F9 CYC:223 SL:-20
15:25:29: E039  4C 30 E0  JMP $E030                      A:43 X:03 Y:00 P:25 SP:F9 CYC:229 SL:-20
15:25:29: E030  BD 9C E1  LDA $E19C, X = 00              A:43 X:03 Y:00 P:25 SP:F9 CYC:238 SL:-20
15:25:29: E033  F0 07     BEQ $E03C                      A:33 X:03 Y:00 P:25 SP:F9 CYC:250 SL:-20
15:25:29: E035  20 D4 E5  JSR $E5D4                      A:33 X:03 Y:00 P:25 SP:F9 CYC:256 SL:-20
15:25:29: E5D4  4C 71 E2  JMP $E271                      A:33 X:03 Y:00 P:25 SP:F7 CYC:274 SL:-20
15:25:29: E271  48        PHA                            A:33 X:03 Y:00 P:25 SP:F7 CYC:283 SL:-20
15:25:29: E272  A9 20     LDA #$20                       A:33 X:03 Y:00 P:25 SP:F6 CYC:292 SL:-20
15:25:29: E274  8D 06 20  STA $2006 = 00                 A:20 X:03 Y:00 P:25 SP:F6 CYC:298 SL:-20
15:25:29: E277  EE F0 07  INC $07F0 = 00                 A:20 X:03 Y:00 P:25 SP:F6 CYC:310 SL:-20
15:25:29: E27A  AD F0 07  LDA $07F0 = 00                 A:20 X:03 Y:00 P:A5 SP:F6 CYC:328 SL:-20
15:25:29: E27D  8D 06 20  STA $2006 = 00                 A:85 X:03 Y:00 P:A5 SP:F6 CYC:340 SL:-20
15:25:29: E280  A9 00     LDA #$00                       A:85 X:03 Y:00 P:A5 SP:F6 CYC: 11 SL:-19
15:25:29: E282  8D 05 20  STA $2005 = 00                 A:00 X:03 Y:00 P:27 SP:F6 CYC: 17 SL:-19
15:25:29: E285  8D 05 20  STA $2005 = 00                 A:00 X:03 Y:00 P:27 SP:F6 CYC: 29 SL:-19
15:25:29: E288  68        PLA                            A:00 X:03 Y:00 P:27 SP:F6 CYC: 41 SL:-19
15:25:29: E289  8D 07 20  STA $2007 = 00                 A:33 X:03 Y:00 P:25 SP:F7 CYC: 53 SL:-19
15:25:29: E28C  60        RTS                            A:33 X:03 Y:00 P:25 SP:F7 CYC: 65 SL:-19
15:25:29: E038  E8        INX                            A:33 X:03 Y:00 P:25 SP:F9 CYC: 83 SL:-19
15:25:29: E039  4C 30 E0  JMP $E030                      A:33 X:04 Y:00 P:25 SP:F9 CYC: 89 SL:-19
15:25:29: E030  BD 9C E1  LDA $E19C, X = 00              A:33 X:04 Y:00 P:25 SP:F9 CYC: 98 SL:-19
15:25:29: E033  F0 07     BEQ $E03C                      A:20 X:04 Y:00 P:25 SP:F9 CYC:110 SL:-19
15:25:29: E035  20 D4 E5  JSR $E5D4                      A:20 X:04 Y:00 P:25 SP:F9 CYC:116 SL:-19
15:25:29: E5D4  4C 71 E2  JMP $E271                      A:20 X:04 Y:00 P:25 SP:F7 CYC:134 SL:-19
15:25:29: E271  48        PHA                            A:20 X:04 Y:00 P:25 SP:F7 CYC:143 SL:-19
15:25:29: E272  A9 20     LDA #$20                       A:20 X:04 Y:00 P:25 SP:F6 CYC:152 SL:-19
15:25:29: E274  8D 06 20  STA $2006 = 00                 A:20 X:04 Y:00 P:25 SP:F6 CYC:158 SL:-19
15:25:29: E277  EE F0 07  INC $07F0 = 00                 A:20 X:04 Y:00 P:25 SP:F6 CYC:170 SL:-19
15:25:29: E27A  AD F0 07  LDA $07F0 = 00                 A:20 X:04 Y:00 P:A5 SP:F6 CYC:188 SL:-19
15:25:29: E27D  8D 06 20  STA $2006 = 00                 A:86 X:04 Y:00 P:A5 SP:F6 CYC:200 SL:-19
15:25:29: E280  A9 00     LDA #$00                       A:86 X:04 Y:00 P:A5 SP:F6 CYC:212 SL:-19
15:25:29: E282  8D 05 20  STA $2005 = 00                 A:00 X:04 Y:00 P:27 SP:F6 CYC:218 SL:-19
15:25:29: E285  8D 05 20  STA $2005 = 00                 A:00 X:04 Y:00 P:27 SP:F6 CYC:230 SL:-19
15:25:29: E288  68        PLA                            A:00 X:04 Y:00 P:27 SP:F6 CYC:242 SL:-19
15:25:29: E289  8D 07 20  STA $2007 = 00                 A:20 X:04 Y:00 P:25 SP:F7 CYC:254 SL:-19
15:25:29: E28C  60        RTS                            A:20 X:04 Y:00 P:25 SP:F7 CYC:266 SL:-19
15:25:29: E038  E8        INX                            A:20 X:04 Y:00 P:25 SP:F9 CYC:284 SL:-19
15:25:29: E039  4C 30 E0  JMP $E030                      A:20 X:05 Y:00 P:25 SP:F9 CYC:290 SL:-19
15:25:29: E030  BD 9C E1  LDA $E19C, X = 00              A:20 X:05 Y:00 P:25 SP:F9 CYC:299 SL:-19
15:25:29: E033  F0 07     BEQ $E03C                      A:49 X:05 Y:00 P:25 SP:F9 CYC:311 SL:-19
15:25:29: E035  20 D4 E5  JSR $E5D4                      A:49 X:05 Y:00 P:25 SP:F9 CYC:317 SL:-19
15:25:29: E5D4  4C 71 E2  JMP $E271                      A:49 X:05 Y:00 P:25 SP:F7 CYC:335 SL:-19
15:25:29: E271  48        PHA                            A:49 X:05 Y:00 P:25 SP:F7 CYC:  3 SL:-18
15:25:29: E272  A9 20     LDA #$20                       A:49 X:05 Y:00 P:25 SP:F6 CYC: 12 SL:-18
15:25:29: E274  8D 06 20  STA $2006 = 00                 A:20 X:05 Y:00 P:25 SP:F6 CYC: 18 SL:-18
15:25:29: E277  EE F0 07  INC $07F0 = 00                 A:20 X:05 Y:00 P:25 SP:F6 CYC: 30 SL:-18
15:25:29: E27A  AD F0 07  LDA $07F0 = 00                 A:20 X:05 Y:00 P:A5 SP:F6 CYC: 48 SL:-18
15:25:29: E27D  8D 06 20  STA $2006 = 00                 A:87 X:05 Y:00 P:A5 SP:F6 CYC: 60 SL:-18
15:25:29: E280  A9 00     LDA #$00                       A:87 X:05 Y:00 P:A5 SP:F6 CYC: 72 SL:-18
15:25:29: E282  8D 05 20  STA $2005 = 00                 A:00 X:05 Y:00 P:27 SP:F6 CYC: 78 SL:-18
15:25:29: E285  8D 05 20  STA $2005 = 00                 A:00 X:05 Y:00 P:27 SP:F6 CYC: 90 SL:-18
15:25:29: E288  68        PLA                            A:00 X:05 Y:00 P:27 SP:F6 CYC:102 SL:-18
15:25:29: E289  8D 07 20  STA $2007 = 00                 A:49 X:05 Y:00 P:25 SP:F7 CYC:114 SL:-18
15:25:29: E28C  60        RTS                            A:49 X:05 Y:00 P:25 SP:F7 CYC:126 SL:-18
15:25:29: E038  E8        INX                            A:49 X:05 Y:00 P:25 SP:F9 CYC:144 SL:-18
15:25:29: E039  4C 30 E0  JMP $E030                      A:49 X:06 Y:00 P:25 SP:F9 CYC:150 SL:-18
15:25:29: E030  BD 9C E1  LDA $E19C, X = 00              A:49 X:06 Y:00 P:25 SP:F9 CYC:159 SL:-18
15:25:29: E033  F0 07     BEQ $E03C                      A:52 X:06 Y:00 P:25 SP:F9 CYC:171 SL:-18
15:25:29: E035  20 D4 E5  JSR $E5D4                      A:52 X:06 Y:00 P:25 SP:F9 CYC:177 SL:-18
15:25:29: E5D4  4C 71 E2  JMP $E271                      A:52 X:06 Y:00 P:25 SP:F7 CYC:195 SL:-18
15:25:29: E271  48        PHA                            A:52 X:06 Y:00 P:25 SP:F7 CYC:204 SL:-18
15:25:29: E272  A9 20     LDA #$20                       A:52 X:06 Y:00 P:25 SP:F6 CYC:213 SL:-18
15:25:29: E274  8D 06 20  STA $2006 = 00                 A:20 X:06 Y:00 P:25 SP:F6 CYC:219 SL:-18
15:25:29: E277  EE F0 07  INC $07F0 = 00                 A:20 X:06 Y:00 P:25 SP:F6 CYC:231 SL:-18
15:25:29: E27A  AD F0 07  LDA $07F0 = 00                 A:20 X:06 Y:00 P:A5 SP:F6 CYC:249 SL:-18
15:25:29: E27D  8D 06 20  STA $2006 = 00                 A:88 X:06 Y:00 P:A5 SP:F6 CYC:261 SL:-18
15:25:29: E280  A9 00     LDA #$00                       A:88 X:06 Y:00 P:A5 SP:F6 CYC:273 SL:-18
15:25:29: E282  8D 05 20  STA $2005 = 00                 A:00 X:06 Y:00 P:27 SP:F6 CYC:279 SL:-18
15:25:29: E285  8D 05 20  STA $2005 = 00                 A:00 X:06 Y:00 P:27 SP:F6 CYC:291 SL:-18
15:25:29: E288  68        PLA                            A:00 X:06 Y:00 P:27 SP:F6 CYC:303 SL:-18
15:25:29: E289  8D 07 20  STA $2007 = 00                 A:52 X:06 Y:00 P:25 SP:F7 CYC:315 SL:-18
15:25:29: E28C  60        RTS                            A:52 X:06 Y:00 P:25 SP:F7 CYC:327 SL:-18
15:25:29: E038  E8        INX                            A:52 X:06 Y:00 P:25 SP:F9 CYC:  4 SL:-17
15:25:29: E039  4C 30 E0  JMP $E030                      A:52 X:07 Y:00 P:25 SP:F9 CYC: 10 SL:-17
15:25:29: E030  BD 9C E1  LDA $E19C, X = 00              A:52 X:07 Y:00 P:25 SP:F9 CYC: 19 SL:-17
15:25:29: E033  F0 07     BEQ $E03C                      A:51 X:07 Y:00 P:25 SP:F9 CYC: 31 SL:-17
15:25:29: E035  20 D4 E5  JSR $E5D4                      A:51 X:07 Y:00 P:25 SP:F9 CYC: 37 SL:-17
15:25:29: E5D4  4C 71 E2  JMP $E271                      A:51 X:07 Y:00 P:25 SP:F7 CYC: 55 SL:-17
15:25:29: E271  48        PHA                            A:51 X:07 Y:00 P:25 SP:F7 CYC: 64 SL:-17
15:25:29: E272  A9 20     LDA #$20                       A:51 X:07 Y:00 P:25 SP:F6 CYC: 73 SL:-17
15:25:29: E274  8D 06 20  STA $2006 = 00                 A:20 X:07 Y:00 P:25 SP:F6 CYC: 79 SL:-17
15:25:29: E277  EE F0 07  INC $07F0 = 00                 A:20 X:07 Y:00 P:25 SP:F6 CYC: 91 SL:-17
15:25:29: E27A  AD F0 07  LDA $07F0 = 00                 A:20 X:07 Y:00 P:A5 SP:F6 CYC:109 SL:-17
15:25:29: E27D  8D 06 20  STA $2006 = 00                 A:89 X:07 Y:00 P:A5 SP:F6 CYC:121 SL:-17
15:25:29: E280  A9 00     LDA #$00                       A:89 X:07 Y:00 P:A5 SP:F6 CYC:133 SL:-17
15:25:29: E282  8D 05 20  STA $2005 = 00                 A:00 X:07 Y:00 P:27 SP:F6 CYC:139 SL:-17
15:25:29: E285  8D 05 20  STA $2005 = 00                 A:00 X:07 Y:00 P:27 SP:F6 CYC:151 SL:-17
15:25:29: E288  68        PLA                            A:00 X:07 Y:00 P:27 SP:F6 CYC:163 SL:-17
15:25:29: E289  8D 07 20  STA $2007 = 00                 A:51 X:07 Y:00 P:25 SP:F7 CYC:175 SL:-17
15:25:29: E28C  60        RTS                            A:51 X:07 Y:00 P:25 SP:F7 CYC:187 SL:-17
15:25:29: E038  E8        INX                            A:51 X:07 Y:00 P:25 SP:F9 CYC:205 SL:-17
15:25:29: E039  4C 30 E0  JMP $E030                      A:51 X:08 Y:00 P:25 SP:F9 CYC:211 SL:-17
15:25:29: E030  BD 9C E1  LDA $E19C, X = 00              A:51 X:08 Y:00 P:25 SP:F9 CYC:220 SL:-17
15:25:29: E033  F0 07     BEQ $E03C                      A:20 X:08 Y:00 P:25 SP:F9 CYC:232 SL:-17
15:25:29: E035  20 D4 E5  JSR $E5D4                      A:20 X:08 Y:00 P:25 SP:F9 CYC:238 SL:-17
15:25:29: E5D4  4C 71 E2  JMP $E271                      A:20 X:08 Y:00 P:25 SP:F7 CYC:256 SL:-17
15:25:29: E271  48        PHA                            A:20 X:08 Y:00 P:25 SP:F7 CYC:265 SL:-17
15:25:29: E272  A9 20     LDA #$20                       A:20 X:08 Y:00 P:25 SP:F6 CYC:274 SL:-17
15:25:29: E274  8D 06 20  STA $2006 = 00                 A:20 X:08 Y:00 P:25 SP:F6 CYC:280 SL:-17
15:25:29: E277  EE F0 07  INC $07F0 = 00                 A:20 X:08 Y:00 P:25 SP:F6 CYC:292 SL:-17
15:25:29: E27A  AD F0 07  LDA $07F0 = 00                 A:20 X:08 Y:00 P:A5 SP:F6 CYC:310 SL:-17
15:25:29: E27D  8D 06 20  STA $2006 = 00                 A:8A X:08 Y:00 P:A5 SP:F6 CYC:322 SL:-17
15:25:29: E280  A9 00     LDA #$00                       A:8A X:08 Y:00 P:A5 SP:F6 CYC:334 SL:-17
15:25:29: E282  8D 05 20  STA $2005 = 00                 A:00 X:08 Y:00 P:27 SP:F6 CYC:340 SL:-17
15:25:29: E285  8D 05 20  STA $2005 = 00                 A:00 X:08 Y:00 P:27 SP:F6 CYC: 11 SL:-16
15:25:29: E288  68        PLA                            A:00 X:08 Y:00 P:27 SP:F6 CYC: 23 SL:-16
15:25:29: E289  8D 07 20  STA $2007 = 00                 A:20 X:08 Y:00 P:25 SP:F7 CYC: 35 SL:-16
15:25:29: E28C  60        RTS                            A:20 X:08 Y:00 P:25 SP:F7 CYC: 47 SL:-16
15:25:29: E038  E8        INX                            A:20 X:08 Y:00 P:25 SP:F9 CYC: 65 SL:-16
15:25:29: E039  4C 30 E0  JMP $E030                      A:20 X:09 Y:00 P:25 SP:F9 CYC: 71 SL:-16
15:25:29: E030  BD 9C E1  LDA $E19C, X = 00              A:20 X:09 Y:00 P:25 SP:F9 CYC: 80 SL:-16
15:25:29: E033  F0 07     BEQ $E03C                      A:43 X:09 Y:00 P:25 SP:F9 CYC: 92 SL:-16
15:25:29: E035  20 D4 E5  JSR $E5D4                      A:43 X:09 Y:00 P:25 SP:F9 CYC: 98 SL:-16
15:25:29: E5D4  4C 71 E2  JMP $E271                      A:43 X:09 Y:00 P:25 SP:F7 CYC:116 SL:-16
15:25:29: E271  48        PHA                            A:43 X:09 Y:00 P:25 SP:F7 CYC:125 SL:-16
15:25:29: E272  A9 20     LDA #$20                       A:43 X:09 Y:00 P:25 SP:F6 CYC:134 SL:-16
15:25:29: E274  8D 06 20  STA $2006 = 00                 A:20 X:09 Y:00 P:25 SP:F6 CYC:140 SL:-16
15:25:29: E277  EE F0 07  INC $07F0 = 00                 A:20 X:09 Y:00 P:25 SP:F6 CYC:152 SL:-16
15:25:29: E27A  AD F0 07  LDA $07F0 = 00                 A:20 X:09 Y:00 P:A5 SP:F6 CYC:170 SL:-16
15:25:29: E27D  8D 06 20  STA $2006 = 00                 A:8B X:09 Y:00 P:A5 SP:F6 CYC:182 SL:-16
15:25:29: E280  A9 00     LDA #$00                       A:8B X:09 Y:00 P:A5 SP:F6 CYC:194 SL:-16
15:25:29: E282  8D 05 20  STA $2005 = 00                 A:00 X:09 Y:00 P:27 SP:F6 CYC:200 SL:-16
15:25:29: E285  8D 05 20  STA $2005 = 00                 A:00 X:09 Y:00 P:27 SP:F6 CYC:212 SL:-16
15:25:29: E288  68        PLA                            A:00 X:09 Y:00 P:27 SP:F6 CYC:224 SL:-16
15:25:29: E289  8D 07 20  STA $2007 = 00                 A:43 X:09 Y:00 P:25 SP:F7 CYC:236 SL:-16
15:25:29: E28C  60        RTS                            A:43 X:09 Y:00 P:25 SP:F7 CYC:248 SL:-16
15:25:29: E038  E8        INX                            A:43 X:09 Y:00 P:25 SP:F9 CYC:266 SL:-16
15:25:29: E039  4C 30 E0  JMP $E030                      A:43 X:0A Y:00 P:25 SP:F9 CYC:272 SL:-16
15:25:29: E030  BD 9C E1  LDA $E19C, X = 00              A:43 X:0A Y:00 P:25 SP:F9 CYC:281 SL:-16
15:25:29: E033  F0 07     BEQ $E03C                      A:4F X:0A Y:00 P:25 SP:F9 CYC:293 SL:-16
15:25:29: E035  20 D4 E5  JSR $E5D4                      A:4F X:0A Y:00 P:25 SP:F9 CYC:299 SL:-16
15:25:29: E5D4  4C 71 E2  JMP $E271                      A:4F X:0A Y:00 P:25 SP:F7 CYC:317 SL:-16
15:25:29: E271  48        PHA                            A:4F X:0A Y:00 P:25 SP:F7 CYC:326 SL:-16
15:25:29: E272  A9 20     LDA #$20                       A:4F X:0A Y:00 P:25 SP:F6 CYC:335 SL:-16
15:25:29: E274  8D 06 20  STA $2006 = 00                 A:20 X:0A Y:00 P:25 SP:F6 CYC:  0 SL:-15
15:25:29: E277  EE F0 07  INC $07F0 = 00                 A:20 X:0A Y:00 P:25 SP:F6 CYC: 12 SL:-15
15:25:29: E27A  AD F0 07  LDA $07F0 = 00                 A:20 X:0A Y:00 P:A5 SP:F6 CYC: 30 SL:-15
15:25:29: E27D  8D 06 20  STA $2006 = 00                 A:8C X:0A Y:00 P:A5 SP:F6 CYC: 42 SL:-15
15:25:29: E280  A9 00     LDA #$00                       A:8C X:0A Y:00 P:A5 SP:F6 CYC: 54 SL:-15
15:25:29: E282  8D 05 20  STA $2005 = 00                 A:00 X:0A Y:00 P:27 SP:F6 CYC: 60 SL:-15
15:25:29: E285  8D 05 20  STA $2005 = 00                 A:00 X:0A Y:00 P:27 SP:F6 CYC: 72 SL:-15
15:25:29: E288  68        PLA                            A:00 X:0A Y:00 P:27 SP:F6 CYC: 84 SL:-15
15:25:29: E289  8D 07 20  STA $2007 = 00                 A:4F X:0A Y:00 P:25 SP:F7 CYC: 96 SL:-15
15:25:29: E28C  60        RTS                            A:4F X:0A Y:00 P:25 SP:F7 CYC:108 SL:-15
15:25:29: E038  E8        INX                            A:4F X:0A Y:00 P:25 SP:F9 CYC:126 SL:-15
15:25:29: E039  4C 30 E0  JMP $E030                      A:4F X:0B Y:00 P:25 SP:F9 CYC:132 SL:-15
15:25:29: E030  BD 9C E1  LDA $E19C, X = 00              A:4F X:0B Y:00 P:25 SP:F9 CYC:141 SL:-15
15:25:29: E033  F0 07     BEQ $E03C                      A:55 X:0B Y:00 P:25 SP:F9 CYC:153 SL:-15
15:25:29: E035  20 D4 E5  JSR $E5D4                      A:55 X:0B Y:00 P:25 SP:F9 CYC:159 SL:-15
15:25:29: E5D4  4C 71 E2  JMP $E271                      A:55 X:0B Y:00 P:25 SP:F7 CYC:177 SL:-15
15:25:29: E271  48        PHA                            A:55 X:0B Y:00 P:25 SP:F7 CYC:186 SL:-15
15:25:29: E272  A9 20     LDA #$20                       A:55 X:0B Y:00 P:25 SP:F6 CYC:195 SL:-15
15:25:29: E274  8D 06 20  STA $2006 = 00                 A:20 X:0B Y:00 P:25 SP:F6 CYC:201 SL:-15
15:25:29: E277  EE F0 07  INC $07F0 = 00                 A:20 X:0B Y:00 P:25 SP:F6 CYC:213 SL:-15
15:25:29: E27A  AD F0 07  LDA $07F0 = 00                 A:20 X:0B Y:00 P:A5 SP:F6 CYC:231 SL:-15
15:25:29: E27D  8D 06 20  STA $2006 = 00                 A:8D X:0B Y:00 P:A5 SP:F6 CYC:243 SL:-15
15:25:29: E280  A9 00     LDA #$00                       A:8D X:0B Y:00 P:A5 SP:F6 CYC:255 SL:-15
15:25:29: E282  8D 05 20  STA $2005 = 00                 A:00 X:0B Y:00 P:27 SP:F6 CYC:261 SL:-15
15:25:29: E285  8D 05 20  STA $2005 = 00                 A:00 X:0B Y:00 P:27 SP:F6 CYC:273 SL:-15
15:25:29: E288  68        PLA                            A:00 X:0B Y:00 P:27 SP:F6 CYC:285 SL:-15
15:25:29: E289  8D 07 20  STA $2007 = 00                 A:55 X:0B Y:00 P:25 SP:F7 CYC:297 SL:-15
15:25:29: E28C  60        RTS                            A:55 X:0B Y:00 P:25 SP:F7 CYC:309 SL:-15
15:25:29: E038  E8        INX                            A:55 X:0B Y:00 P:25 SP:F9 CYC:327 SL:-15
15:25:29: E039  4C 30 E0  JMP $E030                      A:55 X:0C Y:00 P:25 SP:F9 CYC:333 SL:-15
15:25:29: E030  BD 9C E1  LDA $E19C, X = 00              A:55 X:0C Y:00 P:25 SP:F9 CYC:  1 SL:-14
15:25:29: E033  F0 07     BEQ $E03C                      A:4E X:0C Y:00 P:25 SP:F9 CYC: 13 SL:-14
15:25:29: E035  20 D4 E5  JSR $E5D4                      A:4E X:0C Y:00 P:25 SP:F9 CYC: 19 SL:-14
15:25:29: E5D4  4C 71 E2  JMP $E271                      A:4E X:0C Y:00 P:25 SP:F7 CYC: 37 SL:-14
15:25:29: E271  48        PHA                            A:4E X:0C Y:00 P:25 SP:F7 CYC: 46 SL:-14
15:25:29: E272  A9 20     LDA #$20                       A:4E X:0C Y:00 P:25 SP:F6 CYC: 55 SL:-14
15:25:29: E274  8D 06 20  STA $2006 = 00                 A:20 X:0C Y:00 P:25 SP:F6 CYC: 61 SL:-14
15:25:29: E277  EE F0 07  INC $07F0 = 00                 A:20 X:0C Y:00 P:25 SP:F6 CYC: 73 SL:-14
15:25:29: E27A  AD F0 07  LDA $07F0 = 00                 A:20 X:0C Y:00 P:A5 SP:F6 CYC: 91 SL:-14
15:25:29: E27D  8D 06 20  STA $2006 = 00                 A:8E X:0C Y:00 P:A5 SP:F6 CYC:103 SL:-14
15:25:29: E280  A9 00     LDA #$00                       A:8E X:0C Y:00 P:A5 SP:F6 CYC:115 SL:-14
15:25:29: E282  8D 05 20  STA $2005 = 00                 A:00 X:0C Y:00 P:27 SP:F6 CYC:121 SL:-14
15:25:29: E285  8D 05 20  STA $2005 = 00                 A:00 X:0C Y:00 P:27 SP:F6 CYC:133 SL:-14
15:25:29: E288  68        PLA                            A:00 X:0C Y:00 P:27 SP:F6 CYC:145 SL:-14
15:25:29: E289  8D 07 20  STA $2007 = 00                 A:4E X:0C Y:00 P:25 SP:F7 CYC:157 SL:-14
15:25:29: E28C  60        RTS                            A:4E X:0C Y:00 P:25 SP:F7 CYC:169 SL:-14
15:25:29: E038  E8        INX                            A:4E X:0C Y:00 P:25 SP:F9 CYC:187 SL:-14
15:25:29: E039  4C 30 E0  JMP $E030                      A:4E X:0D Y:00 P:25 SP:F9 CYC:193 SL:-14
15:25:29: E030  BD 9C E1  LDA $E19C, X = 00              A:4E X:0D Y:00 P:25 SP:F9 CYC:202 SL:-14
15:25:29: E033  F0 07     BEQ $E03C                      A:54 X:0D Y:00 P:25 SP:F9 CYC:214 SL:-14
15:25:29: E035  20 D4 E5  JSR $E5D4                      A:54 X:0D Y:00 P:25 SP:F9 CYC:220 SL:-14
15:25:29: E5D4  4C 71 E2  JMP $E271                      A:54 X:0D Y:00 P:25 SP:F7 CYC:238 SL:-14
15:25:29: E271  48        PHA                            A:54 X:0D Y:00 P:25 SP:F7 CYC:247 SL:-14
15:25:29: E272  A9 20     LDA #$20                       A:54 X:0D Y:00 P:25 SP:F6 CYC:256 SL:-14
15:25:29: E274  8D 06 20  STA $2006 = 00                 A:20 X:0D Y:00 P:25 SP:F6 CYC:262 SL:-14
15:25:29: E277  EE F0 07  INC $07F0 = 00                 A:20 X:0D Y:00 P:25 SP:F6 CYC:274 SL:-14
15:25:29: E27A  AD F0 07  LDA $07F0 = 00                 A:20 X:0D Y:00 P:A5 SP:F6 CYC:292 SL:-14
15:25:29: E27D  8D 06 20  STA $2006 = 00                 A:8F X:0D Y:00 P:A5 SP:F6 CYC:304 SL:-14
15:25:29: E280  A9 00     LDA #$00                       A:8F X:0D Y:00 P:A5 SP:F6 CYC:316 SL:-14
15:25:29: E282  8D 05 20  STA $2005 = 00                 A:00 X:0D Y:00 P:27 SP:F6 CYC:322 SL:-14
15:25:29: E285  8D 05 20  STA $2005 = 00                 A:00 X:0D Y:00 P:27 SP:F6 CYC:334 SL:-14
15:25:29: E288  68        PLA                            A:00 X:0D Y:00 P:27 SP:F6 CYC:  5 SL:-13
15:25:29: E289  8D 07 20  STA $2007 = 00                 A:54 X:0D Y:00 P:25 SP:F7 CYC: 17 SL:-13
15:25:29: E28C  60        RTS                            A:54 X:0D Y:00 P:25 SP:F7 CYC: 29 SL:-13
15:25:29: E038  E8        INX                            A:54 X:0D Y:00 P:25 SP:F9 CYC: 47 SL:-13
15:25:29: E039  4C 30 E0  JMP $E030                      A:54 X:0E Y:00 P:25 SP:F9 CYC: 53 SL:-13
15:25:29: E030  BD 9C E1  LDA $E19C, X = 00              A:54 X:0E Y:00 P:25 SP:F9 CYC: 62 SL:-13
15:25:29: E033  F0 07     BEQ $E03C                      A:45 X:0E Y:00 P:25 SP:F9 CYC: 74 SL:-13
15:25:29: E035  20 D4 E5  JSR $E5D4                      A:45 X:0E Y:00 P:25 SP:F9 CYC: 80 SL:-13
15:25:29: E5D4  4C 71 E2  JMP $E271                      A:45 X:0E Y:00 P:25 SP:F7 CYC: 98 SL:-13
15:25:29: E271  48        PHA                            A:45 X:0E Y:00 P:25 SP:F7 CYC:107 SL:-13
15:25:29: E272  A9 20     LDA #$20                       A:45 X:0E Y:00 P:25 SP:F6 CYC:116 SL:-13
15:25:29: E274  8D 06 20  STA $2006 = 00                 A:20 X:0E Y:00 P:25 SP:F6 CYC:122 SL:-13
15:25:29: E277  EE F0 07  INC $07F0 = 00                 A:20 X:0E Y:00 P:25 SP:F6 CYC:134 SL:-13
15:25:29: E27A  AD F0 07  LDA $07F0 = 00                 A:20 X:0E Y:00 P:A5 SP:F6 CYC:152 SL:-13
15:25:29: E27D  8D 06 20  STA $2006 = 00                 A:90 X:0E Y:00 P:A5 SP:F6 CYC:164 SL:-13
15:25:29: E280  A9 00     LDA #$00                       A:90 X:0E Y:00 P:A5 SP:F6 CYC:176 SL:-13
15:25:29: E282  8D 05 20  STA $2005 = 00                 A:00 X:0E Y:00 P:27 SP:F6 CYC:182 SL:-13
15:25:29: E285  8D 05 20  STA $2005 = 00                 A:00 X:0E Y:00 P:27 SP:F6 CYC:194 SL:-13
15:25:29: E288  68        PLA                            A:00 X:0E Y:00 P:27 SP:F6 CYC:206 SL:-13
15:25:29: E289  8D 07 20  STA $2007 = 00                 A:45 X:0E Y:00 P:25 SP:F7 CYC:218 SL:-13
15:25:29: E28C  60        RTS                            A:45 X:0E Y:00 P:25 SP:F7 CYC:230 SL:-13
15:25:29: E038  E8        INX                            A:45 X:0E Y:00 P:25 SP:F9 CYC:248 SL:-13
15:25:29: E039  4C 30 E0  JMP $E030                      A:45 X:0F Y:00 P:25 SP:F9 CYC:254 SL:-13
15:25:29: E030  BD 9C E1  LDA $E19C, X = 00              A:45 X:0F Y:00 P:25 SP:F9 CYC:263 SL:-13
15:25:29: E033  F0 07     BEQ $E03C                      A:52 X:0F Y:00 P:25 SP:F9 CYC:275 SL:-13
15:25:29: E035  20 D4 E5  JSR $E5D4                      A:52 X:0F Y:00 P:25 SP:F9 CYC:281 SL:-13
15:25:29: E5D4  4C 71 E2  JMP $E271                      A:52 X:0F Y:00 P:25 SP:F7 CYC:299 SL:-13
15:25:29: E271  48        PHA                            A:52 X:0F Y:00 P:25 SP:F7 CYC:308 SL:-13
15:25:29: E272  A9 20     LDA #$20                       A:52 X:0F Y:00 P:25 SP:F6 CYC:317 SL:-13
15:25:29: E274  8D 06 20  STA $2006 = 00                 A:20 X:0F Y:00 P:25 SP:F6 CYC:323 SL:-13
15:25:29: E277  EE F0 07  INC $07F0 = 00                 A:20 X:0F Y:00 P:25 SP:F6 CYC:335 SL:-13
15:25:29: E27A  AD F0 07  LDA $07F0 = 00                 A:20 X:0F Y:00 P:A5 SP:F6 CYC: 12 SL:-12
15:25:29: E27D  8D 06 20  STA $2006 = 00                 A:91 X:0F Y:00 P:A5 SP:F6 CYC: 24 SL:-12
15:25:29: E280  A9 00     LDA #$00                       A:91 X:0F Y:00 P:A5 SP:F6 CYC: 36 SL:-12
15:25:29: E282  8D 05 20  STA $2005 = 00                 A:00 X:0F Y:00 P:27 SP:F6 CYC: 42 SL:-12
15:25:29: E285  8D 05 20  STA $2005 = 00                 A:00 X:0F Y:00 P:27 SP:F6 CYC: 54 SL:-12
15:25:29: E288  68        PLA                            A:00 X:0F Y:00 P:27 SP:F6 CYC: 66 SL:-12
15:25:29: E289  8D 07 20  STA $2007 = 00                 A:52 X:0F Y:00 P:25 SP:F7 CYC: 78 SL:-12
15:25:29: E28C  60        RTS                            A:52 X:0F Y:00 P:25 SP:F7 CYC: 90 SL:-12
15:25:29: E038  E8        INX                            A:52 X:0F Y:00 P:25 SP:F9 CYC:108 SL:-12
15:25:29: E039  4C 30 E0  JMP $E030                      A:52 X:10 Y:00 P:25 SP:F9 CYC:114 SL:-12
15:25:29: E030  BD 9C E1  LDA $E19C, X = 00              A:52 X:10 Y:00 P:25 SP:F9 CYC:123 SL:-12
15:25:29: E033  F0 07     BEQ $E03C                      A:00 X:10 Y:00 P:27 SP:F9 CYC:135 SL:-12
15:25:29: E03C  20 CE E5  JSR $E5CE                      A:00 X:10 Y:00 P:27 SP:F9 CYC:144 SL:-12
15:25:29: E5CE  20 8D E2  JSR $E28D                      A:00 X:10 Y:00 P:27 SP:F7 CYC:162 SL:-12
15:25:29: E28D  48        PHA                            A:00 X:10 Y:00 P:27 SP:F5 CYC:180 SL:-12
15:25:29: E28E  AD F0 07  LDA $07F0 = 00                 A:00 X:10 Y:00 P:27 SP:F4 CYC:189 SL:-12
15:25:29: E291  29 E0     AND #$E0                       A:91 X:10 Y:00 P:A5 SP:F4 CYC:201 SL:-12
15:25:29: E293  18        CLC                            A:80 X:10 Y:00 P:A5 SP:F4 CYC:207 SL:-12
15:25:29: E294  69 21     ADC #$21                       A:80 X:10 Y:00 P:A4 SP:F4 CYC:213 SL:-12
15:25:29: E296  8D F0 07  STA $07F0 = 00                 A:A1 X:10 Y:00 P:A4 SP:F4 CYC:219 SL:-12
15:25:29: E299  68        PLA                            A:A1 X:10 Y:00 P:A4 SP:F4 CYC:231 SL:-12
15:25:29: E29A  60        RTS                            A:00 X:10 Y:00 P:26 SP:F5 CYC:243 SL:-12
15:25:29: E5D1  4C 8D E2  JMP $E28D                      A:00 X:10 Y:00 P:26 SP:F7 CYC:261 SL:-12
15:25:29: E03F  A5 F8     LDA $F8 = 00                   A:00 X:10 Y:00 P:26 SP:F9 CYC: 10 SL:-11
15:25:29: E041  C9 01     CMP #$01                       A:03 X:10 Y:00 P:24 SP:F9 CYC: 19 SL:-11
15:25:29: E043  F0 46     BEQ $E08B                      A:03 X:10 Y:00 P:25 SP:F9 CYC: 25 SL:-11
15:25:29: E045  A9 46     LDA #$46                       A:03 X:10 Y:00 P:25 SP:F9 CYC: 31 SL:-11
15:25:29: E047  20 B4 E5  JSR $E5B4                      A:46 X:10 Y:00 P:25 SP:F9 CYC: 37 SL:-11
15:25:29: E5B4  48        PHA                            A:46 X:10 Y:00 P:25 SP:F7 CYC: 55 SL:-11
15:25:29: E5B5  A9 A5     LDA #$A5                       A:46 X:10 Y:00 P:25 SP:F6 CYC: 64 SL:-11
15:25:29: E5B7  CD F1 07  CMP $07F1 = 00                 A:A5 X:10 Y:00 P:A5 SP:F6 CYC: 70 SL:-11
15:25:29: E5BA  F0 0E     BEQ $E5CA                      A:A5 X:10 Y:00 P:27 SP:F6 CYC: 82 SL:-11
15:25:29: E5CA  68        PLA                            A:A5 X:10 Y:00 P:27 SP:F6 CYC: 91 SL:-11
15:25:29: E5CB  4C 6E E2  JMP $E26E                      A:46 X:10 Y:00 P:25 SP:F7 CYC:103 SL:-11
15:25:29: E26E  20 7A E5  JSR $E57A                      A:46 X:10 Y:00 P:25 SP:F7 CYC:112 SL:-11
15:25:29: E57A  2C 02 20  BIT $2002 = 00                 A:46 X:10 Y:00 P:25 SP:F5 CYC:130 SL:-11
15:25:29: E57D  2C 02 20  BIT $2002 = 00                 A:46 X:10 Y:00 P:27 SP:F5 CYC:142 SL:-11
15:25:29: E580  10 FB     BPL $E57D                      A:46 X:10 Y:00 P:27 SP:F5 CYC:154 SL:-11
15:25:29: VBL CLEARED HT: 18 VT: 4 FX: 0 FY: 2 RX: 5 RY: -1
15:25:29: Frame finished, vblank set
15:25:29: E582  60        RTS                            A:46 X:10 Y:00 P:A7 SP:F5 CYC: 14 SL:-21
15:25:29: E271  48        PHA                            A:46 X:10 Y:00 P:A7 SP:F7 CYC: 32 SL:-21
15:25:29: E272  A9 20     LDA #$20                       A:46 X:10 Y:00 P:A7 SP:F6 CYC: 41 SL:-21
15:25:29: E274  8D 06 20  STA $2006 = 00                 A:20 X:10 Y:00 P:25 SP:F6 CYC: 47 SL:-21
15:25:29: E277  EE F0 07  INC $07F0 = 00                 A:20 X:10 Y:00 P:25 SP:F6 CYC: 59 SL:-21
15:25:29: E27A  AD F0 07  LDA $07F0 = 00                 A:20 X:10 Y:00 P:A5 SP:F6 CYC: 77 SL:-21
15:25:29: E27D  8D 06 20  STA $2006 = 00                 A:C2 X:10 Y:00 P:A5 SP:F6 CYC: 89 SL:-21
15:25:29: E280  A9 00     LDA #$00                       A:C2 X:10 Y:00 P:A5 SP:F6 CYC:101 SL:-21
15:25:29: E282  8D 05 20  STA $2005 = 00                 A:00 X:10 Y:00 P:27 SP:F6 CYC:107 SL:-21
15:25:29: E285  8D 05 20  STA $2005 = 00                 A:00 X:10 Y:00 P:27 SP:F6 CYC:119 SL:-21
15:25:29: E288  68        PLA                            A:00 X:10 Y:00 P:27 SP:F6 CYC:131 SL:-21
15:25:29: E289  8D 07 20  STA $2007 = 00                 A:46 X:10 Y:00 P:25 SP:F7 CYC:143 SL:-21
15:25:29: E28C  60        RTS                            A:46 X:10 Y:00 P:25 SP:F7 CYC:155 SL:-21
15:25:29: E04A  A9 41     LDA #$41                       A:46 X:10 Y:00 P:25 SP:F9 CYC:173 SL:-21
15:25:29: E04C  20 D4 E5  JSR $E5D4                      A:41 X:10 Y:00 P:25 SP:F9 CYC:179 SL:-21
15:25:29: 
LOOP: e5d1 -> e28d x 1

15:25:29: E5D4  4C 71 E2  JMP $E271                      A:41 X:10 Y:00 P:25 SP:F7 CYC:197 SL:-21
15:25:29: E271  48        PHA                            A:41 X:10 Y:00 P:25 SP:F7 CYC:206 SL:-21
15:25:29: E272  A9 20     LDA #$20                       A:41 X:10 Y:00 P:25 SP:F6 CYC:215 SL:-21
15:25:29: E274  8D 06 20  STA $2006 = 00                 A:20 X:10 Y:00 P:25 SP:F6 CYC:221 SL:-21
15:25:29: E277  EE F0 07  INC $07F0 = 00                 A:20 X:10 Y:00 P:25 SP:F6 CYC:233 SL:-21
15:25:29: E27A  AD F0 07  LDA $07F0 = 00                 A:20 X:10 Y:00 P:A5 SP:F6 CYC:251 SL:-21
15:25:29: E27D  8D 06 20  STA $2006 = 00                 A:C3 X:10 Y:00 P:A5 SP:F6 CYC:263 SL:-21
15:25:29: E280  A9 00     LDA #$00                       A:C3 X:10 Y:00 P:A5 SP:F6 CYC:275 SL:-21
15:25:29: E282  8D 05 20  STA $2005 = 00                 A:00 X:10 Y:00 P:27 SP:F6 CYC:281 SL:-21
15:25:29: E285  8D 05 20  STA $2005 = 00                 A:00 X:10 Y:00 P:27 SP:F6 CYC:293 SL:-21
15:25:29: E288  68        PLA                            A:00 X:10 Y:00 P:27 SP:F6 CYC:305 SL:-21
15:25:29: E289  8D 07 20  STA $2007 = 00                 A:41 X:10 Y:00 P:25 SP:F7 CYC:317 SL:-21
15:25:29: E28C  60        RTS                            A:41 X:10 Y:00 P:25 SP:F7 CYC:329 SL:-21
15:25:29: E04F  A9 49     LDA #$49                       A:41 X:10 Y:00 P:25 SP:F9 CYC:  6 SL:-20
15:25:29: E051  20 D4 E5  JSR $E5D4                      A:49 X:10 Y:00 P:25 SP:F9 CYC: 12 SL:-20
15:25:29: E5D4  4C 71 E2  JMP $E271                      A:49 X:10 Y:00 P:25 SP:F7 CYC: 30 SL:-20
15:25:29: E271  48        PHA                            A:49 X:10 Y:00 P:25 SP:F7 CYC: 39 SL:-20
15:25:29: E272  A9 20     LDA #$20                       A:49 X:10 Y:00 P:25 SP:F6 CYC: 48 SL:-20
15:25:29: E274  8D 06 20  STA $2006 = 00                 A:20 X:10 Y:00 P:25 SP:F6 CYC: 54 SL:-20
15:25:29: E277  EE F0 07  INC $07F0 = 00                 A:20 X:10 Y:00 P:25 SP:F6 CYC: 66 SL:-20
15:25:29: E27A  AD F0 07  LDA $07F0 = 00                 A:20 X:10 Y:00 P:A5 SP:F6 CYC: 84 SL:-20
15:25:29: E27D  8D 06 20  STA $2006 = 00                 A:C4 X:10 Y:00 P:A5 SP:F6 CYC: 96 SL:-20
15:25:29: E280  A9 00     LDA #$00                       A:C4 X:10 Y:00 P:A5 SP:F6 CYC:108 SL:-20
15:25:29: E282  8D 05 20  STA $2005 = 00                 A:00 X:10 Y:00 P:27 SP:F6 CYC:114 SL:-20
15:25:29: E285  8D 05 20  STA $2005 = 00                 A:00 X:10 Y:00 P:27 SP:F6 CYC:126 SL:-20
15:25:29: E288  68        PLA                            A:00 X:10 Y:00 P:27 SP:F6 CYC:138 SL:-20
15:25:29: E289  8D 07 20  STA $2007 = 00                 A:49 X:10 Y:00 P:25 SP:F7 CYC:150 SL:-20
15:25:29: E28C  60        RTS                            A:49 X:10 Y:00 P:25 SP:F7 CYC:162 SL:-20
15:25:29: E054  A9 4C     LDA #$4C                       A:49 X:10 Y:00 P:25 SP:F9 CYC:180 SL:-20
15:25:29: E056  20 D4 E5  JSR $E5D4                      A:4C X:10 Y:00 P:25 SP:F9 CYC:186 SL:-20
15:25:29: E5D4  4C 71 E2  JMP $E271                      A:4C X:10 Y:00 P:25 SP:F7 CYC:204 SL:-20
15:25:29: E271  48        PHA                            A:4C X:10 Y:00 P:25 SP:F7 CYC:213 SL:-20
15:25:29: E272  A9 20     LDA #$20                       A:4C X:10 Y:00 P:25 SP:F6 CYC:222 SL:-20
15:25:29: E274  8D 06 20  STA $2006 = 00                 A:20 X:10 Y:00 P:25 SP:F6 CYC:228 SL:-20
15:25:29: E277  EE F0 07  INC $07F0 = 00                 A:20 X:10 Y:00 P:25 SP:F6 CYC:240 SL:-20
15:25:29: E27A  AD F0 07  LDA $07F0 = 00                 A:20 X:10 Y:00 P:A5 SP:F6 CYC:258 SL:-20
15:25:29: E27D  8D 06 20  STA $2006 = 00                 A:C5 X:10 Y:00 P:A5 SP:F6 CYC:270 SL:-20
15:25:29: E280  A9 00     LDA #$00                       A:C5 X:10 Y:00 P:A5 SP:F6 CYC:282 SL:-20
15:25:29: E282  8D 05 20  STA $2005 = 00                 A:00 X:10 Y:00 P:27 SP:F6 CYC:288 SL:-20
15:25:29: E285  8D 05 20  STA $2005 = 00                 A:00 X:10 Y:00 P:27 SP:F6 CYC:300 SL:-20
15:25:29: E288  68        PLA                            A:00 X:10 Y:00 P:27 SP:F6 CYC:312 SL:-20
15:25:29: E289  8D 07 20  STA $2007 = 00                 A:4C X:10 Y:00 P:25 SP:F7 CYC:324 SL:-20
15:25:29: E28C  60        RTS                            A:4C X:10 Y:00 P:25 SP:F7 CYC:336 SL:-20
15:25:29: E059  A9 45     LDA #$45                       A:4C X:10 Y:00 P:25 SP:F9 CYC: 13 SL:-19
15:25:29: E05B  20 D4 E5  JSR $E5D4                      A:45 X:10 Y:00 P:25 SP:F9 CYC: 19 SL:-19
15:25:29: E5D4  4C 71 E2  JMP $E271                      A:45 X:10 Y:00 P:25 SP:F7 CYC: 37 SL:-19
15:25:29: E271  48        PHA                            A:45 X:10 Y:00 P:25 SP:F7 CYC: 46 SL:-19
15:25:29: E272  A9 20     LDA #$20                       A:45 X:10 Y:00 P:25 SP:F6 CYC: 55 SL:-19
15:25:29: E274  8D 06 20  STA $2006 = 00                 A:20 X:10 Y:00 P:25 SP:F6 CYC: 61 SL:-19
15:25:29: E277  EE F0 07  INC $07F0 = 00                 A:20 X:10 Y:00 P:25 SP:F6 CYC: 73 SL:-19
15:25:29: E27A  AD F0 07  LDA $07F0 = 00                 A:20 X:10 Y:00 P:A5 SP:F6 CYC: 91 SL:-19
15:25:29: E27D  8D 06 20  STA $2006 = 00                 A:C6 X:10 Y:00 P:A5 SP:F6 CYC:103 SL:-19
15:25:29: E280  A9 00     LDA #$00                       A:C6 X:10 Y:00 P:A5 SP:F6 CYC:115 SL:-19
15:25:29: E282  8D 05 20  STA $2005 = 00                 A:00 X:10 Y:00 P:27 SP:F6 CYC:121 SL:-19
15:25:29: E285  8D 05 20  STA $2005 = 00                 A:00 X:10 Y:00 P:27 SP:F6 CYC:133 SL:-19
15:25:29: E288  68        PLA                            A:00 X:10 Y:00 P:27 SP:F6 CYC:145 SL:-19
15:25:29: E289  8D 07 20  STA $2007 = 00                 A:45 X:10 Y:00 P:25 SP:F7 CYC:157 SL:-19
15:25:29: E28C  60        RTS                            A:45 X:10 Y:00 P:25 SP:F7 CYC:169 SL:-19
15:25:29: E05E  A9 44     LDA #$44                       A:45 X:10 Y:00 P:25 SP:F9 CYC:187 SL:-19
15:25:29: E060  20 D4 E5  JSR $E5D4                      A:44 X:10 Y:00 P:25 SP:F9 CYC:193 SL:-19
15:25:29: E5D4  4C 71 E2  JMP $E271                      A:44 X:10 Y:00 P:25 SP:F7 CYC:211 SL:-19
15:25:29: E271  48        PHA                            A:44 X:10 Y:00 P:25 SP:F7 CYC:220 SL:-19
15:25:29: E272  A9 20     LDA #$20                       A:44 X:10 Y:00 P:25 SP:F6 CYC:229 SL:-19
15:25:29: E274  8D 06 20  STA $2006 = 00                 A:20 X:10 Y:00 P:25 SP:F6 CYC:235 SL:-19
15:25:29: E277  EE F0 07  INC $07F0 = 00                 A:20 X:10 Y:00 P:25 SP:F6 CYC:247 SL:-19
15:25:29: E27A  AD F0 07  LDA $07F0 = 00                 A:20 X:10 Y:00 P:A5 SP:F6 CYC:265 SL:-19
15:25:29: E27D  8D 06 20  STA $2006 = 00                 A:C7 X:10 Y:00 P:A5 SP:F6 CYC:277 SL:-19
15:25:29: E280  A9 00     LDA #$00                       A:C7 X:10 Y:00 P:A5 SP:F6 CYC:289 SL:-19
15:25:29: E282  8D 05 20  STA $2005 = 00                 A:00 X:10 Y:00 P:27 SP:F6 CYC:295 SL:-19
15:25:29: E285  8D 05 20  STA $2005 = 00                 A:00 X:10 Y:00 P:27 SP:F6 CYC:307 SL:-19
15:25:29: E288  68        PLA                            A:00 X:10 Y:00 P:27 SP:F6 CYC:319 SL:-19
15:25:29: E289  8D 07 20  STA $2007 = 00                 A:44 X:10 Y:00 P:25 SP:F7 CYC:331 SL:-19
15:25:29: E28C  60        RTS                            A:44 X:10 Y:00 P:25 SP:F7 CYC:  2 SL:-18
15:25:29: E063  A9 20     LDA #$20                       A:44 X:10 Y:00 P:25 SP:F9 CYC: 20 SL:-18
15:25:29: E065  20 D4 E5  JSR $E5D4                      A:20 X:10 Y:00 P:25 SP:F9 CYC: 26 SL:-18
15:25:29: E5D4  4C 71 E2  JMP $E271                      A:20 X:10 Y:00 P:25 SP:F7 CYC: 44 SL:-18
15:25:29: E271  48        PHA                            A:20 X:10 Y:00 P:25 SP:F7 CYC: 53 SL:-18
15:25:29: E272  A9 20     LDA #$20                       A:20 X:10 Y:00 P:25 SP:F6 CYC: 62 SL:-18
15:25:29: E274  8D 06 20  STA $2006 = 00                 A:20 X:10 Y:00 P:25 SP:F6 CYC: 68 SL:-18
15:25:29: E277  EE F0 07  INC $07F0 = 00                 A:20 X:10 Y:00 P:25 SP:F6 CYC: 80 SL:-18
15:25:29: E27A  AD F0 07  LDA $07F0 = 00                 A:20 X:10 Y:00 P:A5 SP:F6 CYC: 98 SL:-18
15:25:29: E27D  8D 06 20  STA $2006 = 00                 A:C8 X:10 Y:00 P:A5 SP:F6 CYC:110 SL:-18
15:25:29: E280  A9 00     LDA #$00                       A:C8 X:10 Y:00 P:A5 SP:F6 CYC:122 SL:-18
15:25:29: E282  8D 05 20  STA $2005 = 00                 A:00 X:10 Y:00 P:27 SP:F6 CYC:128 SL:-18
15:25:29: E285  8D 05 20  STA $2005 = 00                 A:00 X:10 Y:00 P:27 SP:F6 CYC:140 SL:-18
15:25:29: E288  68        PLA                            A:00 X:10 Y:00 P:27 SP:F6 CYC:152 SL:-18
15:25:29: E289  8D 07 20  STA $2007 = 00                 A:20 X:10 Y:00 P:25 SP:F7 CYC:164 SL:-18
15:25:29: E28C  60        RTS                            A:20 X:10 Y:00 P:25 SP:F7 CYC:176 SL:-18
15:25:29: E068  A9 23     LDA #$23                       A:20 X:10 Y:00 P:25 SP:F9 CYC:194 SL:-18
15:25:29: E06A  20 D4 E5  JSR $E5D4                      A:23 X:10 Y:00 P:25 SP:F9 CYC:200 SL:-18
15:25:29: E5D4  4C 71 E2  JMP $E271                      A:23 X:10 Y:00 P:25 SP:F7 CYC:218 SL:-18
15:25:29: E271  48        PHA                            A:23 X:10 Y:00 P:25 SP:F7 CYC:227 SL:-18
15:25:29: E272  A9 20     LDA #$20                       A:23 X:10 Y:00 P:25 SP:F6 CYC:236 SL:-18
15:25:29: E274  8D 06 20  STA $2006 = 00                 A:20 X:10 Y:00 P:25 SP:F6 CYC:242 SL:-18
15:25:29: E277  EE F0 07  INC $07F0 = 00                 A:20 X:10 Y:00 P:25 SP:F6 CYC:254 SL:-18
15:25:29: E27A  AD F0 07  LDA $07F0 = 00                 A:20 X:10 Y:00 P:A5 SP:F6 CYC:272 SL:-18
15:25:29: E27D  8D 06 20  STA $2006 = 00                 A:C9 X:10 Y:00 P:A5 SP:F6 CYC:284 SL:-18
15:25:29: E280  A9 00     LDA #$00                       A:C9 X:10 Y:00 P:A5 SP:F6 CYC:296 SL:-18
15:25:29: E282  8D 05 20  STA $2005 = 00                 A:00 X:10 Y:00 P:27 SP:F6 CYC:302 SL:-18
15:25:29: E285  8D 05 20  STA $2005 = 00                 A:00 X:10 Y:00 P:27 SP:F6 CYC:314 SL:-18
15:25:29: E288  68        PLA                            A:00 X:10 Y:00 P:27 SP:F6 CYC:326 SL:-18
15:25:29: E289  8D 07 20  STA $2007 = 00                 A:23 X:10 Y:00 P:25 SP:F7 CYC:338 SL:-18
15:25:29: E28C  60        RTS                            A:23 X:10 Y:00 P:25 SP:F7 CYC:  9 SL:-17
15:25:29: E06D  A5 F8     LDA $F8 = 00                   A:23 X:10 Y:00 P:25 SP:F9 CYC: 27 SL:-17
15:25:29: E06F  C9 0A     CMP #$0A                       A:03 X:10 Y:00 P:25 SP:F9 CYC: 36 SL:-17
15:25:29: E071  90 0A     BCC $E07D                      A:03 X:10 Y:00 P:A4 SP:F9 CYC: 42 SL:-17
15:25:29: E07D  18        CLC                            A:03 X:10 Y:00 P:A4 SP:F9 CYC: 51 SL:-17
15:25:29: E07E  69 30     ADC #$30                       A:03 X:10 Y:00 P:A4 SP:F9 CYC: 57 SL:-17
15:25:29: E080  20 D4 E5  JSR $E5D4                      A:33 X:10 Y:00 P:24 SP:F9 CYC: 63 SL:-17
15:25:29: E5D4  4C 71 E2  JMP $E271                      A:33 X:10 Y:00 P:24 SP:F7 CYC: 81 SL:-17
15:25:29: E271  48        PHA                            A:33 X:10 Y:00 P:24 SP:F7 CYC: 90 SL:-17
15:25:29: E272  A9 20     LDA #$20                       A:33 X:10 Y:00 P:24 SP:F6 CYC: 99 SL:-17
15:25:29: E274  8D 06 20  STA $2006 = 00                 A:20 X:10 Y:00 P:24 SP:F6 CYC:105 SL:-17
15:25:29: E277  EE F0 07  INC $07F0 = 00                 A:20 X:10 Y:00 P:24 SP:F6 CYC:117 SL:-17
15:25:29: E27A  AD F0 07  LDA $07F0 = 00                 A:20 X:10 Y:00 P:A4 SP:F6 CYC:135 SL:-17
15:25:29: E27D  8D 06 20  STA $2006 = 00                 A:CA X:10 Y:00 P:A4 SP:F6 CYC:147 SL:-17
15:25:29: E280  A9 00     LDA #$00                       A:CA X:10 Y:00 P:A4 SP:F6 CYC:159 SL:-17
15:25:29: E282  8D 05 20  STA $2005 = 00                 A:00 X:10 Y:00 P:26 SP:F6 CYC:165 SL:-17
15:25:29: E285  8D 05 20  STA $2005 = 00                 A:00 X:10 Y:00 P:26 SP:F6 CYC:177 SL:-17
15:25:29: E288  68        PLA                            A:00 X:10 Y:00 P:26 SP:F6 CYC:189 SL:-17
15:25:29: E289  8D 07 20  STA $2007 = 00                 A:33 X:10 Y:00 P:24 SP:F7 CYC:201 SL:-17
15:25:29: E28C  60        RTS                            A:33 X:10 Y:00 P:24 SP:F7 CYC:213 SL:-17
15:25:29: E083  A5 F8     LDA $F8 = 00                   A:33 X:10 Y:00 P:24 SP:F9 CYC:231 SL:-17
15:25:29: E085  20 49 E5  JSR $E549                      A:03 X:10 Y:00 P:24 SP:F9 CYC:240 SL:-17
15:25:29: E549  48        PHA                            A:03 X:10 Y:00 P:24 SP:F7 CYC:258 SL:-17
15:25:29: E54A  A9 01     LDA #$01                       A:03 X:10 Y:00 P:24 SP:F6 CYC:267 SL:-17
15:25:29: E54C  8D 15 40  STA $4015 = 00                 A:01 X:10 Y:00 P:24 SP:F6 CYC:273 SL:-17
15:25:29: E54F  8D 03 40  STA $4003 = 00                 A:01 X:10 Y:00 P:24 SP:F6 CYC:285 SL:-17
15:25:29: E552  8D 01 40  STA $4001 = 00                 A:01 X:10 Y:00 P:24 SP:F6 CYC:297 SL:-17
15:25:29: E555  8D 02 40  STA $4002 = 00                 A:01 X:10 Y:00 P:24 SP:F6 CYC:309 SL:-17
15:25:29: E558  A9 0F     LDA #$0F                       A:01 X:10 Y:00 P:24 SP:F6 CYC:321 SL:-17
15:25:29: E55A  48        PHA                            A:0F X:10 Y:00 P:24 SP:F6 CYC:327 SL:-17
15:25:29: E55B  49 30     EOR #$30                       A:0F X:10 Y:00 P:24 SP:F5 CYC:336 SL:-17
15:25:29: E55D  8D 00 40  STA $4000 = 00                 A:3F X:10 Y:00 P:24 SP:F5 CYC:  1 SL:-16
15:25:29: E560  A9 08     LDA #$08                       A:3F X:10 Y:00 P:24 SP:F5 CYC: 13 SL:-16
15:25:29: E562  20 5E E2  JSR $E25E                      A:08 X:10 Y:00 P:24 SP:F5 CYC: 19 SL:-16
15:25:29: E25E  48        PHA                            A:08 X:10 Y:00 P:24 SP:F3 CYC: 37 SL:-16
15:25:29: E25F  A9 FD     LDA #$FD                       A:08 X:10 Y:00 P:24 SP:F2 CYC: 46 SL:-16
15:25:29: E261  38        SEC                            A:FD X:10 Y:00 P:A4 SP:F2 CYC: 52 SL:-16
15:25:29: E262  EA        NOP                            A:FD X:10 Y:00 P:A5 SP:F2 CYC: 58 SL:-16
15:25:29: E263  69 FE     ADC #$FE                       A:FD X:10 Y:00 P:A5 SP:F2 CYC: 64 SL:-16
15:25:29: E265  D0 FB     BNE $E262                      A:FC X:10 Y:00 P:A5 SP:F2 CYC: 70 SL:-16
15:25:29: VBL CLEARED HT: 11 VT: 6 FX: 0 FY: 2 RX: 1 RY: -1
15:25:29: 
LOOP: e265 -> e262 x 252

15:25:29: E267  68        PLA                            A:00 X:10 Y:00 P:27 SP:F2 CYC:253 SL:-1
15:25:29: E268  18        CLC                            A:08 X:10 Y:00 P:25 SP:F3 CYC:265 SL:-1
15:25:29: E269  69 FF     ADC #$FF                       A:08 X:10 Y:00 P:24 SP:F3 CYC:271 SL:-1
15:25:29: E26B  D0 F1     BNE $E25E                      A:07 X:10 Y:00 P:25 SP:F3 CYC:277 SL:-1
15:25:29: 
LOOP: e26b -> e25e x 7

15:25:29: E26D  60        RTS                            A:00 X:10 Y:00 P:27 SP:F3 CYC:321 SL:109
15:25:29: E565  68        PLA                            A:00 X:10 Y:00 P:27 SP:F5 CYC:339 SL:109
15:25:29: E566  18        CLC                            A:0F X:10 Y:00 P:25 SP:F6 CYC: 10 SL:110
15:25:29: E567  69 FF     ADC #$FF                       A:0F X:10 Y:00 P:24 SP:F6 CYC: 16 SL:110
15:25:29: E569  10 EF     BPL $E55A                      A:0E X:10 Y:00 P:25 SP:F6 CYC: 22 SL:110
15:25:29: E55A  48        PHA                            A:0E X:10 Y:00 P:25 SP:F6 CYC: 31 SL:110
15:25:29: E55B  49 30     EOR #$30                       A:0E X:10 Y:00 P:25 SP:F5 CYC: 40 SL:110
15:25:29: E55D  8D 00 40  STA $4000 = 00                 A:3E X:10 Y:00 P:25 SP:F5 CYC: 46 SL:110
15:25:29: E560  A9 08     LDA #$08                       A:3E X:10 Y:00 P:25 SP:F5 CYC: 58 SL:110
15:25:29: E562  20 5E E2  JSR $E25E                      A:08 X:10 Y:00 P:25 SP:F5 CYC: 64 SL:110
15:25:29: E25E  48        PHA                            A:08 X:10 Y:00 P:25 SP:F3 CYC: 82 SL:110
15:25:29: E25F  A9 FD     LDA #$FD                       A:08 X:10 Y:00 P:25 SP:F2 CYC: 91 SL:110
15:25:29: E261  38        SEC                            A:FD X:10 Y:00 P:A5 SP:F2 CYC: 97 SL:110
15:25:29: E262  EA        NOP                            A:FD X:10 Y:00 P:A5 SP:F2 CYC:103 SL:110
15:25:29: E263  69 FE     ADC #$FE                       A:FD X:10 Y:00 P:A5 SP:F2 CYC:109 SL:110
15:25:29: E265  D0 FB     BNE $E262                      A:FC X:10 Y:00 P:A5 SP:F2 CYC:115 SL:110
15:25:29: 
LOOP: e265 -> e262 x 252

15:25:29: E267  68        PLA                            A:00 X:10 Y:00 P:27 SP:F2 CYC:298 SL:125
15:25:29: E268  18        CLC                            A:08 X:10 Y:00 P:25 SP:F3 CYC:310 SL:125
15:25:29: E269  69 FF     ADC #$FF                       A:08 X:10 Y:00 P:24 SP:F3 CYC:316 SL:125
15:25:29: E26B  D0 F1     BNE $E25E                      A:07 X:10 Y:00 P:25 SP:F3 CYC:322 SL:125
15:25:29: 
LOOP: e26b -> e25e x 7

15:25:29: E26D  60        RTS                            A:00 X:10 Y:00 P:27 SP:F3 CYC: 25 SL:236
15:25:29: E565  68        PLA                            A:00 X:10 Y:00 P:27 SP:F5 CYC: 43 SL:236
15:25:29: E566  18        CLC                            A:0E X:10 Y:00 P:25 SP:F6 CYC: 55 SL:236
15:25:29: E567  69 FF     ADC #$FF                       A:0E X:10 Y:00 P:24 SP:F6 CYC: 61 SL:236
15:25:29: E569  10 EF     BPL $E55A                      A:0D X:10 Y:00 P:25 SP:F6 CYC: 67 SL:236
15:25:29: E55A  48        PHA                            A:0D X:10 Y:00 P:25 SP:F6 CYC: 76 SL:236
15:25:29: E55B  49 30     EOR #$30                       A:0D X:10 Y:00 P:25 SP:F5 CYC: 85 SL:236
15:25:29: E55D  8D 00 40  STA $4000 = 00                 A:3D X:10 Y:00 P:25 SP:F5 CYC: 91 SL:236
15:25:29: E560  A9 08     LDA #$08                       A:3D X:10 Y:00 P:25 SP:F5 CYC:103 SL:236
15:25:29: E562  20 5E E2  JSR $E25E                      A:08 X:10 Y:00 P:25 SP:F5 CYC:109 SL:236
15:25:29: E25E  48        PHA                            A:08 X:10 Y:00 P:25 SP:F3 CYC:127 SL:236
15:25:29: E25F  A9 FD     LDA #$FD                       A:08 X:10 Y:00 P:25 SP:F2 CYC:136 SL:236
15:25:29: E261  38        SEC                            A:FD X:10 Y:00 P:A5 SP:F2 CYC:142 SL:236
15:25:29: E262  EA        NOP                            A:FD X:10 Y:00 P:A5 SP:F2 CYC:148 SL:236
15:25:29: E263  69 FE     ADC #$FE                       A:FD X:10 Y:00 P:A5 SP:F2 CYC:154 SL:236
15:25:29: E265  D0 FB     BNE $E262                      A:FC X:10 Y:00 P:A5 SP:F2 CYC:160 SL:236
15:25:29: Frame finished, vblank set
15:25:29: 
LOOP: e265 -> e262 x 252

15:25:29: E267  68        PLA                            A:00 X:10 Y:00 P:27 SP:F2 CYC:  2 SL:-10
15:25:29: E268  18        CLC                            A:08 X:10 Y:00 P:25 SP:F3 CYC: 14 SL:-10
15:25:29: E269  69 FF     ADC #$FF                       A:08 X:10 Y:00 P:24 SP:F3 CYC: 20 SL:-10
15:25:29: E26B  D0 F1     BNE $E25E                      A:07 X:10 Y:00 P:25 SP:F3 CYC: 26 SL:-10
15:25:29: VBL CLEARED HT: 2 VT: 0 FX: 0 FY: 0 RX: 8 RY: -1
15:25:29: 
LOOP: e26b -> e25e x 7

15:25:29: E26D  60        RTS                            A:00 X:10 Y:00 P:27 SP:F3 CYC: 71 SL:100
15:25:29: E565  68        PLA                            A:00 X:10 Y:00 P:27 SP:F5 CYC: 89 SL:100
15:25:29: E566  18        CLC                            A:0D X:10 Y:00 P:25 SP:F6 CYC:101 SL:100
15:25:29: E567  69 FF     ADC #$FF                       A:0D X:10 Y:00 P:24 SP:F6 CYC:107 SL:100
15:25:30: E569  10 EF     BPL $E55A                      A:0C X:10 Y:00 P:25 SP:F6 CYC:113 SL:100
15:25:30: E55A  48        PHA                            A:0C X:10 Y:00 P:25 SP:F6 CYC:122 SL:100
15:25:30: E55B  49 30     EOR #$30                       A:0C X:10 Y:00 P:25 SP:F5 CYC:131 SL:100
15:25:30: E55D  8D 00 40  STA $4000 = 00                 A:3C X:10 Y:00 P:25 SP:F5 CYC:137 SL:100
15:25:30: E560  A9 08     LDA #$08                       A:3C X:10 Y:00 P:25 SP:F5 CYC:149 SL:100
15:25:30: E562  20 5E E2  JSR $E25E                      A:08 X:10 Y:00 P:25 SP:F5 CYC:155 SL:100
15:25:30: E25E  48        PHA                            A:08 X:10 Y:00 P:25 SP:F3 CYC:173 SL:100
15:25:30: E25F  A9 FD     LDA #$FD                       A:08 X:10 Y:00 P:25 SP:F2 CYC:182 SL:100
15:25:30: E261  38        SEC                            A:FD X:10 Y:00 P:A5 SP:F2 CYC:188 SL:100
15:25:30: E262  EA        NOP                            A:FD X:10 Y:00 P:A5 SP:F2 CYC:194 SL:100
15:25:30: E263  69 FE     ADC #$FE                       A:FD X:10 Y:00 P:A5 SP:F2 CYC:200 SL:100
15:25:30: E265  D0 FB     BNE $E262                      A:FC X:10 Y:00 P:A5 SP:F2 CYC:206 SL:100
15:25:30: 
LOOP: e265 -> e262 x 252

15:25:30: E267  68        PLA                            A:00 X:10 Y:00 P:27 SP:F2 CYC: 48 SL:116
15:25:30: E268  18        CLC                            A:08 X:10 Y:00 P:25 SP:F3 CYC: 60 SL:116
15:25:30: E269  69 FF     ADC #$FF                       A:08 X:10 Y:00 P:24 SP:F3 CYC: 66 SL:116
15:25:30: E26B  D0 F1     BNE $E25E                      A:07 X:10 Y:00 P:25 SP:F3 CYC: 72 SL:116
15:25:30: 
LOOP: e26b -> e25e x 7

15:25:30: E26D  60        RTS                            A:00 X:10 Y:00 P:27 SP:F3 CYC:116 SL:226
15:25:30: E565  68        PLA                            A:00 X:10 Y:00 P:27 SP:F5 CYC:134 SL:226
15:25:30: E566  18        CLC                            A:0C X:10 Y:00 P:25 SP:F6 CYC:146 SL:226
15:25:30: E567  69 FF     ADC #$FF                       A:0C X:10 Y:00 P:24 SP:F6 CYC:152 SL:226
15:25:30: E569  10 EF     BPL $E55A                      A:0B X:10 Y:00 P:25 SP:F6 CYC:158 SL:226
15:25:30: E55A  48        PHA                            A:0B X:10 Y:00 P:25 SP:F6 CYC:167 SL:226
15:25:30: E55B  49 30     EOR #$30                       A:0B X:10 Y:00 P:25 SP:F5 CYC:176 SL:226
15:25:30: E55D  8D 00 40  STA $4000 = 00                 A:3B X:10 Y:00 P:25 SP:F5 CYC:182 SL:226
15:25:30: E560  A9 08     LDA #$08                       A:3B X:10 Y:00 P:25 SP:F5 CYC:194 SL:226
15:25:30: E562  20 5E E2  JSR $E25E                      A:08 X:10 Y:00 P:25 SP:F5 CYC:200 SL:226
15:25:30: E25E  48        PHA                            A:08 X:10 Y:00 P:25 SP:F3 CYC:218 SL:226
15:25:30: E25F  A9 FD     LDA #$FD                       A:08 X:10 Y:00 P:25 SP:F2 CYC:227 SL:226
15:25:30: E261  38        SEC                            A:FD X:10 Y:00 P:A5 SP:F2 CYC:233 SL:226
15:25:30: E262  EA        NOP                            A:FD X:10 Y:00 P:A5 SP:F2 CYC:239 SL:226
15:25:30: E263  69 FE     ADC #$FE                       A:FD X:10 Y:00 P:A5 SP:F2 CYC:245 SL:226
15:25:30: E265  D0 FB     BNE $E262                      A:FC X:10 Y:00 P:A5 SP:F2 CYC:251 SL:226
15:25:30: Frame finished, vblank set
15:25:30: 
LOOP: e265 -> e262 x 252

15:25:30: E267  68        PLA                            A:00 X:10 Y:00 P:27 SP:F2 CYC: 93 SL:-20
15:25:30: E268  18        CLC                            A:08 X:10 Y:00 P:25 SP:F3 CYC:105 SL:-20
15:25:30: E269  69 FF     ADC #$FF                       A:08 X:10 Y:00 P:24 SP:F3 CYC:111 SL:-20
15:25:30: E26B  D0 F1     BNE $E25E                      A:07 X:10 Y:00 P:25 SP:F3 CYC:117 SL:-20
15:25:30: VBL CLEARED HT: 2 VT: 0 FX: 0 FY: 0 RX: 1 RY: -1
15:25:30: 
LOOP: e26b -> e25e x 7

15:25:30: E26D  60        RTS                            A:00 X:10 Y:00 P:27 SP:F3 CYC:161 SL:90
15:25:30: E565  68        PLA                            A:00 X:10 Y:00 P:27 SP:F5 CYC:179 SL:90
15:25:30: E566  18        CLC                            A:0B X:10 Y:00 P:25 SP:F6 CYC:191 SL:90
15:25:30: E567  69 FF     ADC #$FF                       A:0B X:10 Y:00 P:24 SP:F6 CYC:197 SL:90
15:25:30: E569  10 EF     BPL $E55A                      A:0A X:10 Y:00 P:25 SP:F6 CYC:203 SL:90
15:25:30: E55A  48        PHA                            A:0A X:10 Y:00 P:25 SP:F6 CYC:212 SL:90
15:25:30: E55B  49 30     EOR #$30                       A:0A X:10 Y:00 P:25 SP:F5 CYC:221 SL:90
15:25:30: E55D  8D 00 40  STA $4000 = 00                 A:3A X:10 Y:00 P:25 SP:F5 CYC:227 SL:90
15:25:30: E560  A9 08     LDA #$08                       A:3A X:10 Y:00 P:25 SP:F5 CYC:239 SL:90
15:25:30: E562  20 5E E2  JSR $E25E                      A:08 X:10 Y:00 P:25 SP:F5 CYC:245 SL:90
15:25:30: E25E  48        PHA                            A:08 X:10 Y:00 P:25 SP:F3 CYC:263 SL:90
15:25:30: E25F  A9 FD     LDA #$FD                       A:08 X:10 Y:00 P:25 SP:F2 CYC:272 SL:90
15:25:30: E261  38        SEC                            A:FD X:10 Y:00 P:A5 SP:F2 CYC:278 SL:90
15:25:30: E262  EA        NOP                            A:FD X:10 Y:00 P:A5 SP:F2 CYC:284 SL:90
15:25:30: E263  69 FE     ADC #$FE                       A:FD X:10 Y:00 P:A5 SP:F2 CYC:290 SL:90
15:25:30: E265  D0 FB     BNE $E262                      A:FC X:10 Y:00 P:A5 SP:F2 CYC:296 SL:90
15:25:30: 
LOOP: e265 -> e262 x 252

15:25:30: E267  68        PLA                            A:00 X:10 Y:00 P:27 SP:F2 CYC:138 SL:106
15:25:30: E268  18        CLC                            A:08 X:10 Y:00 P:25 SP:F3 CYC:150 SL:106
15:25:30: E269  69 FF     ADC #$FF                       A:08 X:10 Y:00 P:24 SP:F3 CYC:156 SL:106
15:25:30: E26B  D0 F1     BNE $E25E                      A:07 X:10 Y:00 P:25 SP:F3 CYC:162 SL:106
15:25:30: 
LOOP: e26b -> e25e x 7

15:25:30: E26D  60        RTS                            A:00 X:10 Y:00 P:27 SP:F3 CYC:206 SL:216
15:25:30: E565  68        PLA                            A:00 X:10 Y:00 P:27 SP:F5 CYC:224 SL:216
15:25:30: E566  18        CLC                            A:0A X:10 Y:00 P:25 SP:F6 CYC:236 SL:216
15:25:30: E567  69 FF     ADC #$FF                       A:0A X:10 Y:00 P:24 SP:F6 CYC:242 SL:216
15:25:30: E569  10 EF     BPL $E55A                      A:09 X:10 Y:00 P:25 SP:F6 CYC:248 SL:216
15:25:30: E55A  48        PHA                            A:09 X:10 Y:00 P:25 SP:F6 CYC:257 SL:216
15:25:30: E55B  49 30     EOR #$30                       A:09 X:10 Y:00 P:25 SP:F5 CYC:266 SL:216
15:25:30: E55D  8D 00 40  STA $4000 = 00                 A:39 X:10 Y:00 P:25 SP:F5 CYC:272 SL:216
15:25:30: E560  A9 08     LDA #$08                       A:39 X:10 Y:00 P:25 SP:F5 CYC:284 SL:216
15:25:30: E562  20 5E E2  JSR $E25E                      A:08 X:10 Y:00 P:25 SP:F5 CYC:290 SL:216
15:25:30: E25E  48        PHA                            A:08 X:10 Y:00 P:25 SP:F3 CYC:308 SL:216
15:25:30: E25F  A9 FD     LDA #$FD                       A:08 X:10 Y:00 P:25 SP:F2 CYC:317 SL:216
15:25:30: E261  38        SEC                            A:FD X:10 Y:00 P:A5 SP:F2 CYC:323 SL:216
15:25:30: E262  EA        NOP                            A:FD X:10 Y:00 P:A5 SP:F2 CYC:329 SL:216
15:25:30: E263  69 FE     ADC #$FE                       A:FD X:10 Y:00 P:A5 SP:F2 CYC:335 SL:216
15:25:30: E265  D0 FB     BNE $E262                      A:FC X:10 Y:00 P:A5 SP:F2 CYC:  0 SL:217
15:25:30: 
LOOP: e265 -> e262 x 252

15:25:30: E267  68        PLA                            A:00 X:10 Y:00 P:27 SP:F2 CYC:183 SL:232
15:25:30: E268  18        CLC                            A:08 X:10 Y:00 P:25 SP:F3 CYC:195 SL:232
15:25:30: E269  69 FF     ADC #$FF                       A:08 X:10 Y:00 P:24 SP:F3 CYC:201 SL:232
15:25:30: E26B  D0 F1     BNE $E25E                      A:07 X:10 Y:00 P:25 SP:F3 CYC:207 SL:232
15:25:30: Frame finished, vblank set
15:25:30: VBL CLEARED HT: 2 VT: 0 FX: 0 FY: 0 RX: 5 RY: -1
15:25:30: 
LOOP: e26b -> e25e x 7

15:25:30: E26D  60        RTS                            A:00 X:10 Y:00 P:27 SP:F3 CYC:252 SL:80
15:25:30: E565  68        PLA                            A:00 X:10 Y:00 P:27 SP:F5 CYC:270 SL:80
15:25:30: E566  18        CLC                            A:09 X:10 Y:00 P:25 SP:F6 CYC:282 SL:80
15:25:30: E567  69 FF     ADC #$FF                       A:09 X:10 Y:00 P:24 SP:F6 CYC:288 SL:80
15:25:30: E569  10 EF     BPL $E55A                      A:08 X:10 Y:00 P:25 SP:F6 CYC:294 SL:80
15:25:30: E55A  48        PHA                            A:08 X:10 Y:00 P:25 SP:F6 CYC:303 SL:80
15:25:30: E55B  49 30     EOR #$30                       A:08 X:10 Y:00 P:25 SP:F5 CYC:312 SL:80
15:25:30: E55D  8D 00 40  STA $4000 = 00                 A:38 X:10 Y:00 P:25 SP:F5 CYC:318 SL:80
15:25:30: E560  A9 08     LDA #$08                       A:38 X:10 Y:00 P:25 SP:F5 CYC:330 SL:80
15:25:30: E562  20 5E E2  JSR $E25E                      A:08 X:10 Y:00 P:25 SP:F5 CYC:336 SL:80
15:25:30: E25E  48        PHA                            A:08 X:10 Y:00 P:25 SP:F3 CYC: 13 SL:81
15:25:30: E25F  A9 FD     LDA #$FD                       A:08 X:10 Y:00 P:25 SP:F2 CYC: 22 SL:81
15:25:30: E261  38        SEC                            A:FD X:10 Y:00 P:A5 SP:F2 CYC: 28 SL:81
15:25:30: E262  EA        NOP                            A:FD X:10 Y:00 P:A5 SP:F2 CYC: 34 SL:81
15:25:30: E263  69 FE     ADC #$FE                       A:FD X:10 Y:00 P:A5 SP:F2 CYC: 40 SL:81
15:25:30: E265  D0 FB     BNE $E262                      A:FC X:10 Y:00 P:A5 SP:F2 CYC: 46 SL:81
15:25:30: 
LOOP: e265 -> e262 x 252

15:25:30: E267  68        PLA                            A:00 X:10 Y:00 P:27 SP:F2 CYC:229 SL:96
15:25:30: E268  18        CLC                            A:08 X:10 Y:00 P:25 SP:F3 CYC:241 SL:96
15:25:30: E269  69 FF     ADC #$FF                       A:08 X:10 Y:00 P:24 SP:F3 CYC:247 SL:96
15:25:30: E26B  D0 F1     BNE $E25E                      A:07 X:10 Y:00 P:25 SP:F3 CYC:253 SL:96
15:25:30: 
LOOP: e26b -> e25e x 7

15:25:30: E26D  60        RTS                            A:00 X:10 Y:00 P:27 SP:F3 CYC:297 SL:206
15:25:30: E565  68        PLA                            A:00 X:10 Y:00 P:27 SP:F5 CYC:315 SL:206
15:25:30: E566  18        CLC                            A:08 X:10 Y:00 P:25 SP:F6 CYC:327 SL:206
15:25:30: E567  69 FF     ADC #$FF                       A:08 X:10 Y:00 P:24 SP:F6 CYC:333 SL:206
15:25:30: E569  10 EF     BPL $E55A                      A:07 X:10 Y:00 P:25 SP:F6 CYC:339 SL:206
15:25:30: E55A  48        PHA                            A:07 X:10 Y:00 P:25 SP:F6 CYC:  7 SL:207
15:25:30: E55B  49 30     EOR #$30                       A:07 X:10 Y:00 P:25 SP:F5 CYC: 16 SL:207
15:25:30: E55D  8D 00 40  STA $4000 = 00                 A:37 X:10 Y:00 P:25 SP:F5 CYC: 22 SL:207
15:25:30: E560  A9 08     LDA #$08                       A:37 X:10 Y:00 P:25 SP:F5 CYC: 34 SL:207
15:25:30: E562  20 5E E2  JSR $E25E                      A:08 X:10 Y:00 P:25 SP:F5 CYC: 40 SL:207
15:25:30: E25E  48        PHA                            A:08 X:10 Y:00 P:25 SP:F3 CYC: 58 SL:207
15:25:30: E25F  A9 FD     LDA #$FD                       A:08 X:10 Y:00 P:25 SP:F2 CYC: 67 SL:207
15:25:30: E261  38        SEC                            A:FD X:10 Y:00 P:A5 SP:F2 CYC: 73 SL:207
15:25:30: E262  EA        NOP                            A:FD X:10 Y:00 P:A5 SP:F2 CYC: 79 SL:207
15:25:30: E263  69 FE     ADC #$FE                       A:FD X:10 Y:00 P:A5 SP:F2 CYC: 85 SL:207
15:25:30: E265  D0 FB     BNE $E262                      A:FC X:10 Y:00 P:A5 SP:F2 CYC: 91 SL:207
15:25:30: 
LOOP: e265 -> e262 x 252

15:25:30: E267  68        PLA                            A:00 X:10 Y:00 P:27 SP:F2 CYC:274 SL:222
15:25:30: E268  18        CLC                            A:08 X:10 Y:00 P:25 SP:F3 CYC:286 SL:222
15:25:30: E269  69 FF     ADC #$FF                       A:08 X:10 Y:00 P:24 SP:F3 CYC:292 SL:222
15:25:30: E26B  D0 F1     BNE $E25E                      A:07 X:10 Y:00 P:25 SP:F3 CYC:298 SL:222
15:25:30: Frame finished, vblank set
15:25:30: VBL CLEARED HT: 2 VT: 0 FX: 0 FY: 0 RX: 1 RY: -1
15:25:30: 
LOOP: e26b -> e25e x 7

15:25:30: E26D  60        RTS                            A:00 X:10 Y:00 P:27 SP:F3 CYC:  1 SL:71
15:25:30: E565  68        PLA                            A:00 X:10 Y:00 P:27 SP:F5 CYC: 19 SL:71
15:25:30: E566  18        CLC                            A:07 X:10 Y:00 P:25 SP:F6 CYC: 31 SL:71
15:25:30: E567  69 FF     ADC #$FF                       A:07 X:10 Y:00 P:24 SP:F6 CYC: 37 SL:71
15:25:30: E569  10 EF     BPL $E55A                      A:06 X:10 Y:00 P:25 SP:F6 CYC: 43 SL:71
15:25:30: E55A  48        PHA                            A:06 X:10 Y:00 P:25 SP:F6 CYC: 52 SL:71
15:25:30: E55B  49 30     EOR #$30                       A:06 X:10 Y:00 P:25 SP:F5 CYC: 61 SL:71
15:25:30: E55D  8D 00 40  STA $4000 = 00                 A:36 X:10 Y:00 P:25 SP:F5 CYC: 67 SL:71
15:25:30: E560  A9 08     LDA #$08                       A:36 X:10 Y:00 P:25 SP:F5 CYC: 79 SL:71
15:25:30: E562  20 5E E2  JSR $E25E                      A:08 X:10 Y:00 P:25 SP:F5 CYC: 85 SL:71
15:25:30: E25E  48        PHA                            A:08 X:10 Y:00 P:25 SP:F3 CYC:103 SL:71
15:25:30: E25F  A9 FD     LDA #$FD                       A:08 X:10 Y:00 P:25 SP:F2 CYC:112 SL:71
15:25:30: E261  38        SEC                            A:FD X:10 Y:00 P:A5 SP:F2 CYC:118 SL:71
15:25:30: E262  EA        NOP                            A:FD X:10 Y:00 P:A5 SP:F2 CYC:124 SL:71
15:25:30: E263  69 FE     ADC #$FE                       A:FD X:10 Y:00 P:A5 SP:F2 CYC:130 SL:71
15:25:30: E265  D0 FB     BNE $E262                      A:FC X:10 Y:00 P:A5 SP:F2 CYC:136 SL:71
15:25:30: 
LOOP: e265 -> e262 x 252

15:25:30: E267  68        PLA                            A:00 X:10 Y:00 P:27 SP:F2 CYC:319 SL:86
15:25:30: E268  18        CLC                            A:08 X:10 Y:00 P:25 SP:F3 CYC:331 SL:86
15:25:30: E269  69 FF     ADC #$FF                       A:08 X:10 Y:00 P:24 SP:F3 CYC:337 SL:86
15:25:30: E26B  D0 F1     BNE $E25E                      A:07 X:10 Y:00 P:25 SP:F3 CYC:  2 SL:87
15:25:30: 
LOOP: e26b -> e25e x 7

15:25:30: E26D  60        RTS                            A:00 X:10 Y:00 P:27 SP:F3 CYC: 46 SL:197
15:25:30: E565  68        PLA                            A:00 X:10 Y:00 P:27 SP:F5 CYC: 64 SL:197
15:25:30: E566  18        CLC                            A:06 X:10 Y:00 P:25 SP:F6 CYC: 76 SL:197
15:25:30: E567  69 FF     ADC #$FF                       A:06 X:10 Y:00 P:24 SP:F6 CYC: 82 SL:197
15:25:30: E569  10 EF     BPL $E55A                      A:05 X:10 Y:00 P:25 SP:F6 CYC: 88 SL:197
15:25:30: E55A  48        PHA                            A:05 X:10 Y:00 P:25 SP:F6 CYC: 97 SL:197
15:25:30: E55B  49 30     EOR #$30                       A:05 X:10 Y:00 P:25 SP:F5 CYC:106 SL:197
15:25:30: E55D  8D 00 40  STA $4000 = 00                 A:35 X:10 Y:00 P:25 SP:F5 CYC:112 SL:197
15:25:30: E560  A9 08     LDA #$08                       A:35 X:10 Y:00 P:25 SP:F5 CYC:124 SL:197
15:25:30: E562  20 5E E2  JSR $E25E                      A:08 X:10 Y:00 P:25 SP:F5 CYC:130 SL:197
15:25:30: E25E  48        PHA                            A:08 X:10 Y:00 P:25 SP:F3 CYC:148 SL:197
15:25:30: E25F  A9 FD     LDA #$FD                       A:08 X:10 Y:00 P:25 SP:F2 CYC:157 SL:197
15:25:30: E261  38        SEC                            A:FD X:10 Y:00 P:A5 SP:F2 CYC:163 SL:197
15:25:30: E262  EA        NOP                            A:FD X:10 Y:00 P:A5 SP:F2 CYC:169 SL:197
15:25:30: E263  69 FE     ADC #$FE                       A:FD X:10 Y:00 P:A5 SP:F2 CYC:175 SL:197
15:25:30: E265  D0 FB     BNE $E262                      A:FC X:10 Y:00 P:A5 SP:F2 CYC:181 SL:197
15:25:30: 
LOOP: e265 -> e262 x 252

15:25:30: E267  68        PLA                            A:00 X:10 Y:00 P:27 SP:F2 CYC: 23 SL:213
15:25:30: E268  18        CLC                            A:08 X:10 Y:00 P:25 SP:F3 CYC: 35 SL:213
15:25:30: E269  69 FF     ADC #$FF                       A:08 X:10 Y:00 P:24 SP:F3 CYC: 41 SL:213
15:25:30: E26B  D0 F1     BNE $E25E                      A:07 X:10 Y:00 P:25 SP:F3 CYC: 47 SL:213
15:25:30: Frame finished, vblank set
15:25:30: VBL CLEARED HT: 2 VT: 0 FX: 0 FY: 0 RX: 8 RY: -1
15:25:30: 
LOOP: e26b -> e25e x 7

15:25:30: E26D  60        RTS                            A:00 X:10 Y:00 P:27 SP:F3 CYC: 92 SL:61
15:25:30: E565  68        PLA                            A:00 X:10 Y:00 P:27 SP:F5 CYC:110 SL:61
15:25:30: E566  18        CLC                            A:05 X:10 Y:00 P:25 SP:F6 CYC:122 SL:61
15:25:30: E567  69 FF     ADC #$FF                       A:05 X:10 Y:00 P:24 SP:F6 CYC:128 SL:61
15:25:30: E569  10 EF     BPL $E55A                      A:04 X:10 Y:00 P:25 SP:F6 CYC:134 SL:61
15:25:30: E55A  48        PHA                            A:04 X:10 Y:00 P:25 SP:F6 CYC:143 SL:61
15:25:30: E55B  49 30     EOR #$30                       A:04 X:10 Y:00 P:25 SP:F5 CYC:152 SL:61
15:25:30: E55D  8D 00 40  STA $4000 = 00                 A:34 X:10 Y:00 P:25 SP:F5 CYC:158 SL:61
15:25:30: E560  A9 08     LDA #$08                       A:34 X:10 Y:00 P:25 SP:F5 CYC:170 SL:61
15:25:30: E562  20 5E E2  JSR $E25E                      A:08 X:10 Y:00 P:25 SP:F5 CYC:176 SL:61
15:25:30: E25E  48        PHA                            A:08 X:10 Y:00 P:25 SP:F3 CYC:194 SL:61
15:25:30: E25F  A9 FD     LDA #$FD                       A:08 X:10 Y:00 P:25 SP:F2 CYC:203 SL:61
15:25:30: E261  38        SEC                            A:FD X:10 Y:00 P:A5 SP:F2 CYC:209 SL:61
15:25:30: E262  EA        NOP                            A:FD X:10 Y:00 P:A5 SP:F2 CYC:215 SL:61
15:25:30: E263  69 FE     ADC #$FE                       A:FD X:10 Y:00 P:A5 SP:F2 CYC:221 SL:61
15:25:30: E265  D0 FB     BNE $E262                      A:FC X:10 Y:00 P:A5 SP:F2 CYC:227 SL:61
15:25:30: 
LOOP: e265 -> e262 x 252

15:25:30: E267  68        PLA                            A:00 X:10 Y:00 P:27 SP:F2 CYC: 69 SL:77
15:25:30: E268  18        CLC                            A:08 X:10 Y:00 P:25 SP:F3 CYC: 81 SL:77
15:25:30: E269  69 FF     ADC #$FF                       A:08 X:10 Y:00 P:24 SP:F3 CYC: 87 SL:77
15:25:30: E26B  D0 F1     BNE $E25E                      A:07 X:10 Y:00 P:25 SP:F3 CYC: 93 SL:77
15:25:30: 
LOOP: e26b -> e25e x 7

15:25:30: E26D  60        RTS                            A:00 X:10 Y:00 P:27 SP:F3 CYC:137 SL:187
15:25:30: E565  68        PLA                            A:00 X:10 Y:00 P:27 SP:F5 CYC:155 SL:187
15:25:30: E566  18        CLC                            A:04 X:10 Y:00 P:25 SP:F6 CYC:167 SL:187
15:25:30: E567  69 FF     ADC #$FF                       A:04 X:10 Y:00 P:24 SP:F6 CYC:173 SL:187
15:25:30: E569  10 EF     BPL $E55A                      A:03 X:10 Y:00 P:25 SP:F6 CYC:179 SL:187
15:25:30: E55A  48        PHA                            A:03 X:10 Y:00 P:25 SP:F6 CYC:188 SL:187
15:25:30: E55B  49 30     EOR #$30                       A:03 X:10 Y:00 P:25 SP:F5 CYC:197 SL:187
15:25:30: E55D  8D 00 40  STA $4000 = 00                 A:33 X:10 Y:00 P:25 SP:F5 CYC:203 SL:187
15:25:30: E560  A9 08     LDA #$08                       A:33 X:10 Y:00 P:25 SP:F5 CYC:215 SL:187
15:25:30: E562  20 5E E2  JSR $E25E                      A:08 X:10 Y:00 P:25 SP:F5 CYC:221 SL:187
15:25:30: E25E  48        PHA                            A:08 X:10 Y:00 P:25 SP:F3 CYC:239 SL:187
15:25:30: E25F  A9 FD     LDA #$FD                       A:08 X:10 Y:00 P:25 SP:F2 CYC:248 SL:187
15:25:30: E261  38        SEC                            A:FD X:10 Y:00 P:A5 SP:F2 CYC:254 SL:187
15:25:30: E262  EA        NOP                            A:FD X:10 Y:00 P:A5 SP:F2 CYC:260 SL:187
15:25:30: E263  69 FE     ADC #$FE                       A:FD X:10 Y:00 P:A5 SP:F2 CYC:266 SL:187
15:25:30: E265  D0 FB     BNE $E262                      A:FC X:10 Y:00 P:A5 SP:F2 CYC:272 SL:187
15:25:30: 
LOOP: e265 -> e262 x 252

15:25:30: E267  68        PLA                            A:00 X:10 Y:00 P:27 SP:F2 CYC:114 SL:203
15:25:30: E268  18        CLC                            A:08 X:10 Y:00 P:25 SP:F3 CYC:126 SL:203
15:25:30: E269  69 FF     ADC #$FF                       A:08 X:10 Y:00 P:24 SP:F3 CYC:132 SL:203
15:25:30: E26B  D0 F1     BNE $E25E                      A:07 X:10 Y:00 P:25 SP:F3 CYC:138 SL:203
15:25:30: Frame finished, vblank set
15:25:30: VBL CLEARED HT: 2 VT: 0 FX: 0 FY: 0 RX: 7 RY: -1
15:25:30: 
LOOP: e26b -> e25e x 7

15:25:30: E26D  60        RTS                            A:00 X:10 Y:00 P:27 SP:F3 CYC:182 SL:51
15:25:30: E565  68        PLA                            A:00 X:10 Y:00 P:27 SP:F5 CYC:200 SL:51
15:25:30: E566  18        CLC                            A:03 X:10 Y:00 P:25 SP:F6 CYC:212 SL:51
15:25:30: E567  69 FF     ADC #$FF                       A:03 X:10 Y:00 P:24 SP:F6 CYC:218 SL:51
15:25:30: E569  10 EF     BPL $E55A                      A:02 X:10 Y:00 P:25 SP:F6 CYC:224 SL:51
15:25:30: E55A  48        PHA                            A:02 X:10 Y:00 P:25 SP:F6 CYC:233 SL:51
15:25:30: E55B  49 30     EOR #$30                       A:02 X:10 Y:00 P:25 SP:F5 CYC:242 SL:51
15:25:30: E55D  8D 00 40  STA $4000 = 00                 A:32 X:10 Y:00 P:25 SP:F5 CYC:248 SL:51
15:25:30: E560  A9 08     LDA #$08                       A:32 X:10 Y:00 P:25 SP:F5 CYC:260 SL:51
15:25:30: E562  20 5E E2  JSR $E25E                      A:08 X:10 Y:00 P:25 SP:F5 CYC:266 SL:51
15:25:30: E25E  48        PHA                            A:08 X:10 Y:00 P:25 SP:F3 CYC:284 SL:51
15:25:30: E25F  A9 FD     LDA #$FD                       A:08 X:10 Y:00 P:25 SP:F2 CYC:293 SL:51
15:25:30: E261  38        SEC                            A:FD X:10 Y:00 P:A5 SP:F2 CYC:299 SL:51
15:25:30: E262  EA        NOP                            A:FD X:10 Y:00 P:A5 SP:F2 CYC:305 SL:51
15:25:30: E263  69 FE     ADC #$FE                       A:FD X:10 Y:00 P:A5 SP:F2 CYC:311 SL:51
15:25:30: E265  D0 FB     BNE $E262                      A:FC X:10 Y:00 P:A5 SP:F2 CYC:317 SL:51
15:25:30: 
LOOP: e265 -> e262 x 252

15:25:30: E267  68        PLA                            A:00 X:10 Y:00 P:27 SP:F2 CYC:159 SL:67
15:25:30: E268  18        CLC                            A:08 X:10 Y:00 P:25 SP:F3 CYC:171 SL:67
15:25:30: E269  69 FF     ADC #$FF                       A:08 X:10 Y:00 P:24 SP:F3 CYC:177 SL:67
15:25:30: E26B  D0 F1     BNE $E25E                      A:07 X:10 Y:00 P:25 SP:F3 CYC:183 SL:67
15:25:30: 
LOOP: e26b -> e25e x 7

15:25:30: E26D  60        RTS                            A:00 X:10 Y:00 P:27 SP:F3 CYC:227 SL:177
15:25:30: E565  68        PLA                            A:00 X:10 Y:00 P:27 SP:F5 CYC:245 SL:177
15:25:30: E566  18        CLC                            A:02 X:10 Y:00 P:25 SP:F6 CYC:257 SL:177
15:25:30: E567  69 FF     ADC #$FF                       A:02 X:10 Y:00 P:24 SP:F6 CYC:263 SL:177
15:25:30: E569  10 EF     BPL $E55A                      A:01 X:10 Y:00 P:25 SP:F6 CYC:269 SL:177
15:25:30: E55A  48        PHA                            A:01 X:10 Y:00 P:25 SP:F6 CYC:278 SL:177
15:25:30: E55B  49 30     EOR #$30                       A:01 X:10 Y:00 P:25 SP:F5 CYC:287 SL:177
15:25:30: E55D  8D 00 40  STA $4000 = 00                 A:31 X:10 Y:00 P:25 SP:F5 CYC:293 SL:177
15:25:30: E560  A9 08     LDA #$08                       A:31 X:10 Y:00 P:25 SP:F5 CYC:305 SL:177
15:25:30: E562  20 5E E2  JSR $E25E                      A:08 X:10 Y:00 P:25 SP:F5 CYC:311 SL:177
15:25:30: E25E  48        PHA                            A:08 X:10 Y:00 P:25 SP:F3 CYC:329 SL:177
15:25:30: E25F  A9 FD     LDA #$FD                       A:08 X:10 Y:00 P:25 SP:F2 CYC:338 SL:177
15:25:30: E261  38        SEC                            A:FD X:10 Y:00 P:A5 SP:F2 CYC:  3 SL:178
15:25:30: E262  EA        NOP                            A:FD X:10 Y:00 P:A5 SP:F2 CYC:  9 SL:178
15:25:30: E263  69 FE     ADC #$FE                       A:FD X:10 Y:00 P:A5 SP:F2 CYC: 15 SL:178
15:25:30: E265  D0 FB     BNE $E262                      A:FC X:10 Y:00 P:A5 SP:F2 CYC: 21 SL:178
15:25:30: 
LOOP: e265 -> e262 x 252

15:25:30: E267  68        PLA                            A:00 X:10 Y:00 P:27 SP:F2 CYC:204 SL:193
15:25:30: E268  18        CLC                            A:08 X:10 Y:00 P:25 SP:F3 CYC:216 SL:193
15:25:30: E269  69 FF     ADC #$FF                       A:08 X:10 Y:00 P:24 SP:F3 CYC:222 SL:193
15:25:30: E26B  D0 F1     BNE $E25E                      A:07 X:10 Y:00 P:25 SP:F3 CYC:228 SL:193
15:25:30: Frame finished, vblank set
15:25:30: VBL CLEARED HT: 2 VT: 0 FX: 0 FY: 0 RX: 5 RY: -1
15:25:30: 
LOOP: e26b -> e25e x 7

15:25:30: E26D  60        RTS                            A:00 X:10 Y:00 P:27 SP:F3 CYC:273 SL:41
15:25:30: E565  68        PLA                            A:00 X:10 Y:00 P:27 SP:F5 CYC:291 SL:41
15:25:30: E566  18        CLC                            A:01 X:10 Y:00 P:25 SP:F6 CYC:303 SL:41
15:25:30: E567  69 FF     ADC #$FF                       A:01 X:10 Y:00 P:24 SP:F6 CYC:309 SL:41
15:25:30: E569  10 EF     BPL $E55A                      A:00 X:10 Y:00 P:27 SP:F6 CYC:315 SL:41
15:25:30: E55A  48        PHA                            A:00 X:10 Y:00 P:27 SP:F6 CYC:324 SL:41
15:25:30: E55B  49 30     EOR #$30                       A:00 X:10 Y:00 P:27 SP:F5 CYC:333 SL:41
15:25:30: E55D  8D 00 40  STA $4000 = 00                 A:30 X:10 Y:00 P:25 SP:F5 CYC:339 SL:41
15:25:30: E560  A9 08     LDA #$08                       A:30 X:10 Y:00 P:25 SP:F5 CYC: 10 SL:42
15:25:30: E562  20 5E E2  JSR $E25E                      A:08 X:10 Y:00 P:25 SP:F5 CYC: 16 SL:42
15:25:30: E25E  48        PHA                            A:08 X:10 Y:00 P:25 SP:F3 CYC: 34 SL:42
15:25:30: E25F  A9 FD     LDA #$FD                       A:08 X:10 Y:00 P:25 SP:F2 CYC: 43 SL:42
15:25:30: E261  38        SEC                            A:FD X:10 Y:00 P:A5 SP:F2 CYC: 49 SL:42
15:25:30: E262  EA        NOP                            A:FD X:10 Y:00 P:A5 SP:F2 CYC: 55 SL:42
15:25:30: E263  69 FE     ADC #$FE                       A:FD X:10 Y:00 P:A5 SP:F2 CYC: 61 SL:42
15:25:30: E265  D0 FB     BNE $E262                      A:FC X:10 Y:00 P:A5 SP:F2 CYC: 67 SL:42
15:25:30: 
LOOP: e265 -> e262 x 252

15:25:30: E267  68        PLA                            A:00 X:10 Y:00 P:27 SP:F2 CYC:250 SL:57
15:25:30: E268  18        CLC                            A:08 X:10 Y:00 P:25 SP:F3 CYC:262 SL:57
15:25:30: E269  69 FF     ADC #$FF                       A:08 X:10 Y:00 P:24 SP:F3 CYC:268 SL:57
15:25:30: E26B  D0 F1     BNE $E25E                      A:07 X:10 Y:00 P:25 SP:F3 CYC:274 SL:57
15:25:30: 
LOOP: e26b -> e25e x 7

15:25:30: E26D  60        RTS                            A:00 X:10 Y:00 P:27 SP:F3 CYC:318 SL:167
15:25:30: E565  68        PLA                            A:00 X:10 Y:00 P:27 SP:F5 CYC:336 SL:167
15:25:30: E566  18        CLC                            A:00 X:10 Y:00 P:27 SP:F6 CYC:  7 SL:168
15:25:30: E567  69 FF     ADC #$FF                       A:00 X:10 Y:00 P:26 SP:F6 CYC: 13 SL:168
15:25:30: E569  10 EF     BPL $E55A                      A:FF X:10 Y:00 P:A4 SP:F6 CYC: 19 SL:168
15:25:30: E56B  8D 15 40  STA $4015 = 00                 A:FF X:10 Y:00 P:A4 SP:F6 CYC: 25 SL:168
15:25:30: E56E  A9 78     LDA #$78                       A:FF X:10 Y:00 P:A4 SP:F6 CYC: 37 SL:168
15:25:30: E570  20 5E E2  JSR $E25E                      A:78 X:10 Y:00 P:24 SP:F6 CYC: 43 SL:168
15:25:30: E25E  48        PHA                            A:78 X:10 Y:00 P:24 SP:F4 CYC: 61 SL:168
15:25:30: E25F  A9 FD     LDA #$FD                       A:78 X:10 Y:00 P:24 SP:F3 CYC: 70 SL:168
15:25:30: E261  38        SEC                            A:FD X:10 Y:00 P:A4 SP:F3 CYC: 76 SL:168
15:25:30: E262  EA        NOP                            A:FD X:10 Y:00 P:A5 SP:F3 CYC: 82 SL:168
15:25:30: E263  69 FE     ADC #$FE                       A:FD X:10 Y:00 P:A5 SP:F3 CYC: 88 SL:168
15:25:30: E265  D0 FB     BNE $E262                      A:FC X:10 Y:00 P:A5 SP:F3 CYC: 94 SL:168
15:25:30: 
LOOP: e265 -> e262 x 252

15:25:30: E267  68        PLA                            A:00 X:10 Y:00 P:27 SP:F3 CYC:277 SL:183
15:25:30: E268  18        CLC                            A:78 X:10 Y:00 P:25 SP:F4 CYC:289 SL:183
15:25:30: E269  69 FF     ADC #$FF                       A:78 X:10 Y:00 P:24 SP:F4 CYC:295 SL:183
15:25:30: E26B  D0 F1     BNE $E25E                      A:77 X:10 Y:00 P:25 SP:F4 CYC:301 SL:183
15:25:30: Frame finished, vblank set
15:25:30: VBL CLEARED HT: 2 VT: 0 FX: 0 FY: 0 RX: 1 RY: -1
15:25:30: Frame finished, vblank set
15:25:30: VBL CLEARED HT: 2 VT: 0 FX: 0 FY: 0 RX: 5 RY: -1
15:25:30: Frame finished, vblank set
15:25:30: VBL CLEARED HT: 2 VT: 0 FX: 0 FY: 0 RX: 4 RY: -1
15:25:30: Frame finished, vblank set
15:25:30: VBL CLEARED HT: 2 VT: 0 FX: 0 FY: 0 RX: 2 RY: -1
15:25:30: Frame finished, vblank set
15:25:30: VBL CLEARED HT: 2 VT: 0 FX: 0 FY: 0 RX: 1 RY: -1
15:25:30: Frame finished, vblank set
15:25:30: VBL CLEARED HT: 2 VT: 0 FX: 0 FY: 0 RX: 5 RY: -1
15:25:30: Frame finished, vblank set
15:25:30: VBL CLEARED HT: 2 VT: 0 FX: 0 FY: 0 RX: 1 RY: -1
15:25:30: 
LOOP: e26b -> e25e x 119

15:25:30: E26D  60        RTS                            A:00 X:10 Y:00 P:27 SP:F4 CYC:274 SL:221
15:25:30: E573  68        PLA                            A:00 X:10 Y:00 P:27 SP:F6 CYC:292 SL:221
15:25:30: E574  18        CLC                            A:03 X:10 Y:00 P:25 SP:F7 CYC:304 SL:221
15:25:30: E575  69 FF     ADC #$FF                       A:03 X:10 Y:00 P:24 SP:F7 CYC:310 SL:221
15:25:30: E577  D0 D0     BNE $E549                      A:02 X:10 Y:00 P:25 SP:F7 CYC:316 SL:221
15:25:30: E549  48        PHA                            A:02 X:10 Y:00 P:25 SP:F7 CYC:325 SL:221
15:25:30: E54A  A9 01     LDA #$01                       A:02 X:10 Y:00 P:25 SP:F6 CYC:334 SL:221
15:25:30: E54C  8D 15 40  STA $4015 = 00                 A:01 X:10 Y:00 P:25 SP:F6 CYC:340 SL:221
15:25:30: E54F  8D 03 40  STA $4003 = 00                 A:01 X:10 Y:00 P:25 SP:F6 CYC: 11 SL:222
15:25:30: E552  8D 01 40  STA $4001 = 00                 A:01 X:10 Y:00 P:25 SP:F6 CYC: 23 SL:222
15:25:30: E555  8D 02 40  STA $4002 = 00                 A:01 X:10 Y:00 P:25 SP:F6 CYC: 35 SL:222
15:25:30: E558  A9 0F     LDA #$0F                       A:01 X:10 Y:00 P:25 SP:F6 CYC: 47 SL:222
15:25:30: E55A  48        PHA                            A:0F X:10 Y:00 P:25 SP:F6 CYC: 53 SL:222
15:25:30: E55B  49 30     EOR #$30                       A:0F X:10 Y:00 P:25 SP:F5 CYC: 62 SL:222
15:25:30: E55D  8D 00 40  STA $4000 = 00                 A:3F X:10 Y:00 P:25 SP:F5 CYC: 68 SL:222
15:25:30: E560  A9 08     LDA #$08                       A:3F X:10 Y:00 P:25 SP:F5 CYC: 80 SL:222
15:25:30: E562  20 5E E2  JSR $E25E                      A:08 X:10 Y:00 P:25 SP:F5 CYC: 86 SL:222
15:25:30: E25E  48        PHA                            A:08 X:10 Y:00 P:25 SP:F3 CYC:104 SL:222
15:25:30: E25F  A9 FD     LDA #$FD                       A:08 X:10 Y:00 P:25 SP:F2 CYC:113 SL:222
15:25:30: E261  38        SEC                            A:FD X:10 Y:00 P:A5 SP:F2 CYC:119 SL:222
15:25:30: E262  EA        NOP                            A:FD X:10 Y:00 P:A5 SP:F2 CYC:125 SL:222
15:25:30: E263  69 FE     ADC #$FE                       A:FD X:10 Y:00 P:A5 SP:F2 CYC:131 SL:222
15:25:30: E265  D0 FB     BNE $E262                      A:FC X:10 Y:00 P:A5 SP:F2 CYC:137 SL:222
15:25:30: 
LOOP: e265 -> e262 x 252

15:25:30: E267  68        PLA                            A:00 X:10 Y:00 P:27 SP:F2 CYC:320 SL:237
15:25:30: E268  18        CLC                            A:08 X:10 Y:00 P:25 SP:F3 CYC:332 SL:237
15:25:30: E269  69 FF     ADC #$FF                       A:08 X:10 Y:00 P:24 SP:F3 CYC:338 SL:237
15:25:30: E26B  D0 F1     BNE $E25E                      A:07 X:10 Y:00 P:25 SP:F3 CYC:  3 SL:238
15:25:30: Frame finished, vblank set

